;******************************************************************************
;* TI ARM G3 C/C++ Codegen                                        Unix v18.12.1.LTS *
;* Date/Time created: Mon Apr  1 02:19:18 2019                                *
;******************************************************************************
	.compiler_opts --abi=eabi --arm_vmrs_si_workaround=off --code_state=16 --diag_wrap=off --embedded_constants=on --endian=little --float_support=FPv4SPD16 --hll_source=on --object_format=elf --silicon_version=7M4 --symdebug:dwarf --symdebug:dwarf_version=3 --unaligned_access=on 
	.thumb

$C$DW$CU	.dwtag  DW_TAG_compile_unit
	.dwattr $C$DW$CU, DW_AT_name("../thirdparty/SEGGER/SEGGER/SEGGER_SYSVIEW.c")
	.dwattr $C$DW$CU, DW_AT_producer("TI TI ARM G3 C/C++ Codegen Unix v18.12.1.LTS Copyright (c) 1996-2018 Texas Instruments Incorporated")
	.dwattr $C$DW$CU, DW_AT_TI_version(0x01)
	.dwattr $C$DW$CU, DW_AT_comp_dir("/home/vishal/workspace_v8/My_project/Debug")
$C$DW$1	.dwtag  DW_TAG_variable
	.dwattr $C$DW$1, DW_AT_name("_SEGGER_RTT")
	.dwattr $C$DW$1, DW_AT_TI_symbol_name("_SEGGER_RTT")
	.dwattr $C$DW$1, DW_AT_type(*$C$DW$T$93)
	.dwattr $C$DW$1, DW_AT_declaration
	.dwattr $C$DW$1, DW_AT_external
	.dwattr $C$DW$1, DW_AT_decl_file("../thirdparty/SEGGER/SEGGER/SEGGER_RTT.h")
	.dwattr $C$DW$1, DW_AT_decl_line(0x97)
	.dwattr $C$DW$1, DW_AT_decl_column(0x16)

	.sect	".const:.string:_abSync"
	.align	1
	.elfsym	_abSync,SYM_SIZE(12)
_abSync:
	.bits		0,8
			; _abSync[0] @ 0
	.bits		0,8
			; _abSync[1] @ 8
	.bits		0,8
			; _abSync[2] @ 16
	.bits		0,8
			; _abSync[3] @ 24
	.bits		0,8
			; _abSync[4] @ 32
	.bits		0,8
			; _abSync[5] @ 40
	.bits		0,8
			; _abSync[6] @ 48
	.bits		0,8
			; _abSync[7] @ 56
	.bits		0,8
			; _abSync[8] @ 64
	.bits		0,8
			; _abSync[9] @ 72

$C$DW$2	.dwtag  DW_TAG_variable
	.dwattr $C$DW$2, DW_AT_name("_abSync")
	.dwattr $C$DW$2, DW_AT_TI_symbol_name("_abSync")
	.dwattr $C$DW$2, DW_AT_type(*$C$DW$T$152)
	.dwattr $C$DW$2, DW_AT_location[DW_OP_addr _abSync]
	.dwattr $C$DW$2, DW_AT_decl_file("../thirdparty/SEGGER/SEGGER/SEGGER_SYSVIEW.c")
	.dwattr $C$DW$2, DW_AT_decl_line(0x101)
	.dwattr $C$DW$2, DW_AT_decl_column(0x11)

_UpBuffer:	.usect	".bss:_UpBuffer",8192,1
$C$DW$3	.dwtag  DW_TAG_variable
	.dwattr $C$DW$3, DW_AT_name("_UpBuffer")
	.dwattr $C$DW$3, DW_AT_TI_symbol_name("_UpBuffer")
	.dwattr $C$DW$3, DW_AT_type(*$C$DW$T$261)
	.dwattr $C$DW$3, DW_AT_location[DW_OP_addr _UpBuffer]
	.dwattr $C$DW$3, DW_AT_decl_file("../thirdparty/SEGGER/SEGGER/SEGGER_SYSVIEW.c")
	.dwattr $C$DW$3, DW_AT_decl_line(0x11a)
	.dwattr $C$DW$3, DW_AT_decl_column(0x11)

_DownBuffer:	.usect	".bss:_DownBuffer",8,1
$C$DW$4	.dwtag  DW_TAG_variable
	.dwattr $C$DW$4, DW_AT_name("_DownBuffer")
	.dwattr $C$DW$4, DW_AT_TI_symbol_name("_DownBuffer")
	.dwattr $C$DW$4, DW_AT_type(*$C$DW$T$262)
	.dwattr $C$DW$4, DW_AT_location[DW_OP_addr _DownBuffer]
	.dwattr $C$DW$4, DW_AT_decl_file("../thirdparty/SEGGER/SEGGER/SEGGER_SYSVIEW.c")
	.dwattr $C$DW$4, DW_AT_decl_line(0x11c)
	.dwattr $C$DW$4, DW_AT_decl_column(0x11)

_SYSVIEW_Globals:	.usect	".bss:_SYSVIEW_Globals",40,4
$C$DW$5	.dwtag  DW_TAG_variable
	.dwattr $C$DW$5, DW_AT_name("_SYSVIEW_Globals")
	.dwattr $C$DW$5, DW_AT_TI_symbol_name("_SYSVIEW_Globals")
	.dwattr $C$DW$5, DW_AT_type(*$C$DW$T$94)
	.dwattr $C$DW$5, DW_AT_location[DW_OP_addr _SYSVIEW_Globals]
	.dwattr $C$DW$5, DW_AT_decl_file("../thirdparty/SEGGER/SEGGER/SEGGER_SYSVIEW.c")
	.dwattr $C$DW$5, DW_AT_decl_line(0x120)
	.dwattr $C$DW$5, DW_AT_decl_column(0x1f)

	.bss	_pFirstModule,4,4
$C$DW$6	.dwtag  DW_TAG_variable
	.dwattr $C$DW$6, DW_AT_name("_pFirstModule")
	.dwattr $C$DW$6, DW_AT_TI_symbol_name("_pFirstModule")
	.dwattr $C$DW$6, DW_AT_type(*$C$DW$T$82)
	.dwattr $C$DW$6, DW_AT_location[DW_OP_addr _pFirstModule]
	.dwattr $C$DW$6, DW_AT_decl_file("../thirdparty/SEGGER/SEGGER/SEGGER_SYSVIEW.c")
	.dwattr $C$DW$6, DW_AT_decl_line(0x122)
	.dwattr $C$DW$6, DW_AT_decl_column(0x1f)

	.bss	_NumModules,1,1
$C$DW$7	.dwtag  DW_TAG_variable
	.dwattr $C$DW$7, DW_AT_name("_NumModules")
	.dwattr $C$DW$7, DW_AT_TI_symbol_name("_NumModules")
	.dwattr $C$DW$7, DW_AT_type(*$C$DW$T$6)
	.dwattr $C$DW$7, DW_AT_location[DW_OP_addr _NumModules]
	.dwattr $C$DW$7, DW_AT_decl_file("../thirdparty/SEGGER/SEGGER/SEGGER_SYSVIEW.c")
	.dwattr $C$DW$7, DW_AT_decl_line(0x123)
	.dwattr $C$DW$7, DW_AT_decl_column(0x1f)

_aPacket:	.usect	".bss:_aPacket",228,1
$C$DW$8	.dwtag  DW_TAG_variable
	.dwattr $C$DW$8, DW_AT_name("_aPacket")
	.dwattr $C$DW$8, DW_AT_TI_symbol_name("_aPacket")
	.dwattr $C$DW$8, DW_AT_type(*$C$DW$T$154)
	.dwattr $C$DW$8, DW_AT_location[DW_OP_addr _aPacket]
	.dwattr $C$DW$8, DW_AT_decl_file("../thirdparty/SEGGER/SEGGER/SEGGER_SYSVIEW.c")
	.dwattr $C$DW$8, DW_AT_decl_line(0x13c)
	.dwattr $C$DW$8, DW_AT_decl_column(0x0b)


$C$DW$9	.dwtag  DW_TAG_subprogram
	.dwattr $C$DW$9, DW_AT_name("SEGGER_RTT_ReadNoLock")
	.dwattr $C$DW$9, DW_AT_TI_symbol_name("SEGGER_RTT_ReadNoLock")
	.dwattr $C$DW$9, DW_AT_type(*$C$DW$T$11)
	.dwattr $C$DW$9, DW_AT_declaration
	.dwattr $C$DW$9, DW_AT_external
	.dwattr $C$DW$9, DW_AT_decl_file("../thirdparty/SEGGER/SEGGER/SEGGER_RTT.h")
	.dwattr $C$DW$9, DW_AT_decl_line(0xac)
	.dwattr $C$DW$9, DW_AT_decl_column(0x0e)
$C$DW$10	.dwtag  DW_TAG_formal_parameter
	.dwattr $C$DW$10, DW_AT_type(*$C$DW$T$11)

$C$DW$11	.dwtag  DW_TAG_formal_parameter
	.dwattr $C$DW$11, DW_AT_type(*$C$DW$T$3)

$C$DW$12	.dwtag  DW_TAG_formal_parameter
	.dwattr $C$DW$12, DW_AT_type(*$C$DW$T$11)

	.dwendtag $C$DW$9


$C$DW$13	.dwtag  DW_TAG_subprogram
	.dwattr $C$DW$13, DW_AT_name("SEGGER_RTT_WriteSkipNoLock")
	.dwattr $C$DW$13, DW_AT_TI_symbol_name("SEGGER_RTT_WriteSkipNoLock")
	.dwattr $C$DW$13, DW_AT_type(*$C$DW$T$11)
	.dwattr $C$DW$13, DW_AT_declaration
	.dwattr $C$DW$13, DW_AT_external
	.dwattr $C$DW$13, DW_AT_decl_file("../thirdparty/SEGGER/SEGGER/SEGGER_RTT.h")
	.dwattr $C$DW$13, DW_AT_decl_line(0xb4)
	.dwattr $C$DW$13, DW_AT_decl_column(0x0e)
$C$DW$14	.dwtag  DW_TAG_formal_parameter
	.dwattr $C$DW$14, DW_AT_type(*$C$DW$T$11)

$C$DW$15	.dwtag  DW_TAG_formal_parameter
	.dwattr $C$DW$15, DW_AT_type(*$C$DW$T$104)

$C$DW$16	.dwtag  DW_TAG_formal_parameter
	.dwattr $C$DW$16, DW_AT_type(*$C$DW$T$11)

	.dwendtag $C$DW$13

	.sect	".const:.string:_aV2C$1"
	.align	1
	.elfsym	_aV2C$1,SYM_SIZE(16)
_aV2C$1:
	.bits		0x30,8
			; _aV2C$1[0] @ 0
	.bits		0x31,8
			; _aV2C$1[1] @ 8
	.bits		0x32,8
			; _aV2C$1[2] @ 16
	.bits		0x33,8
			; _aV2C$1[3] @ 24
	.bits		0x34,8
			; _aV2C$1[4] @ 32
	.bits		0x35,8
			; _aV2C$1[5] @ 40
	.bits		0x36,8
			; _aV2C$1[6] @ 48
	.bits		0x37,8
			; _aV2C$1[7] @ 56
	.bits		0x38,8
			; _aV2C$1[8] @ 64
	.bits		0x39,8
			; _aV2C$1[9] @ 72
	.bits		0x41,8
			; _aV2C$1[10] @ 80
	.bits		0x42,8
			; _aV2C$1[11] @ 88
	.bits		0x43,8
			; _aV2C$1[12] @ 96
	.bits		0x44,8
			; _aV2C$1[13] @ 104
	.bits		0x45,8
			; _aV2C$1[14] @ 112
	.bits		0x46,8
			; _aV2C$1[15] @ 120


$C$DW$17	.dwtag  DW_TAG_subprogram
	.dwattr $C$DW$17, DW_AT_name("SEGGER_RTT_ConfigUpBuffer")
	.dwattr $C$DW$17, DW_AT_TI_symbol_name("SEGGER_RTT_ConfigUpBuffer")
	.dwattr $C$DW$17, DW_AT_type(*$C$DW$T$10)
	.dwattr $C$DW$17, DW_AT_declaration
	.dwattr $C$DW$17, DW_AT_external
	.dwattr $C$DW$17, DW_AT_decl_file("../thirdparty/SEGGER/SEGGER/SEGGER_RTT.h")
	.dwattr $C$DW$17, DW_AT_decl_line(0xa4)
	.dwattr $C$DW$17, DW_AT_decl_column(0x0e)
$C$DW$18	.dwtag  DW_TAG_formal_parameter
	.dwattr $C$DW$18, DW_AT_type(*$C$DW$T$11)

$C$DW$19	.dwtag  DW_TAG_formal_parameter
	.dwattr $C$DW$19, DW_AT_type(*$C$DW$T$30)

$C$DW$20	.dwtag  DW_TAG_formal_parameter
	.dwattr $C$DW$20, DW_AT_type(*$C$DW$T$3)

$C$DW$21	.dwtag  DW_TAG_formal_parameter
	.dwattr $C$DW$21, DW_AT_type(*$C$DW$T$11)

$C$DW$22	.dwtag  DW_TAG_formal_parameter
	.dwattr $C$DW$22, DW_AT_type(*$C$DW$T$11)

	.dwendtag $C$DW$17


$C$DW$23	.dwtag  DW_TAG_subprogram
	.dwattr $C$DW$23, DW_AT_name("SEGGER_RTT_ConfigDownBuffer")
	.dwattr $C$DW$23, DW_AT_TI_symbol_name("SEGGER_RTT_ConfigDownBuffer")
	.dwattr $C$DW$23, DW_AT_type(*$C$DW$T$10)
	.dwattr $C$DW$23, DW_AT_declaration
	.dwattr $C$DW$23, DW_AT_external
	.dwattr $C$DW$23, DW_AT_decl_file("../thirdparty/SEGGER/SEGGER/SEGGER_RTT.h")
	.dwattr $C$DW$23, DW_AT_decl_line(0xa5)
	.dwattr $C$DW$23, DW_AT_decl_column(0x0e)
$C$DW$24	.dwtag  DW_TAG_formal_parameter
	.dwattr $C$DW$24, DW_AT_type(*$C$DW$T$11)

$C$DW$25	.dwtag  DW_TAG_formal_parameter
	.dwattr $C$DW$25, DW_AT_type(*$C$DW$T$30)

$C$DW$26	.dwtag  DW_TAG_formal_parameter
	.dwattr $C$DW$26, DW_AT_type(*$C$DW$T$3)

$C$DW$27	.dwtag  DW_TAG_formal_parameter
	.dwattr $C$DW$27, DW_AT_type(*$C$DW$T$11)

$C$DW$28	.dwtag  DW_TAG_formal_parameter
	.dwattr $C$DW$28, DW_AT_type(*$C$DW$T$11)

	.dwendtag $C$DW$23

;	/home/vishal/ti/ccsv8/tools/compiler/ti-cgt-arm_18.12.1.LTS/bin/armacpia -@/tmp/TI2b6gmfOYT 
	.sect	".text"
	.clink
	.thumbfunc _EncodeData
	.thumb

$C$DW$29	.dwtag  DW_TAG_subprogram
	.dwattr $C$DW$29, DW_AT_name("_EncodeData")
	.dwattr $C$DW$29, DW_AT_low_pc(_EncodeData)
	.dwattr $C$DW$29, DW_AT_high_pc(0x00)
	.dwattr $C$DW$29, DW_AT_TI_symbol_name("_EncodeData")
	.dwattr $C$DW$29, DW_AT_type(*$C$DW$T$21)
	.dwattr $C$DW$29, DW_AT_TI_begin_file("../thirdparty/SEGGER/SEGGER/SEGGER_SYSVIEW.c")
	.dwattr $C$DW$29, DW_AT_TI_begin_line(0x162)
	.dwattr $C$DW$29, DW_AT_TI_begin_column(0x0c)
	.dwattr $C$DW$29, DW_AT_decl_file("../thirdparty/SEGGER/SEGGER/SEGGER_SYSVIEW.c")
	.dwattr $C$DW$29, DW_AT_decl_line(0x162)
	.dwattr $C$DW$29, DW_AT_decl_column(0x0c)
	.dwattr $C$DW$29, DW_AT_TI_max_frame_size(0x10)
	.dwpsn	file "../thirdparty/SEGGER/SEGGER/SEGGER_SYSVIEW.c",line 354,column 79,is_stmt,address _EncodeData,isa 1

	.dwfde $C$DW$CIE, _EncodeData
$C$DW$30	.dwtag  DW_TAG_formal_parameter
	.dwattr $C$DW$30, DW_AT_name("pPayload")
	.dwattr $C$DW$30, DW_AT_TI_symbol_name("pPayload")
	.dwattr $C$DW$30, DW_AT_type(*$C$DW$T$21)
	.dwattr $C$DW$30, DW_AT_location[DW_OP_reg0]

$C$DW$31	.dwtag  DW_TAG_formal_parameter
	.dwattr $C$DW$31, DW_AT_name("pSrc")
	.dwattr $C$DW$31, DW_AT_TI_symbol_name("pSrc")
	.dwattr $C$DW$31, DW_AT_type(*$C$DW$T$30)
	.dwattr $C$DW$31, DW_AT_location[DW_OP_reg1]

$C$DW$32	.dwtag  DW_TAG_formal_parameter
	.dwattr $C$DW$32, DW_AT_name("NumBytes")
	.dwattr $C$DW$32, DW_AT_TI_symbol_name("NumBytes")
	.dwattr $C$DW$32, DW_AT_type(*$C$DW$T$11)
	.dwattr $C$DW$32, DW_AT_location[DW_OP_reg2]


;*****************************************************************************
;* FUNCTION NAME: _EncodeData                                                *
;*                                                                           *
;*   Regs Modified     : A1,A2,A3,SP,SR                                      *
;*   Regs Used         : A1,A2,A3,SP,LR,SR                                   *
;*   Local Frame Size  : 0 Args + 16 Auto + 0 Save = 16 byte                 *
;*****************************************************************************
_EncodeData:
;* --------------------------------------------------------------------------*
	.dwcfi	cfa_offset, 0
        SUB       SP, SP, #16           ; [DPU_V7M3_PIPE] 
	.dwcfi	cfa_offset, 16
$C$DW$33	.dwtag  DW_TAG_variable
	.dwattr $C$DW$33, DW_AT_name("pPayload")
	.dwattr $C$DW$33, DW_AT_TI_symbol_name("pPayload")
	.dwattr $C$DW$33, DW_AT_type(*$C$DW$T$21)
	.dwattr $C$DW$33, DW_AT_location[DW_OP_breg13 0]

$C$DW$34	.dwtag  DW_TAG_variable
	.dwattr $C$DW$34, DW_AT_name("pSrc")
	.dwattr $C$DW$34, DW_AT_TI_symbol_name("pSrc")
	.dwattr $C$DW$34, DW_AT_type(*$C$DW$T$30)
	.dwattr $C$DW$34, DW_AT_location[DW_OP_breg13 4]

$C$DW$35	.dwtag  DW_TAG_variable
	.dwattr $C$DW$35, DW_AT_name("NumBytes")
	.dwattr $C$DW$35, DW_AT_TI_symbol_name("NumBytes")
	.dwattr $C$DW$35, DW_AT_type(*$C$DW$T$11)
	.dwattr $C$DW$35, DW_AT_location[DW_OP_breg13 8]

$C$DW$36	.dwtag  DW_TAG_variable
	.dwattr $C$DW$36, DW_AT_name("n")
	.dwattr $C$DW$36, DW_AT_TI_symbol_name("n")
	.dwattr $C$DW$36, DW_AT_type(*$C$DW$T$11)
	.dwattr $C$DW$36, DW_AT_location[DW_OP_breg13 12]

        STR       A3, [SP, #8]          ; [DPU_V7M3_PIPE] |354| 
        STR       A2, [SP, #4]          ; [DPU_V7M3_PIPE] |354| 
        STR       A1, [SP, #0]          ; [DPU_V7M3_PIPE] |354| 
	.dwpsn	file "../thirdparty/SEGGER/SEGGER/SEGGER_SYSVIEW.c",line 357,column 3,is_stmt,isa 1
        MOVS      A1, #0                ; [DPU_V7M3_PIPE] |357| 
        STR       A1, [SP, #12]         ; [DPU_V7M3_PIPE] |357| 
	.dwpsn	file "../thirdparty/SEGGER/SEGGER/SEGGER_SYSVIEW.c",line 358,column 3,is_stmt,isa 1
        LDR       A1, [SP, #0]          ; [DPU_V7M3_PIPE] |358| 
        ADDS      A2, A1, #1            ; [DPU_V7M3_PIPE] |358| 
        STR       A2, [SP, #0]          ; [DPU_V7M3_PIPE] |358| 
        LDRB      A2, [SP, #8]          ; [DPU_V7M3_PIPE] |358| 
        STRB      A2, [A1, #0]          ; [DPU_V7M3_PIPE] |358| 
	.dwpsn	file "../thirdparty/SEGGER/SEGGER/SEGGER_SYSVIEW.c",line 359,column 10,is_stmt,isa 1
        LDR       A2, [SP, #12]         ; [DPU_V7M3_PIPE] |359| 
        LDR       A1, [SP, #8]          ; [DPU_V7M3_PIPE] |359| 
        CMP       A1, A2                ; [DPU_V7M3_PIPE] |359| 
        BLS       ||$C$L2||             ; [DPU_V7M3_PIPE] |359| 
        ; BRANCHCC OCCURS {||$C$L2||}    ; [] |359| 
;* --------------------------------------------------------------------------*
;*   BEGIN LOOP ||$C$L1||
;*
;*   Loop source line                : 359
;*   Loop closing brace source line  : 362
;*   Known Minimum Trip Count        : 1
;*   Known Maximum Trip Count        : 4294967295
;*   Known Max Trip Count Factor     : 1
;* --------------------------------------------------------------------------*
||$C$L1||:    
	.dwpsn	file "../thirdparty/SEGGER/SEGGER/SEGGER_SYSVIEW.c",line 360,column 5,is_stmt,isa 1
        LDR       A2, [SP, #4]          ; [DPU_V7M3_PIPE] |360| 
        LDR       A1, [SP, #0]          ; [DPU_V7M3_PIPE] |360| 
        LDRB      A3, [A2], #1          ; [DPU_V7M3_PIPE] |360| 
        STR       A2, [SP, #4]          ; [DPU_V7M3_PIPE] |360| 
        ADDS      A2, A1, #1            ; [DPU_V7M3_PIPE] |360| 
        STR       A2, [SP, #0]          ; [DPU_V7M3_PIPE] |360| 
        STRB      A3, [A1, #0]          ; [DPU_V7M3_PIPE] |360| 
	.dwpsn	file "../thirdparty/SEGGER/SEGGER/SEGGER_SYSVIEW.c",line 361,column 5,is_stmt,isa 1
        LDR       A1, [SP, #12]         ; [DPU_V7M3_PIPE] |361| 
        ADDS      A1, A1, #1            ; [DPU_V7M3_PIPE] |361| 
        STR       A1, [SP, #12]         ; [DPU_V7M3_PIPE] |361| 
	.dwpsn	file "../thirdparty/SEGGER/SEGGER/SEGGER_SYSVIEW.c",line 359,column 10,is_stmt,isa 1
        LDR       A1, [SP, #8]          ; [DPU_V7M3_PIPE] |359| 
        LDR       A2, [SP, #12]         ; [DPU_V7M3_PIPE] |359| 
        CMP       A1, A2                ; [DPU_V7M3_PIPE] |359| 
        BHI       ||$C$L1||             ; [DPU_V7M3_PIPE] |359| 
        ; BRANCHCC OCCURS {||$C$L1||}    ; [] |359| 
;* --------------------------------------------------------------------------*
||$C$L2||:    
	.dwpsn	file "../thirdparty/SEGGER/SEGGER/SEGGER_SYSVIEW.c",line 363,column 3,is_stmt,isa 1
        LDR       A1, [SP, #0]          ; [DPU_V7M3_PIPE] |363| 
	.dwpsn	file "../thirdparty/SEGGER/SEGGER/SEGGER_SYSVIEW.c",line 364,column 1,is_stmt,isa 1
        ADD       SP, SP, #16           ; [DPU_V7M3_PIPE] 
	.dwcfi	cfa_offset, 0
$C$DW$37	.dwtag  DW_TAG_TI_branch
	.dwattr $C$DW$37, DW_AT_low_pc(0x00)
	.dwattr $C$DW$37, DW_AT_TI_return

        BX        LR                    ; [DPU_V7M3_PIPE] 
        ; BRANCH OCCURS                  ; [] 
	.dwattr $C$DW$29, DW_AT_TI_end_file("../thirdparty/SEGGER/SEGGER/SEGGER_SYSVIEW.c")
	.dwattr $C$DW$29, DW_AT_TI_end_line(0x16c)
	.dwattr $C$DW$29, DW_AT_TI_end_column(0x01)
	.dwendentry
	.dwendtag $C$DW$29

	.sect	".text"
	.clink
	.thumbfunc _EncodeStr
	.thumb

$C$DW$38	.dwtag  DW_TAG_subprogram
	.dwattr $C$DW$38, DW_AT_name("_EncodeStr")
	.dwattr $C$DW$38, DW_AT_low_pc(_EncodeStr)
	.dwattr $C$DW$38, DW_AT_high_pc(0x00)
	.dwattr $C$DW$38, DW_AT_TI_symbol_name("_EncodeStr")
	.dwattr $C$DW$38, DW_AT_type(*$C$DW$T$21)
	.dwattr $C$DW$38, DW_AT_TI_begin_file("../thirdparty/SEGGER/SEGGER/SEGGER_SYSVIEW.c")
	.dwattr $C$DW$38, DW_AT_TI_begin_line(0x184)
	.dwattr $C$DW$38, DW_AT_TI_begin_column(0x0c)
	.dwattr $C$DW$38, DW_AT_decl_file("../thirdparty/SEGGER/SEGGER/SEGGER_SYSVIEW.c")
	.dwattr $C$DW$38, DW_AT_decl_line(0x184)
	.dwattr $C$DW$38, DW_AT_decl_column(0x0c)
	.dwattr $C$DW$38, DW_AT_TI_max_frame_size(0x18)
	.dwpsn	file "../thirdparty/SEGGER/SEGGER/SEGGER_SYSVIEW.c",line 388,column 76,is_stmt,address _EncodeStr,isa 1

	.dwfde $C$DW$CIE, _EncodeStr
$C$DW$39	.dwtag  DW_TAG_formal_parameter
	.dwattr $C$DW$39, DW_AT_name("pPayload")
	.dwattr $C$DW$39, DW_AT_TI_symbol_name("pPayload")
	.dwattr $C$DW$39, DW_AT_type(*$C$DW$T$21)
	.dwattr $C$DW$39, DW_AT_location[DW_OP_reg0]

$C$DW$40	.dwtag  DW_TAG_formal_parameter
	.dwattr $C$DW$40, DW_AT_name("pText")
	.dwattr $C$DW$40, DW_AT_TI_symbol_name("pText")
	.dwattr $C$DW$40, DW_AT_type(*$C$DW$T$30)
	.dwattr $C$DW$40, DW_AT_location[DW_OP_reg1]

$C$DW$41	.dwtag  DW_TAG_formal_parameter
	.dwattr $C$DW$41, DW_AT_name("Limit")
	.dwattr $C$DW$41, DW_AT_TI_symbol_name("Limit")
	.dwattr $C$DW$41, DW_AT_type(*$C$DW$T$11)
	.dwattr $C$DW$41, DW_AT_location[DW_OP_reg2]


;*****************************************************************************
;* FUNCTION NAME: _EncodeStr                                                 *
;*                                                                           *
;*   Regs Modified     : A1,A2,A3,SP,SR                                      *
;*   Regs Used         : A1,A2,A3,SP,LR,SR                                   *
;*   Local Frame Size  : 0 Args + 20 Auto + 0 Save = 20 byte                 *
;*****************************************************************************
_EncodeStr:
;* --------------------------------------------------------------------------*
	.dwcfi	cfa_offset, 0
        SUB       SP, SP, #24           ; [DPU_V7M3_PIPE] 
	.dwcfi	cfa_offset, 24
$C$DW$42	.dwtag  DW_TAG_variable
	.dwattr $C$DW$42, DW_AT_name("pPayload")
	.dwattr $C$DW$42, DW_AT_TI_symbol_name("pPayload")
	.dwattr $C$DW$42, DW_AT_type(*$C$DW$T$21)
	.dwattr $C$DW$42, DW_AT_location[DW_OP_breg13 0]

$C$DW$43	.dwtag  DW_TAG_variable
	.dwattr $C$DW$43, DW_AT_name("pText")
	.dwattr $C$DW$43, DW_AT_TI_symbol_name("pText")
	.dwattr $C$DW$43, DW_AT_type(*$C$DW$T$30)
	.dwattr $C$DW$43, DW_AT_location[DW_OP_breg13 4]

$C$DW$44	.dwtag  DW_TAG_variable
	.dwattr $C$DW$44, DW_AT_name("Limit")
	.dwattr $C$DW$44, DW_AT_TI_symbol_name("Limit")
	.dwattr $C$DW$44, DW_AT_type(*$C$DW$T$11)
	.dwattr $C$DW$44, DW_AT_location[DW_OP_breg13 8]

$C$DW$45	.dwtag  DW_TAG_variable
	.dwattr $C$DW$45, DW_AT_name("n")
	.dwattr $C$DW$45, DW_AT_TI_symbol_name("n")
	.dwattr $C$DW$45, DW_AT_type(*$C$DW$T$11)
	.dwattr $C$DW$45, DW_AT_location[DW_OP_breg13 12]

$C$DW$46	.dwtag  DW_TAG_variable
	.dwattr $C$DW$46, DW_AT_name("Len")
	.dwattr $C$DW$46, DW_AT_TI_symbol_name("Len")
	.dwattr $C$DW$46, DW_AT_type(*$C$DW$T$11)
	.dwattr $C$DW$46, DW_AT_location[DW_OP_breg13 16]

        STR       A3, [SP, #8]          ; [DPU_V7M3_PIPE] |388| 
        STR       A2, [SP, #4]          ; [DPU_V7M3_PIPE] |388| 
        STR       A1, [SP, #0]          ; [DPU_V7M3_PIPE] |388| 
	.dwpsn	file "../thirdparty/SEGGER/SEGGER/SEGGER_SYSVIEW.c",line 394,column 3,is_stmt,isa 1
        MOVS      A1, #0                ; [DPU_V7M3_PIPE] |394| 
        STR       A1, [SP, #16]         ; [DPU_V7M3_PIPE] |394| 
	.dwpsn	file "../thirdparty/SEGGER/SEGGER/SEGGER_SYSVIEW.c",line 395,column 3,is_stmt,isa 1
        B         ||$C$L4||             ; [DPU_V7M3_PIPE] |395| 
        ; BRANCH OCCURS {||$C$L4||}      ; [] |395| 
;* --------------------------------------------------------------------------*
||$C$L3||:    
	.dwpsn	file "../thirdparty/SEGGER/SEGGER/SEGGER_SYSVIEW.c",line 396,column 5,is_stmt,isa 1
        LDR       A1, [SP, #16]         ; [DPU_V7M3_PIPE] |396| 
        ADDS      A1, A1, #1            ; [DPU_V7M3_PIPE] |396| 
        STR       A1, [SP, #16]         ; [DPU_V7M3_PIPE] |396| 
;* --------------------------------------------------------------------------*
;*   BEGIN LOOP ||$C$L4||
;* --------------------------------------------------------------------------*
||$C$L4||:    
	.dwpsn	file "../thirdparty/SEGGER/SEGGER/SEGGER_SYSVIEW.c",line 395,column 9,is_stmt,isa 1
        LDR       A1, [SP, #4]          ; [DPU_V7M3_PIPE] |395| 
        LDR       A2, [SP, #16]         ; [DPU_V7M3_PIPE] |395| 
        LDRB      A1, [A2, +A1]         ; [DPU_V7M3_PIPE] |395| 
        CMP       A1, #0                ; [DPU_V7M3_PIPE] |395| 
        BNE       ||$C$L3||             ; [DPU_V7M3_PIPE] |395| 
        ; BRANCHCC OCCURS {||$C$L3||}    ; [] |395| 
;* --------------------------------------------------------------------------*
	.dwpsn	file "../thirdparty/SEGGER/SEGGER/SEGGER_SYSVIEW.c",line 398,column 3,is_stmt,isa 1
        LDR       A1, [SP, #8]          ; [DPU_V7M3_PIPE] |398| 
        LDR       A2, [SP, #16]         ; [DPU_V7M3_PIPE] |398| 
        CMP       A1, A2                ; [DPU_V7M3_PIPE] |398| 
        BCS       ||$C$L5||             ; [DPU_V7M3_PIPE] |398| 
        ; BRANCHCC OCCURS {||$C$L5||}    ; [] |398| 
;* --------------------------------------------------------------------------*
	.dwpsn	file "../thirdparty/SEGGER/SEGGER/SEGGER_SYSVIEW.c",line 399,column 5,is_stmt,isa 1
        LDR       A1, [SP, #8]          ; [DPU_V7M3_PIPE] |399| 
        STR       A1, [SP, #16]         ; [DPU_V7M3_PIPE] |399| 
;* --------------------------------------------------------------------------*
||$C$L5||:    
	.dwpsn	file "../thirdparty/SEGGER/SEGGER/SEGGER_SYSVIEW.c",line 404,column 3,is_stmt,isa 1
        LDR       A1, [SP, #16]         ; [DPU_V7M3_PIPE] |404| 
        CMP       A1, #255              ; [DPU_V7M3_PIPE] |404| 
        BCS       ||$C$L6||             ; [DPU_V7M3_PIPE] |404| 
        ; BRANCHCC OCCURS {||$C$L6||}    ; [] |404| 
;* --------------------------------------------------------------------------*
	.dwpsn	file "../thirdparty/SEGGER/SEGGER/SEGGER_SYSVIEW.c",line 405,column 5,is_stmt,isa 1
        LDR       A1, [SP, #0]          ; [DPU_V7M3_PIPE] |405| 
        ADDS      A2, A1, #1            ; [DPU_V7M3_PIPE] |405| 
        STR       A2, [SP, #0]          ; [DPU_V7M3_PIPE] |405| 
        LDRB      A2, [SP, #16]         ; [DPU_V7M3_PIPE] |405| 
        STRB      A2, [A1, #0]          ; [DPU_V7M3_PIPE] |405| 
	.dwpsn	file "../thirdparty/SEGGER/SEGGER/SEGGER_SYSVIEW.c",line 406,column 3,is_stmt,isa 1
        B         ||$C$L7||             ; [DPU_V7M3_PIPE] |406| 
        ; BRANCH OCCURS {||$C$L7||}      ; [] |406| 
;* --------------------------------------------------------------------------*
||$C$L6||:    
	.dwpsn	file "../thirdparty/SEGGER/SEGGER/SEGGER_SYSVIEW.c",line 407,column 5,is_stmt,isa 1
        LDR       A1, [SP, #0]          ; [DPU_V7M3_PIPE] |407| 
        ADDS      A2, A1, #1            ; [DPU_V7M3_PIPE] |407| 
        STR       A2, [SP, #0]          ; [DPU_V7M3_PIPE] |407| 
        MOVS      A2, #255              ; [DPU_V7M3_PIPE] |407| 
        STRB      A2, [A1, #0]          ; [DPU_V7M3_PIPE] |407| 
	.dwpsn	file "../thirdparty/SEGGER/SEGGER/SEGGER_SYSVIEW.c",line 408,column 5,is_stmt,isa 1
        LDR       A2, [SP, #0]          ; [DPU_V7M3_PIPE] |408| 
        LDR       A1, [SP, #16]         ; [DPU_V7M3_PIPE] |408| 
        ADDS      A3, A2, #1            ; [DPU_V7M3_PIPE] |408| 
        STR       A3, [SP, #0]          ; [DPU_V7M3_PIPE] |408| 
        AND       A1, A1, #255          ; [DPU_V7M3_PIPE] |408| 
        STRB      A1, [A2, #0]          ; [DPU_V7M3_PIPE] |408| 
	.dwpsn	file "../thirdparty/SEGGER/SEGGER/SEGGER_SYSVIEW.c",line 409,column 5,is_stmt,isa 1
        LDR       A3, [SP, #16]         ; [DPU_V7M3_PIPE] |409| 
        LDR       A1, [SP, #0]          ; [DPU_V7M3_PIPE] |409| 
        ADDS      A2, A1, #1            ; [DPU_V7M3_PIPE] |409| 
        STR       A2, [SP, #0]          ; [DPU_V7M3_PIPE] |409| 
        UBFX      A2, A3, #8, #8        ; [DPU_V7M3_PIPE] |409| 
        STRB      A2, [A1, #0]          ; [DPU_V7M3_PIPE] |409| 
;* --------------------------------------------------------------------------*
||$C$L7||:    
	.dwpsn	file "../thirdparty/SEGGER/SEGGER/SEGGER_SYSVIEW.c",line 414,column 3,is_stmt,isa 1
        MOVS      A1, #0                ; [DPU_V7M3_PIPE] |414| 
        STR       A1, [SP, #12]         ; [DPU_V7M3_PIPE] |414| 
	.dwpsn	file "../thirdparty/SEGGER/SEGGER/SEGGER_SYSVIEW.c",line 415,column 10,is_stmt,isa 1
        LDR       A1, [SP, #16]         ; [DPU_V7M3_PIPE] |415| 
        LDR       A2, [SP, #12]         ; [DPU_V7M3_PIPE] |415| 
        CMP       A1, A2                ; [DPU_V7M3_PIPE] |415| 
        BLS       ||$C$L9||             ; [DPU_V7M3_PIPE] |415| 
        ; BRANCHCC OCCURS {||$C$L9||}    ; [] |415| 
;* --------------------------------------------------------------------------*
;*   BEGIN LOOP ||$C$L8||
;*
;*   Loop source line                : 415
;*   Loop closing brace source line  : 418
;*   Known Minimum Trip Count        : 1
;*   Known Maximum Trip Count        : 4294967295
;*   Known Max Trip Count Factor     : 1
;* --------------------------------------------------------------------------*
||$C$L8||:    
	.dwpsn	file "../thirdparty/SEGGER/SEGGER/SEGGER_SYSVIEW.c",line 416,column 5,is_stmt,isa 1
        LDR       A2, [SP, #4]          ; [DPU_V7M3_PIPE] |416| 
        LDR       A1, [SP, #0]          ; [DPU_V7M3_PIPE] |416| 
        LDRB      A3, [A2], #1          ; [DPU_V7M3_PIPE] |416| 
        STR       A2, [SP, #4]          ; [DPU_V7M3_PIPE] |416| 
        ADDS      A2, A1, #1            ; [DPU_V7M3_PIPE] |416| 
        STR       A2, [SP, #0]          ; [DPU_V7M3_PIPE] |416| 
        STRB      A3, [A1, #0]          ; [DPU_V7M3_PIPE] |416| 
	.dwpsn	file "../thirdparty/SEGGER/SEGGER/SEGGER_SYSVIEW.c",line 417,column 5,is_stmt,isa 1
        LDR       A1, [SP, #12]         ; [DPU_V7M3_PIPE] |417| 
        ADDS      A1, A1, #1            ; [DPU_V7M3_PIPE] |417| 
        STR       A1, [SP, #12]         ; [DPU_V7M3_PIPE] |417| 
	.dwpsn	file "../thirdparty/SEGGER/SEGGER/SEGGER_SYSVIEW.c",line 415,column 10,is_stmt,isa 1
        LDR       A1, [SP, #16]         ; [DPU_V7M3_PIPE] |415| 
        LDR       A2, [SP, #12]         ; [DPU_V7M3_PIPE] |415| 
        CMP       A1, A2                ; [DPU_V7M3_PIPE] |415| 
        BHI       ||$C$L8||             ; [DPU_V7M3_PIPE] |415| 
        ; BRANCHCC OCCURS {||$C$L8||}    ; [] |415| 
;* --------------------------------------------------------------------------*
||$C$L9||:    
	.dwpsn	file "../thirdparty/SEGGER/SEGGER/SEGGER_SYSVIEW.c",line 419,column 3,is_stmt,isa 1
        LDR       A1, [SP, #0]          ; [DPU_V7M3_PIPE] |419| 
	.dwpsn	file "../thirdparty/SEGGER/SEGGER/SEGGER_SYSVIEW.c",line 420,column 1,is_stmt,isa 1
        ADD       SP, SP, #24           ; [DPU_V7M3_PIPE] 
	.dwcfi	cfa_offset, 0
$C$DW$47	.dwtag  DW_TAG_TI_branch
	.dwattr $C$DW$47, DW_AT_low_pc(0x00)
	.dwattr $C$DW$47, DW_AT_TI_return

        BX        LR                    ; [DPU_V7M3_PIPE] 
        ; BRANCH OCCURS                  ; [] 
	.dwattr $C$DW$38, DW_AT_TI_end_file("../thirdparty/SEGGER/SEGGER/SEGGER_SYSVIEW.c")
	.dwattr $C$DW$38, DW_AT_TI_end_line(0x1a4)
	.dwattr $C$DW$38, DW_AT_TI_end_column(0x01)
	.dwendentry
	.dwendtag $C$DW$38

	.sect	".text"
	.clink
	.thumbfunc _PreparePacket
	.thumb

$C$DW$48	.dwtag  DW_TAG_subprogram
	.dwattr $C$DW$48, DW_AT_name("_PreparePacket")
	.dwattr $C$DW$48, DW_AT_low_pc(_PreparePacket)
	.dwattr $C$DW$48, DW_AT_high_pc(0x00)
	.dwattr $C$DW$48, DW_AT_TI_symbol_name("_PreparePacket")
	.dwattr $C$DW$48, DW_AT_type(*$C$DW$T$21)
	.dwattr $C$DW$48, DW_AT_TI_begin_file("../thirdparty/SEGGER/SEGGER/SEGGER_SYSVIEW.c")
	.dwattr $C$DW$48, DW_AT_TI_begin_line(0x1b8)
	.dwattr $C$DW$48, DW_AT_TI_begin_column(0x0c)
	.dwattr $C$DW$48, DW_AT_decl_file("../thirdparty/SEGGER/SEGGER/SEGGER_SYSVIEW.c")
	.dwattr $C$DW$48, DW_AT_decl_line(0x1b8)
	.dwattr $C$DW$48, DW_AT_decl_column(0x0c)
	.dwattr $C$DW$48, DW_AT_TI_max_frame_size(0x08)
	.dwpsn	file "../thirdparty/SEGGER/SEGGER/SEGGER_SYSVIEW.c",line 440,column 40,is_stmt,address _PreparePacket,isa 1

	.dwfde $C$DW$CIE, _PreparePacket
$C$DW$49	.dwtag  DW_TAG_formal_parameter
	.dwattr $C$DW$49, DW_AT_name("pPacket")
	.dwattr $C$DW$49, DW_AT_TI_symbol_name("pPacket")
	.dwattr $C$DW$49, DW_AT_type(*$C$DW$T$21)
	.dwattr $C$DW$49, DW_AT_location[DW_OP_reg0]


;*****************************************************************************
;* FUNCTION NAME: _PreparePacket                                             *
;*                                                                           *
;*   Regs Modified     : A1,SP,SR                                            *
;*   Regs Used         : A1,SP,LR,SR                                         *
;*   Local Frame Size  : 0 Args + 4 Auto + 0 Save = 4 byte                   *
;*****************************************************************************
_PreparePacket:
;* --------------------------------------------------------------------------*
	.dwcfi	cfa_offset, 0
        SUB       SP, SP, #8            ; [DPU_V7M3_PIPE] 
	.dwcfi	cfa_offset, 8
$C$DW$50	.dwtag  DW_TAG_variable
	.dwattr $C$DW$50, DW_AT_name("pPacket")
	.dwattr $C$DW$50, DW_AT_TI_symbol_name("pPacket")
	.dwattr $C$DW$50, DW_AT_type(*$C$DW$T$21)
	.dwattr $C$DW$50, DW_AT_location[DW_OP_breg13 0]

        STR       A1, [SP, #0]          ; [DPU_V7M3_PIPE] |440| 
	.dwpsn	file "../thirdparty/SEGGER/SEGGER/SEGGER_SYSVIEW.c",line 441,column 3,is_stmt,isa 1
        LDR       A1, [SP, #0]          ; [DPU_V7M3_PIPE] |441| 
        ADDS      A1, A1, #4            ; [DPU_V7M3_PIPE] |441| 
	.dwpsn	file "../thirdparty/SEGGER/SEGGER/SEGGER_SYSVIEW.c",line 442,column 1,is_stmt,isa 1
        ADD       SP, SP, #8            ; [DPU_V7M3_PIPE] 
	.dwcfi	cfa_offset, 0
$C$DW$51	.dwtag  DW_TAG_TI_branch
	.dwattr $C$DW$51, DW_AT_low_pc(0x00)
	.dwattr $C$DW$51, DW_AT_TI_return

        BX        LR                    ; [DPU_V7M3_PIPE] 
        ; BRANCH OCCURS                  ; [] 
	.dwattr $C$DW$48, DW_AT_TI_end_file("../thirdparty/SEGGER/SEGGER/SEGGER_SYSVIEW.c")
	.dwattr $C$DW$48, DW_AT_TI_end_line(0x1ba)
	.dwattr $C$DW$48, DW_AT_TI_end_column(0x01)
	.dwendentry
	.dwendtag $C$DW$48

	.sect	".text"
	.clink
	.thumbfunc _HandleIncomingPacket
	.thumb

$C$DW$52	.dwtag  DW_TAG_subprogram
	.dwattr $C$DW$52, DW_AT_name("_HandleIncomingPacket")
	.dwattr $C$DW$52, DW_AT_low_pc(_HandleIncomingPacket)
	.dwattr $C$DW$52, DW_AT_high_pc(0x00)
	.dwattr $C$DW$52, DW_AT_TI_symbol_name("_HandleIncomingPacket")
	.dwattr $C$DW$52, DW_AT_TI_begin_file("../thirdparty/SEGGER/SEGGER/SEGGER_SYSVIEW.c")
	.dwattr $C$DW$52, DW_AT_TI_begin_line(0x1c9)
	.dwattr $C$DW$52, DW_AT_TI_begin_column(0x0d)
	.dwattr $C$DW$52, DW_AT_decl_file("../thirdparty/SEGGER/SEGGER/SEGGER_SYSVIEW.c")
	.dwattr $C$DW$52, DW_AT_decl_line(0x1c9)
	.dwattr $C$DW$52, DW_AT_decl_column(0x0d)
	.dwattr $C$DW$52, DW_AT_TI_max_frame_size(0x10)
	.dwpsn	file "../thirdparty/SEGGER/SEGGER/SEGGER_SYSVIEW.c",line 457,column 41,is_stmt,address _HandleIncomingPacket,isa 1

	.dwfde $C$DW$CIE, _HandleIncomingPacket

;*****************************************************************************
;* FUNCTION NAME: _HandleIncomingPacket                                      *
;*                                                                           *
;*   Regs Modified     : A1,A2,A3,A4,V9,SP,LR,SR,D0,D0_hi,D1,D1_hi,D2,D2_hi, *
;*                           D3,D3_hi,D4,D4_hi,D5,D5_hi,D6,D6_hi,D7,D7_hi,   *
;*                           FPEXC,FPSCR                                     *
;*   Regs Used         : A1,A2,A3,A4,V9,SP,LR,SR,D0,D0_hi,D1,D1_hi,D2,D2_hi, *
;*                           D3,D3_hi,D4,D4_hi,D5,D5_hi,D6,D6_hi,D7,D7_hi,   *
;*                           FPEXC,FPSCR                                     *
;*   Local Frame Size  : 0 Args + 8 Auto + 4 Save = 12 byte                  *
;*****************************************************************************
_HandleIncomingPacket:
;* --------------------------------------------------------------------------*
	.dwcfi	cfa_offset, 0
        PUSH      {A2, A3, A4, LR}      ; [DPU_V7M3_PIPE] 
	.dwcfi	cfa_offset, 16
	.dwcfi	save_reg_to_mem, 14, -4
	.dwcfi	save_reg_to_mem, 3, -8
	.dwcfi	save_reg_to_mem, 2, -12
	.dwcfi	save_reg_to_mem, 1, -16
$C$DW$53	.dwtag  DW_TAG_variable
	.dwattr $C$DW$53, DW_AT_name("Status")
	.dwattr $C$DW$53, DW_AT_TI_symbol_name("Status")
	.dwattr $C$DW$53, DW_AT_type(*$C$DW$T$10)
	.dwattr $C$DW$53, DW_AT_location[DW_OP_breg13 0]

$C$DW$54	.dwtag  DW_TAG_variable
	.dwattr $C$DW$54, DW_AT_name("Cmd")
	.dwattr $C$DW$54, DW_AT_TI_symbol_name("Cmd")
	.dwattr $C$DW$54, DW_AT_type(*$C$DW$T$6)
	.dwattr $C$DW$54, DW_AT_location[DW_OP_breg13 4]

	.dwpsn	file "../thirdparty/SEGGER/SEGGER/SEGGER_SYSVIEW.c",line 461,column 3,is_stmt,isa 1
        MOVS      A1, #1                ; [DPU_V7M3_PIPE] |461| 
        MOVS      A3, #1                ; [DPU_V7M3_PIPE] |461| 
        ADD       A2, SP, #4            ; [DPU_V7M3_PIPE] |461| 
$C$DW$55	.dwtag  DW_TAG_TI_branch
	.dwattr $C$DW$55, DW_AT_low_pc(0x00)
	.dwattr $C$DW$55, DW_AT_name("SEGGER_RTT_ReadNoLock")
	.dwattr $C$DW$55, DW_AT_TI_call

        BL        SEGGER_RTT_ReadNoLock ; [DPU_V7M3_PIPE] |461| 
        ; CALL OCCURS {SEGGER_RTT_ReadNoLock }  ; [] |461| 
        STR       A1, [SP, #0]          ; [DPU_V7M3_PIPE] |461| 
	.dwpsn	file "../thirdparty/SEGGER/SEGGER/SEGGER_SYSVIEW.c",line 462,column 3,is_stmt,isa 1
        LDR       A1, [SP, #0]          ; [DPU_V7M3_PIPE] |462| 
        CMP       A1, #0                ; [DPU_V7M3_PIPE] |462| 
        BLE       ||$C$L20||            ; [DPU_V7M3_PIPE] |462| 
        ; BRANCHCC OCCURS {||$C$L20||}   ; [] |462| 
;* --------------------------------------------------------------------------*
	.dwpsn	file "../thirdparty/SEGGER/SEGGER/SEGGER_SYSVIEW.c",line 463,column 5,is_stmt,isa 1
        B         ||$C$L19||            ; [DPU_V7M3_PIPE] |463| 
        ; BRANCH OCCURS {||$C$L19||}     ; [] |463| 
;* --------------------------------------------------------------------------*
||$C$L10||:    
	.dwpsn	file "../thirdparty/SEGGER/SEGGER/SEGGER_SYSVIEW.c",line 465,column 7,is_stmt,isa 1
$C$DW$56	.dwtag  DW_TAG_TI_branch
	.dwattr $C$DW$56, DW_AT_low_pc(0x00)
	.dwattr $C$DW$56, DW_AT_name("SEGGER_SYSVIEW_Start")
	.dwattr $C$DW$56, DW_AT_TI_call

        BL        SEGGER_SYSVIEW_Start  ; [DPU_V7M3_PIPE] |465| 
        ; CALL OCCURS {SEGGER_SYSVIEW_Start }  ; [] |465| 
	.dwpsn	file "../thirdparty/SEGGER/SEGGER/SEGGER_SYSVIEW.c",line 466,column 7,is_stmt,isa 1
        B         ||$C$L20||            ; [DPU_V7M3_PIPE] |466| 
        ; BRANCH OCCURS {||$C$L20||}     ; [] |466| 
;* --------------------------------------------------------------------------*
||$C$L11||:    
	.dwpsn	file "../thirdparty/SEGGER/SEGGER/SEGGER_SYSVIEW.c",line 468,column 7,is_stmt,isa 1
$C$DW$57	.dwtag  DW_TAG_TI_branch
	.dwattr $C$DW$57, DW_AT_low_pc(0x00)
	.dwattr $C$DW$57, DW_AT_name("SEGGER_SYSVIEW_Stop")
	.dwattr $C$DW$57, DW_AT_TI_call

        BL        SEGGER_SYSVIEW_Stop   ; [DPU_V7M3_PIPE] |468| 
        ; CALL OCCURS {SEGGER_SYSVIEW_Stop }  ; [] |468| 
	.dwpsn	file "../thirdparty/SEGGER/SEGGER/SEGGER_SYSVIEW.c",line 469,column 7,is_stmt,isa 1
        B         ||$C$L20||            ; [DPU_V7M3_PIPE] |469| 
        ; BRANCH OCCURS {||$C$L20||}     ; [] |469| 
;* --------------------------------------------------------------------------*
||$C$L12||:    
	.dwpsn	file "../thirdparty/SEGGER/SEGGER/SEGGER_SYSVIEW.c",line 471,column 7,is_stmt,isa 1
$C$DW$58	.dwtag  DW_TAG_TI_branch
	.dwattr $C$DW$58, DW_AT_low_pc(0x00)
	.dwattr $C$DW$58, DW_AT_name("SEGGER_SYSVIEW_RecordSystime")
	.dwattr $C$DW$58, DW_AT_TI_call

        BL        SEGGER_SYSVIEW_RecordSystime ; [DPU_V7M3_PIPE] |471| 
        ; CALL OCCURS {SEGGER_SYSVIEW_RecordSystime }  ; [] |471| 
	.dwpsn	file "../thirdparty/SEGGER/SEGGER/SEGGER_SYSVIEW.c",line 472,column 7,is_stmt,isa 1
        B         ||$C$L20||            ; [DPU_V7M3_PIPE] |472| 
        ; BRANCH OCCURS {||$C$L20||}     ; [] |472| 
;* --------------------------------------------------------------------------*
||$C$L13||:    
	.dwpsn	file "../thirdparty/SEGGER/SEGGER/SEGGER_SYSVIEW.c",line 474,column 7,is_stmt,isa 1
$C$DW$59	.dwtag  DW_TAG_TI_branch
	.dwattr $C$DW$59, DW_AT_low_pc(0x00)
	.dwattr $C$DW$59, DW_AT_name("SEGGER_SYSVIEW_SendTaskList")
	.dwattr $C$DW$59, DW_AT_TI_call

        BL        SEGGER_SYSVIEW_SendTaskList ; [DPU_V7M3_PIPE] |474| 
        ; CALL OCCURS {SEGGER_SYSVIEW_SendTaskList }  ; [] |474| 
	.dwpsn	file "../thirdparty/SEGGER/SEGGER/SEGGER_SYSVIEW.c",line 475,column 7,is_stmt,isa 1
        B         ||$C$L20||            ; [DPU_V7M3_PIPE] |475| 
        ; BRANCH OCCURS {||$C$L20||}     ; [] |475| 
;* --------------------------------------------------------------------------*
||$C$L14||:    
	.dwpsn	file "../thirdparty/SEGGER/SEGGER/SEGGER_SYSVIEW.c",line 477,column 7,is_stmt,isa 1
$C$DW$60	.dwtag  DW_TAG_TI_branch
	.dwattr $C$DW$60, DW_AT_low_pc(0x00)
	.dwattr $C$DW$60, DW_AT_name("SEGGER_SYSVIEW_GetSysDesc")
	.dwattr $C$DW$60, DW_AT_TI_call

        BL        SEGGER_SYSVIEW_GetSysDesc ; [DPU_V7M3_PIPE] |477| 
        ; CALL OCCURS {SEGGER_SYSVIEW_GetSysDesc }  ; [] |477| 
	.dwpsn	file "../thirdparty/SEGGER/SEGGER/SEGGER_SYSVIEW.c",line 478,column 7,is_stmt,isa 1
        B         ||$C$L20||            ; [DPU_V7M3_PIPE] |478| 
        ; BRANCH OCCURS {||$C$L20||}     ; [] |478| 
;* --------------------------------------------------------------------------*
||$C$L15||:    
	.dwpsn	file "../thirdparty/SEGGER/SEGGER/SEGGER_SYSVIEW.c",line 480,column 7,is_stmt,isa 1
$C$DW$61	.dwtag  DW_TAG_TI_branch
	.dwattr $C$DW$61, DW_AT_low_pc(0x00)
	.dwattr $C$DW$61, DW_AT_name("SEGGER_SYSVIEW_SendNumModules")
	.dwattr $C$DW$61, DW_AT_TI_call

        BL        SEGGER_SYSVIEW_SendNumModules ; [DPU_V7M3_PIPE] |480| 
        ; CALL OCCURS {SEGGER_SYSVIEW_SendNumModules }  ; [] |480| 
	.dwpsn	file "../thirdparty/SEGGER/SEGGER/SEGGER_SYSVIEW.c",line 481,column 7,is_stmt,isa 1
        B         ||$C$L20||            ; [DPU_V7M3_PIPE] |481| 
        ; BRANCH OCCURS {||$C$L20||}     ; [] |481| 
;* --------------------------------------------------------------------------*
||$C$L16||:    
	.dwpsn	file "../thirdparty/SEGGER/SEGGER/SEGGER_SYSVIEW.c",line 483,column 7,is_stmt,isa 1
$C$DW$62	.dwtag  DW_TAG_TI_branch
	.dwattr $C$DW$62, DW_AT_low_pc(0x00)
	.dwattr $C$DW$62, DW_AT_name("SEGGER_SYSVIEW_SendModuleDescription")
	.dwattr $C$DW$62, DW_AT_TI_call

        BL        SEGGER_SYSVIEW_SendModuleDescription ; [DPU_V7M3_PIPE] |483| 
        ; CALL OCCURS {SEGGER_SYSVIEW_SendModuleDescription }  ; [] |483| 
	.dwpsn	file "../thirdparty/SEGGER/SEGGER/SEGGER_SYSVIEW.c",line 484,column 7,is_stmt,isa 1
        B         ||$C$L20||            ; [DPU_V7M3_PIPE] |484| 
        ; BRANCH OCCURS {||$C$L20||}     ; [] |484| 
;* --------------------------------------------------------------------------*
||$C$L17||:    
	.dwpsn	file "../thirdparty/SEGGER/SEGGER/SEGGER_SYSVIEW.c",line 486,column 7,is_stmt,isa 1
        MOVS      A1, #1                ; [DPU_V7M3_PIPE] |486| 
        ADD       A2, SP, #4            ; [DPU_V7M3_PIPE] |486| 
        MOVS      A3, #1                ; [DPU_V7M3_PIPE] |486| 
$C$DW$63	.dwtag  DW_TAG_TI_branch
	.dwattr $C$DW$63, DW_AT_low_pc(0x00)
	.dwattr $C$DW$63, DW_AT_name("SEGGER_RTT_ReadNoLock")
	.dwattr $C$DW$63, DW_AT_TI_call

        BL        SEGGER_RTT_ReadNoLock ; [DPU_V7M3_PIPE] |486| 
        ; CALL OCCURS {SEGGER_RTT_ReadNoLock }  ; [] |486| 
        STR       A1, [SP, #0]          ; [DPU_V7M3_PIPE] |486| 
	.dwpsn	file "../thirdparty/SEGGER/SEGGER/SEGGER_SYSVIEW.c",line 487,column 7,is_stmt,isa 1
        LDR       A1, [SP, #0]          ; [DPU_V7M3_PIPE] |487| 
        CMP       A1, #0                ; [DPU_V7M3_PIPE] |487| 
        BLE       ||$C$L20||            ; [DPU_V7M3_PIPE] |487| 
        ; BRANCHCC OCCURS {||$C$L20||}   ; [] |487| 
;* --------------------------------------------------------------------------*
	.dwpsn	file "../thirdparty/SEGGER/SEGGER/SEGGER_SYSVIEW.c",line 488,column 9,is_stmt,isa 1
        LDRB      A1, [SP, #4]          ; [DPU_V7M3_PIPE] |488| 
$C$DW$64	.dwtag  DW_TAG_TI_branch
	.dwattr $C$DW$64, DW_AT_low_pc(0x00)
	.dwattr $C$DW$64, DW_AT_name("SEGGER_SYSVIEW_SendModule")
	.dwattr $C$DW$64, DW_AT_TI_call

        BL        SEGGER_SYSVIEW_SendModule ; [DPU_V7M3_PIPE] |488| 
        ; CALL OCCURS {SEGGER_SYSVIEW_SendModule }  ; [] |488| 
	.dwpsn	file "../thirdparty/SEGGER/SEGGER/SEGGER_SYSVIEW.c",line 490,column 7,is_stmt,isa 1
        B         ||$C$L20||            ; [DPU_V7M3_PIPE] |490| 
        ; BRANCH OCCURS {||$C$L20||}     ; [] |490| 
;* --------------------------------------------------------------------------*
||$C$L18||:    
	.dwpsn	file "../thirdparty/SEGGER/SEGGER/SEGGER_SYSVIEW.c",line 492,column 7,is_stmt,isa 1
        LDRB      A1, [SP, #4]          ; [DPU_V7M3_PIPE] |492| 
        CMP       A1, #128              ; [DPU_V7M3_PIPE] |492| 
        BLT       ||$C$L20||            ; [DPU_V7M3_PIPE] |492| 
        ; BRANCHCC OCCURS {||$C$L20||}   ; [] |492| 
;* --------------------------------------------------------------------------*
	.dwpsn	file "../thirdparty/SEGGER/SEGGER/SEGGER_SYSVIEW.c",line 493,column 9,is_stmt,isa 1
        MOVS      A1, #1                ; [DPU_V7M3_PIPE] |493| 
        ADD       A2, SP, #4            ; [DPU_V7M3_PIPE] |493| 
        MOVS      A3, #1                ; [DPU_V7M3_PIPE] |493| 
$C$DW$65	.dwtag  DW_TAG_TI_branch
	.dwattr $C$DW$65, DW_AT_low_pc(0x00)
	.dwattr $C$DW$65, DW_AT_name("SEGGER_RTT_ReadNoLock")
	.dwattr $C$DW$65, DW_AT_TI_call

        BL        SEGGER_RTT_ReadNoLock ; [DPU_V7M3_PIPE] |493| 
        ; CALL OCCURS {SEGGER_RTT_ReadNoLock }  ; [] |493| 
	.dwpsn	file "../thirdparty/SEGGER/SEGGER/SEGGER_SYSVIEW.c",line 495,column 7,is_stmt,isa 1
        B         ||$C$L20||            ; [DPU_V7M3_PIPE] |495| 
        ; BRANCH OCCURS {||$C$L20||}     ; [] |495| 
;* --------------------------------------------------------------------------*
;* --------------------------------------------------------------------------*
||$C$L19||:    
	.dwpsn	file "../thirdparty/SEGGER/SEGGER/SEGGER_SYSVIEW.c",line 463,column 5,is_stmt,isa 1
        LDRB      A1, [SP, #4]          ; [DPU_V7M3_PIPE] |463| 
        SUBS      A1, A1, #1            ; [DPU_V7M3_PIPE] |463| 
        BEQ       ||$C$L10||            ; [DPU_V7M3_PIPE] |463| 
        ; BRANCHCC OCCURS {||$C$L10||}   ; [] |463| 
;* --------------------------------------------------------------------------*
        SUBS      A1, A1, #1            ; [DPU_V7M3_PIPE] |463| 
        BEQ       ||$C$L11||            ; [DPU_V7M3_PIPE] |463| 
        ; BRANCHCC OCCURS {||$C$L11||}   ; [] |463| 
;* --------------------------------------------------------------------------*
        SUBS      A1, A1, #1            ; [DPU_V7M3_PIPE] |463| 
        BEQ       ||$C$L12||            ; [DPU_V7M3_PIPE] |463| 
        ; BRANCHCC OCCURS {||$C$L12||}   ; [] |463| 
;* --------------------------------------------------------------------------*
        SUBS      A1, A1, #1            ; [DPU_V7M3_PIPE] |463| 
        BEQ       ||$C$L13||            ; [DPU_V7M3_PIPE] |463| 
        ; BRANCHCC OCCURS {||$C$L13||}   ; [] |463| 
;* --------------------------------------------------------------------------*
        SUBS      A1, A1, #1            ; [DPU_V7M3_PIPE] |463| 
        BEQ       ||$C$L14||            ; [DPU_V7M3_PIPE] |463| 
        ; BRANCHCC OCCURS {||$C$L14||}   ; [] |463| 
;* --------------------------------------------------------------------------*
        SUBS      A1, A1, #1            ; [DPU_V7M3_PIPE] |463| 
        BEQ       ||$C$L15||            ; [DPU_V7M3_PIPE] |463| 
        ; BRANCHCC OCCURS {||$C$L15||}   ; [] |463| 
;* --------------------------------------------------------------------------*
        SUBS      A1, A1, #1            ; [DPU_V7M3_PIPE] |463| 
        BEQ       ||$C$L16||            ; [DPU_V7M3_PIPE] |463| 
        ; BRANCHCC OCCURS {||$C$L16||}   ; [] |463| 
;* --------------------------------------------------------------------------*
        SUBS      A1, A1, #121          ; [DPU_V7M3_PIPE] |463| 
        BEQ       ||$C$L17||            ; [DPU_V7M3_PIPE] |463| 
        ; BRANCHCC OCCURS {||$C$L17||}   ; [] |463| 
;* --------------------------------------------------------------------------*
        B         ||$C$L18||            ; [DPU_V7M3_PIPE] |463| 
        ; BRANCH OCCURS {||$C$L18||}     ; [] |463| 
;* --------------------------------------------------------------------------*
;* --------------------------------------------------------------------------*
||$C$L20||:    
$C$DW$66	.dwtag  DW_TAG_TI_branch
	.dwattr $C$DW$66, DW_AT_low_pc(0x00)
	.dwattr $C$DW$66, DW_AT_TI_return

        POP       {A2, A3, A4, PC}      ; [DPU_V7M3_PIPE] 
	.dwcfi	cfa_offset, 0
	.dwcfi	restore_reg, 3
	.dwcfi	restore_reg, 2
	.dwcfi	restore_reg, 1
        ; BRANCH OCCURS                  ; [] 
	.dwattr $C$DW$52, DW_AT_TI_end_file("../thirdparty/SEGGER/SEGGER/SEGGER_SYSVIEW.c")
	.dwattr $C$DW$52, DW_AT_TI_end_line(0x1f2)
	.dwattr $C$DW$52, DW_AT_TI_end_column(0x01)
	.dwendentry
	.dwendtag $C$DW$52

	.sect	".text"
	.clink
	.thumbfunc _TrySendOverflowPacket
	.thumb

$C$DW$67	.dwtag  DW_TAG_subprogram
	.dwattr $C$DW$67, DW_AT_name("_TrySendOverflowPacket")
	.dwattr $C$DW$67, DW_AT_low_pc(_TrySendOverflowPacket)
	.dwattr $C$DW$67, DW_AT_high_pc(0x00)
	.dwattr $C$DW$67, DW_AT_TI_symbol_name("_TrySendOverflowPacket")
	.dwattr $C$DW$67, DW_AT_type(*$C$DW$T$10)
	.dwattr $C$DW$67, DW_AT_TI_begin_file("../thirdparty/SEGGER/SEGGER/SEGGER_SYSVIEW.c")
	.dwattr $C$DW$67, DW_AT_TI_begin_line(0x20a)
	.dwattr $C$DW$67, DW_AT_TI_begin_column(0x0c)
	.dwattr $C$DW$67, DW_AT_decl_file("../thirdparty/SEGGER/SEGGER/SEGGER_SYSVIEW.c")
	.dwattr $C$DW$67, DW_AT_decl_line(0x20a)
	.dwattr $C$DW$67, DW_AT_decl_column(0x0c)
	.dwattr $C$DW$67, DW_AT_TI_max_frame_size(0x28)
	.dwpsn	file "../thirdparty/SEGGER/SEGGER/SEGGER_SYSVIEW.c",line 522,column 41,is_stmt,address _TrySendOverflowPacket,isa 1

	.dwfde $C$DW$CIE, _TrySendOverflowPacket

;*****************************************************************************
;* FUNCTION NAME: _TrySendOverflowPacket                                     *
;*                                                                           *
;*   Regs Modified     : A1,A2,A3,A4,V9,SP,LR,SR,D0,D0_hi,D1,D1_hi,D2,D2_hi, *
;*                           D3,D3_hi,D4,D4_hi,D5,D5_hi,D6,D6_hi,D7,D7_hi,   *
;*                           FPEXC,FPSCR                                     *
;*   Regs Used         : A1,A2,A3,A4,V9,SP,LR,SR,D0,D0_hi,D1,D1_hi,D2,D2_hi, *
;*                           D3,D3_hi,D4,D4_hi,D5,D5_hi,D6,D6_hi,D7,D7_hi,   *
;*                           FPEXC,FPSCR                                     *
;*   Local Frame Size  : 0 Args + 36 Auto + 4 Save = 40 byte                 *
;*****************************************************************************
_TrySendOverflowPacket:
;* --------------------------------------------------------------------------*
	.dwcfi	cfa_offset, 0
        PUSH      {LR}                  ; [DPU_V7M3_PIPE] 
	.dwcfi	cfa_offset, 4
	.dwcfi	save_reg_to_mem, 14, -4
        SUB       SP, SP, #36           ; [DPU_V7M3_PIPE] 
	.dwcfi	cfa_offset, 40
$C$DW$68	.dwtag  DW_TAG_variable
	.dwattr $C$DW$68, DW_AT_name("TimeStamp")
	.dwattr $C$DW$68, DW_AT_TI_symbol_name("TimeStamp")
	.dwattr $C$DW$68, DW_AT_type(*$C$DW$T$13)
	.dwattr $C$DW$68, DW_AT_location[DW_OP_breg13 0]

$C$DW$69	.dwtag  DW_TAG_variable
	.dwattr $C$DW$69, DW_AT_name("Delta")
	.dwattr $C$DW$69, DW_AT_TI_symbol_name("Delta")
	.dwattr $C$DW$69, DW_AT_type(*$C$DW$T$12)
	.dwattr $C$DW$69, DW_AT_location[DW_OP_breg13 4]

$C$DW$70	.dwtag  DW_TAG_variable
	.dwattr $C$DW$70, DW_AT_name("Status")
	.dwattr $C$DW$70, DW_AT_TI_symbol_name("Status")
	.dwattr $C$DW$70, DW_AT_type(*$C$DW$T$10)
	.dwattr $C$DW$70, DW_AT_location[DW_OP_breg13 8]

$C$DW$71	.dwtag  DW_TAG_variable
	.dwattr $C$DW$71, DW_AT_name("pPayload")
	.dwattr $C$DW$71, DW_AT_TI_symbol_name("pPayload")
	.dwattr $C$DW$71, DW_AT_type(*$C$DW$T$21)
	.dwattr $C$DW$71, DW_AT_location[DW_OP_breg13 12]

$C$DW$72	.dwtag  DW_TAG_variable
	.dwattr $C$DW$72, DW_AT_name("aPacket")
	.dwattr $C$DW$72, DW_AT_TI_symbol_name("aPacket")
	.dwattr $C$DW$72, DW_AT_type(*$C$DW$T$155)
	.dwattr $C$DW$72, DW_AT_location[DW_OP_breg13 16]

	.dwpsn	file "../thirdparty/SEGGER/SEGGER/SEGGER_SYSVIEW.c",line 529,column 3,is_stmt,isa 1
        MOVS      A1, #1                ; [DPU_V7M3_PIPE] |529| 
        STRB      A1, [SP, #16]         ; [DPU_V7M3_PIPE] |529| 
	.dwpsn	file "../thirdparty/SEGGER/SEGGER/SEGGER_SYSVIEW.c",line 530,column 3,is_stmt,isa 1
        ADD       A1, SP, #17           ; [DPU_V7M3_PIPE] |530| 
        STR       A1, [SP, #12]         ; [DPU_V7M3_PIPE] |530| 

$C$DW$73	.dwtag  DW_TAG_lexical_block
	.dwattr $C$DW$73, DW_AT_low_pc(0x00)
	.dwattr $C$DW$73, DW_AT_high_pc(0x00)
$C$DW$74	.dwtag  DW_TAG_variable
	.dwattr $C$DW$74, DW_AT_name("pSysviewPointer")
	.dwattr $C$DW$74, DW_AT_TI_symbol_name("pSysviewPointer")
	.dwattr $C$DW$74, DW_AT_type(*$C$DW$T$21)
	.dwattr $C$DW$74, DW_AT_location[DW_OP_breg13 28]

$C$DW$75	.dwtag  DW_TAG_variable
	.dwattr $C$DW$75, DW_AT_name("SysViewData")
	.dwattr $C$DW$75, DW_AT_TI_symbol_name("SysViewData")
	.dwattr $C$DW$75, DW_AT_type(*$C$DW$T$13)
	.dwattr $C$DW$75, DW_AT_location[DW_OP_breg13 32]

	.dwpsn	file "../thirdparty/SEGGER/SEGGER/SEGGER_SYSVIEW.c",line 531,column 3,is_stmt,isa 1
        LDR       A1, $C$CON1           ; [DPU_V7M3_PIPE] |531| 
        LDR       A1, [A1, #0]          ; [DPU_V7M3_PIPE] |531| 
        LDR       A2, [SP, #12]         ; [DPU_V7M3_PIPE] |531| 
        STR       A1, [SP, #32]         ; [DPU_V7M3_PIPE] |531| 
        LDR       A1, [SP, #32]         ; [DPU_V7M3_PIPE] |531| 
        STR       A2, [SP, #28]         ; [DPU_V7M3_PIPE] |531| 
        CMP       A1, #127              ; [DPU_V7M3_PIPE] |531| 
        BLS       ||$C$L22||            ; [DPU_V7M3_PIPE] |531| 
        ; BRANCHCC OCCURS {||$C$L22||}   ; [] |531| 
;* --------------------------------------------------------------------------*
;*   BEGIN LOOP ||$C$L21||
;*
;*   Loop source line                : 531
;*   Loop closing brace source line  : 531
;*   Known Minimum Trip Count        : 1
;*   Known Maximum Trip Count        : 4294967295
;*   Known Max Trip Count Factor     : 1
;* --------------------------------------------------------------------------*
||$C$L21||:    
        LDR       A2, [SP, #28]         ; [DPU_V7M3_PIPE] |531| 
        LDR       A1, [SP, #32]         ; [DPU_V7M3_PIPE] |531| 
        ADDS      A3, A2, #1            ; [DPU_V7M3_PIPE] |531| 
        STR       A3, [SP, #28]         ; [DPU_V7M3_PIPE] |531| 
        ORR       A1, A1, #128          ; [DPU_V7M3_PIPE] |531| 
        STRB      A1, [A2, #0]          ; [DPU_V7M3_PIPE] |531| 
        LDR       A1, [SP, #32]         ; [DPU_V7M3_PIPE] |531| 
        LSRS      A1, A1, #7            ; [DPU_V7M3_PIPE] |531| 
        STR       A1, [SP, #32]         ; [DPU_V7M3_PIPE] |531| 
        LDR       A1, [SP, #32]         ; [DPU_V7M3_PIPE] |531| 
        CMP       A1, #127              ; [DPU_V7M3_PIPE] |531| 
        BHI       ||$C$L21||            ; [DPU_V7M3_PIPE] |531| 
        ; BRANCHCC OCCURS {||$C$L21||}   ; [] |531| 
;* --------------------------------------------------------------------------*
||$C$L22||:    
        LDR       A1, [SP, #28]         ; [DPU_V7M3_PIPE] |531| 
        ADDS      A2, A1, #1            ; [DPU_V7M3_PIPE] |531| 
        STR       A2, [SP, #28]         ; [DPU_V7M3_PIPE] |531| 
        LDRB      A2, [SP, #32]         ; [DPU_V7M3_PIPE] |531| 
        STRB      A2, [A1, #0]          ; [DPU_V7M3_PIPE] |531| 
        LDR       A1, [SP, #28]         ; [DPU_V7M3_PIPE] |531| 
        STR       A1, [SP, #12]         ; [DPU_V7M3_PIPE] |531| 
	.dwendtag $C$DW$73

	.dwpsn	file "../thirdparty/SEGGER/SEGGER/SEGGER_SYSVIEW.c",line 535,column 3,is_stmt,isa 1
        LDR       A1, $C$CON2           ; [DPU_V7M3_PIPE] |535| 
        LDR       A1, [A1, #0]          ; [DPU_V7M3_PIPE] |535| 
        STR       A1, [SP, #0]          ; [DPU_V7M3_PIPE] |535| 
	.dwpsn	file "../thirdparty/SEGGER/SEGGER/SEGGER_SYSVIEW.c",line 536,column 3,is_stmt,isa 1
        LDR       A2, $C$CON3           ; [DPU_V7M3_PIPE] |536| 
        LDR       A1, [SP, #0]          ; [DPU_V7M3_PIPE] |536| 
        LDR       A2, [A2, #0]          ; [DPU_V7M3_PIPE] |536| 
        SUBS      A1, A1, A2            ; [DPU_V7M3_PIPE] |536| 
        STR       A1, [SP, #4]          ; [DPU_V7M3_PIPE] |536| 

$C$DW$76	.dwtag  DW_TAG_lexical_block
	.dwattr $C$DW$76, DW_AT_low_pc(0x00)
	.dwattr $C$DW$76, DW_AT_high_pc(0x00)
$C$DW$77	.dwtag  DW_TAG_variable
	.dwattr $C$DW$77, DW_AT_name("pSysviewPointer")
	.dwattr $C$DW$77, DW_AT_TI_symbol_name("pSysviewPointer")
	.dwattr $C$DW$77, DW_AT_type(*$C$DW$T$21)
	.dwattr $C$DW$77, DW_AT_location[DW_OP_breg13 28]

$C$DW$78	.dwtag  DW_TAG_variable
	.dwattr $C$DW$78, DW_AT_name("SysViewData")
	.dwattr $C$DW$78, DW_AT_TI_symbol_name("SysViewData")
	.dwattr $C$DW$78, DW_AT_type(*$C$DW$T$13)
	.dwattr $C$DW$78, DW_AT_location[DW_OP_breg13 32]

	.dwpsn	file "../thirdparty/SEGGER/SEGGER/SEGGER_SYSVIEW.c",line 538,column 3,is_stmt,isa 1
        LDR       A1, [SP, #4]          ; [DPU_V7M3_PIPE] |538| 
        LDR       A2, [SP, #12]         ; [DPU_V7M3_PIPE] |538| 
        STR       A1, [SP, #32]         ; [DPU_V7M3_PIPE] |538| 
        LDR       A1, [SP, #32]         ; [DPU_V7M3_PIPE] |538| 
        STR       A2, [SP, #28]         ; [DPU_V7M3_PIPE] |538| 
        CMP       A1, #127              ; [DPU_V7M3_PIPE] |538| 
        BLS       ||$C$L24||            ; [DPU_V7M3_PIPE] |538| 
        ; BRANCHCC OCCURS {||$C$L24||}   ; [] |538| 
;* --------------------------------------------------------------------------*
;*   BEGIN LOOP ||$C$L23||
;*
;*   Loop source line                : 538
;*   Loop closing brace source line  : 538
;*   Known Minimum Trip Count        : 1
;*   Known Maximum Trip Count        : 4294967295
;*   Known Max Trip Count Factor     : 1
;* --------------------------------------------------------------------------*
||$C$L23||:    
        LDR       A2, [SP, #28]         ; [DPU_V7M3_PIPE] |538| 
        LDR       A1, [SP, #32]         ; [DPU_V7M3_PIPE] |538| 
        ADDS      A3, A2, #1            ; [DPU_V7M3_PIPE] |538| 
        STR       A3, [SP, #28]         ; [DPU_V7M3_PIPE] |538| 
        ORR       A1, A1, #128          ; [DPU_V7M3_PIPE] |538| 
        STRB      A1, [A2, #0]          ; [DPU_V7M3_PIPE] |538| 
        LDR       A1, [SP, #32]         ; [DPU_V7M3_PIPE] |538| 
        LSRS      A1, A1, #7            ; [DPU_V7M3_PIPE] |538| 
        STR       A1, [SP, #32]         ; [DPU_V7M3_PIPE] |538| 
        LDR       A1, [SP, #32]         ; [DPU_V7M3_PIPE] |538| 
        CMP       A1, #127              ; [DPU_V7M3_PIPE] |538| 
        BHI       ||$C$L23||            ; [DPU_V7M3_PIPE] |538| 
        ; BRANCHCC OCCURS {||$C$L23||}   ; [] |538| 
;* --------------------------------------------------------------------------*
||$C$L24||:    
        LDR       A1, [SP, #28]         ; [DPU_V7M3_PIPE] |538| 
        ADDS      A2, A1, #1            ; [DPU_V7M3_PIPE] |538| 
        STR       A2, [SP, #28]         ; [DPU_V7M3_PIPE] |538| 
        LDRB      A2, [SP, #32]         ; [DPU_V7M3_PIPE] |538| 
        STRB      A2, [A1, #0]          ; [DPU_V7M3_PIPE] |538| 
        LDR       A1, [SP, #28]         ; [DPU_V7M3_PIPE] |538| 
        STR       A1, [SP, #12]         ; [DPU_V7M3_PIPE] |538| 
	.dwendtag $C$DW$76

	.dwpsn	file "../thirdparty/SEGGER/SEGGER/SEGGER_SYSVIEW.c",line 542,column 3,is_stmt,isa 1
        LDR       A3, [SP, #12]         ; [DPU_V7M3_PIPE] |542| 
        ADD       A1, SP, #16           ; [DPU_V7M3_PIPE] |542| 
        ADD       A2, SP, #16           ; [DPU_V7M3_PIPE] |542| 
        SUBS      A3, A3, A1            ; [DPU_V7M3_PIPE] |542| 
        MOVS      A1, #1                ; [DPU_V7M3_PIPE] |542| 
$C$DW$79	.dwtag  DW_TAG_TI_branch
	.dwattr $C$DW$79, DW_AT_low_pc(0x00)
	.dwattr $C$DW$79, DW_AT_name("SEGGER_RTT_WriteSkipNoLock")
	.dwattr $C$DW$79, DW_AT_TI_call

        BL        SEGGER_RTT_WriteSkipNoLock ; [DPU_V7M3_PIPE] |542| 
        ; CALL OCCURS {SEGGER_RTT_WriteSkipNoLock }  ; [] |542| 
        STR       A1, [SP, #8]          ; [DPU_V7M3_PIPE] |542| 
	.dwpsn	file "../thirdparty/SEGGER/SEGGER/SEGGER_SYSVIEW.c",line 543,column 3,is_stmt,isa 1
        LDR       A1, [SP, #8]          ; [DPU_V7M3_PIPE] |543| 
        CBZ       A1, ||$C$L25||        ; [] 
        ; BRANCHCC OCCURS {||$C$L25||}   ; [] |543| 
;* --------------------------------------------------------------------------*
	.dwpsn	file "../thirdparty/SEGGER/SEGGER/SEGGER_SYSVIEW.c",line 544,column 5,is_stmt,isa 1
        LDR       A1, [SP, #0]          ; [DPU_V7M3_PIPE] |544| 
        LDR       A2, $C$CON3           ; [DPU_V7M3_PIPE] |544| 
        STR       A1, [A2, #0]          ; [DPU_V7M3_PIPE] |544| 
	.dwpsn	file "../thirdparty/SEGGER/SEGGER/SEGGER_SYSVIEW.c",line 545,column 5,is_stmt,isa 1
        LDR       A2, $C$CON4           ; [DPU_V7M3_PIPE] |545| 
        LDRB      A1, [A2, #0]          ; [DPU_V7M3_PIPE] |545| 
        SUBS      A1, A1, #1            ; [DPU_V7M3_PIPE] |545| 
        STRB      A1, [A2, #0]          ; [DPU_V7M3_PIPE] |545| 
	.dwpsn	file "../thirdparty/SEGGER/SEGGER/SEGGER_SYSVIEW.c",line 546,column 3,is_stmt,isa 1
        B         ||$C$L26||            ; [DPU_V7M3_PIPE] |546| 
        ; BRANCH OCCURS {||$C$L26||}     ; [] |546| 
;* --------------------------------------------------------------------------*
||$C$L25||:    
	.dwpsn	file "../thirdparty/SEGGER/SEGGER/SEGGER_SYSVIEW.c",line 547,column 5,is_stmt,isa 1
        LDR       A2, $C$CON1           ; [DPU_V7M3_PIPE] |547| 
        LDR       A1, [A2, #0]          ; [DPU_V7M3_PIPE] |547| 
        ADDS      A1, A1, #1            ; [DPU_V7M3_PIPE] |547| 
        STR       A1, [A2, #0]          ; [DPU_V7M3_PIPE] |547| 
;* --------------------------------------------------------------------------*
||$C$L26||:    
	.dwpsn	file "../thirdparty/SEGGER/SEGGER/SEGGER_SYSVIEW.c",line 550,column 3,is_stmt,isa 1
        LDR       A1, [SP, #8]          ; [DPU_V7M3_PIPE] |550| 
	.dwpsn	file "../thirdparty/SEGGER/SEGGER/SEGGER_SYSVIEW.c",line 551,column 1,is_stmt,isa 1
        ADD       SP, SP, #36           ; [DPU_V7M3_PIPE] 
	.dwcfi	cfa_offset, 4
$C$DW$80	.dwtag  DW_TAG_TI_branch
	.dwattr $C$DW$80, DW_AT_low_pc(0x00)
	.dwattr $C$DW$80, DW_AT_TI_return

        POP       {PC}                  ; [DPU_V7M3_PIPE] 
	.dwcfi	cfa_offset, 0
        ; BRANCH OCCURS                  ; [] 
	.dwattr $C$DW$67, DW_AT_TI_end_file("../thirdparty/SEGGER/SEGGER/SEGGER_SYSVIEW.c")
	.dwattr $C$DW$67, DW_AT_TI_end_line(0x227)
	.dwattr $C$DW$67, DW_AT_TI_end_column(0x01)
	.dwendentry
	.dwendtag $C$DW$67

	.sect	".text"
	.clink
	.thumbfunc _SendPacket
	.thumb

$C$DW$81	.dwtag  DW_TAG_subprogram
	.dwattr $C$DW$81, DW_AT_name("_SendPacket")
	.dwattr $C$DW$81, DW_AT_low_pc(_SendPacket)
	.dwattr $C$DW$81, DW_AT_high_pc(0x00)
	.dwattr $C$DW$81, DW_AT_TI_symbol_name("_SendPacket")
	.dwattr $C$DW$81, DW_AT_TI_begin_file("../thirdparty/SEGGER/SEGGER/SEGGER_SYSVIEW.c")
	.dwattr $C$DW$81, DW_AT_TI_begin_line(0x271)
	.dwattr $C$DW$81, DW_AT_TI_begin_column(0x0d)
	.dwattr $C$DW$81, DW_AT_decl_file("../thirdparty/SEGGER/SEGGER/SEGGER_SYSVIEW.c")
	.dwattr $C$DW$81, DW_AT_decl_line(0x271)
	.dwattr $C$DW$81, DW_AT_decl_column(0x0d)
	.dwattr $C$DW$81, DW_AT_TI_max_frame_size(0x28)
	.dwpsn	file "../thirdparty/SEGGER/SEGGER/SEGGER_SYSVIEW.c",line 625,column 81,is_stmt,address _SendPacket,isa 1

	.dwfde $C$DW$CIE, _SendPacket
$C$DW$82	.dwtag  DW_TAG_formal_parameter
	.dwattr $C$DW$82, DW_AT_name("pStartPacket")
	.dwattr $C$DW$82, DW_AT_TI_symbol_name("pStartPacket")
	.dwattr $C$DW$82, DW_AT_type(*$C$DW$T$21)
	.dwattr $C$DW$82, DW_AT_location[DW_OP_reg0]

$C$DW$83	.dwtag  DW_TAG_formal_parameter
	.dwattr $C$DW$83, DW_AT_name("pEndPacket")
	.dwattr $C$DW$83, DW_AT_TI_symbol_name("pEndPacket")
	.dwattr $C$DW$83, DW_AT_type(*$C$DW$T$21)
	.dwattr $C$DW$83, DW_AT_location[DW_OP_reg1]

$C$DW$84	.dwtag  DW_TAG_formal_parameter
	.dwattr $C$DW$84, DW_AT_name("EventId")
	.dwattr $C$DW$84, DW_AT_TI_symbol_name("EventId")
	.dwattr $C$DW$84, DW_AT_type(*$C$DW$T$11)
	.dwattr $C$DW$84, DW_AT_location[DW_OP_reg2]


;*****************************************************************************
;* FUNCTION NAME: _SendPacket                                                *
;*                                                                           *
;*   Regs Modified     : A1,A2,A3,A4,V9,SP,LR,SR,D0,D0_hi,D1,D1_hi,D2,D2_hi, *
;*                           D3,D3_hi,D4,D4_hi,D5,D5_hi,D6,D6_hi,D7,D7_hi,   *
;*                           FPEXC,FPSCR                                     *
;*   Regs Used         : A1,A2,A3,A4,V9,SP,LR,SR,D0,D0_hi,D1,D1_hi,D2,D2_hi, *
;*                           D3,D3_hi,D4,D4_hi,D5,D5_hi,D6,D6_hi,D7,D7_hi,   *
;*                           FPEXC,FPSCR                                     *
;*   Local Frame Size  : 0 Args + 36 Auto + 4 Save = 40 byte                 *
;*****************************************************************************
_SendPacket:
;* --------------------------------------------------------------------------*
	.dwcfi	cfa_offset, 0
        PUSH      {LR}                  ; [DPU_V7M3_PIPE] 
	.dwcfi	cfa_offset, 4
	.dwcfi	save_reg_to_mem, 14, -4
        SUB       SP, SP, #36           ; [DPU_V7M3_PIPE] 
	.dwcfi	cfa_offset, 40
$C$DW$85	.dwtag  DW_TAG_variable
	.dwattr $C$DW$85, DW_AT_name("pStartPacket")
	.dwattr $C$DW$85, DW_AT_TI_symbol_name("pStartPacket")
	.dwattr $C$DW$85, DW_AT_type(*$C$DW$T$21)
	.dwattr $C$DW$85, DW_AT_location[DW_OP_breg13 0]

$C$DW$86	.dwtag  DW_TAG_variable
	.dwattr $C$DW$86, DW_AT_name("pEndPacket")
	.dwattr $C$DW$86, DW_AT_TI_symbol_name("pEndPacket")
	.dwattr $C$DW$86, DW_AT_type(*$C$DW$T$21)
	.dwattr $C$DW$86, DW_AT_location[DW_OP_breg13 4]

$C$DW$87	.dwtag  DW_TAG_variable
	.dwattr $C$DW$87, DW_AT_name("EventId")
	.dwattr $C$DW$87, DW_AT_TI_symbol_name("EventId")
	.dwattr $C$DW$87, DW_AT_type(*$C$DW$T$11)
	.dwattr $C$DW$87, DW_AT_location[DW_OP_breg13 8]

$C$DW$88	.dwtag  DW_TAG_variable
	.dwattr $C$DW$88, DW_AT_name("NumBytes")
	.dwattr $C$DW$88, DW_AT_TI_symbol_name("NumBytes")
	.dwattr $C$DW$88, DW_AT_type(*$C$DW$T$11)
	.dwattr $C$DW$88, DW_AT_location[DW_OP_breg13 12]

$C$DW$89	.dwtag  DW_TAG_variable
	.dwattr $C$DW$89, DW_AT_name("TimeStamp")
	.dwattr $C$DW$89, DW_AT_TI_symbol_name("TimeStamp")
	.dwattr $C$DW$89, DW_AT_type(*$C$DW$T$13)
	.dwattr $C$DW$89, DW_AT_location[DW_OP_breg13 16]

$C$DW$90	.dwtag  DW_TAG_variable
	.dwattr $C$DW$90, DW_AT_name("Delta")
	.dwattr $C$DW$90, DW_AT_TI_symbol_name("Delta")
	.dwattr $C$DW$90, DW_AT_type(*$C$DW$T$13)
	.dwattr $C$DW$90, DW_AT_location[DW_OP_breg13 20]

$C$DW$91	.dwtag  DW_TAG_variable
	.dwattr $C$DW$91, DW_AT_name("Status")
	.dwattr $C$DW$91, DW_AT_TI_symbol_name("Status")
	.dwattr $C$DW$91, DW_AT_type(*$C$DW$T$10)
	.dwattr $C$DW$91, DW_AT_location[DW_OP_breg13 24]

$C$DW$92	.dwtag  DW_TAG_label
	.dwattr $C$DW$92, DW_AT_name("Send")
	.dwattr $C$DW$92, DW_AT_low_pc(||$C$L27||)
	.dwattr $C$DW$92, DW_AT_TI_symbol_name("Send")

$C$DW$93	.dwtag  DW_TAG_label
	.dwattr $C$DW$93, DW_AT_name("SendDone")
	.dwattr $C$DW$93, DW_AT_low_pc(||$C$L37||)
	.dwattr $C$DW$93, DW_AT_TI_symbol_name("SendDone")

        STR       A3, [SP, #8]          ; [DPU_V7M3_PIPE] |625| 
        STR       A2, [SP, #4]          ; [DPU_V7M3_PIPE] |625| 
        STR       A1, [SP, #0]          ; [DPU_V7M3_PIPE] |625| 
	.dwpsn	file "../thirdparty/SEGGER/SEGGER/SEGGER_SYSVIEW.c",line 642,column 3,is_stmt,isa 1
        LDR       A1, $C$CON4           ; [DPU_V7M3_PIPE] |642| 
        LDRB      A1, [A1, #0]          ; [DPU_V7M3_PIPE] |642| 
        CMP       A1, #1                ; [DPU_V7M3_PIPE] |642| 
        BEQ       ||$C$L27||            ; [DPU_V7M3_PIPE] |642| 
        ; BRANCHCC OCCURS {||$C$L27||}   ; [] |642| 
;* --------------------------------------------------------------------------*
	.dwpsn	file "../thirdparty/SEGGER/SEGGER/SEGGER_SYSVIEW.c",line 643,column 5,is_stmt,isa 1
	.dwpsn	file "../thirdparty/SEGGER/SEGGER/SEGGER_SYSVIEW.c",line 645,column 3,is_stmt,isa 1
        LDR       A1, $C$CON4           ; [DPU_V7M3_PIPE] |645| 
        LDRB      A1, [A1, #0]          ; [DPU_V7M3_PIPE] |645| 
        CMP       A1, #0                ; [DPU_V7M3_PIPE] |645| 
        BEQ       ||$C$L37||            ; [DPU_V7M3_PIPE] |645| 
        ; BRANCHCC OCCURS {||$C$L37||}   ; [] |645| 
;* --------------------------------------------------------------------------*
	.dwpsn	file "../thirdparty/SEGGER/SEGGER/SEGGER_SYSVIEW.c",line 646,column 5,is_stmt,isa 1
	.dwpsn	file "../thirdparty/SEGGER/SEGGER/SEGGER_SYSVIEW.c",line 653,column 3,is_stmt,isa 1
        LDR       A1, $C$CON4           ; [DPU_V7M3_PIPE] |653| 
        LDRB      A1, [A1, #0]          ; [DPU_V7M3_PIPE] |653| 
        CMP       A1, #2                ; [DPU_V7M3_PIPE] |653| 
        BNE       ||$C$L27||            ; [DPU_V7M3_PIPE] |653| 
        ; BRANCHCC OCCURS {||$C$L27||}   ; [] |653| 
;* --------------------------------------------------------------------------*
	.dwpsn	file "../thirdparty/SEGGER/SEGGER/SEGGER_SYSVIEW.c",line 654,column 5,is_stmt,isa 1
$C$DW$94	.dwtag  DW_TAG_TI_branch
	.dwattr $C$DW$94, DW_AT_low_pc(0x00)
	.dwattr $C$DW$94, DW_AT_name("_TrySendOverflowPacket")
	.dwattr $C$DW$94, DW_AT_TI_call

        BL        _TrySendOverflowPacket ; [DPU_V7M3_PIPE] |654| 
        ; CALL OCCURS {_TrySendOverflowPacket }  ; [] |654| 
	.dwpsn	file "../thirdparty/SEGGER/SEGGER/SEGGER_SYSVIEW.c",line 655,column 5,is_stmt,isa 1
        LDR       A1, $C$CON4           ; [DPU_V7M3_PIPE] |655| 
        LDRB      A1, [A1, #0]          ; [DPU_V7M3_PIPE] |655| 
        CMP       A1, #1                ; [DPU_V7M3_PIPE] |655| 
        BNE       ||$C$L37||            ; [DPU_V7M3_PIPE] |655| 
        ; BRANCHCC OCCURS {||$C$L37||}   ; [] |655| 
;* --------------------------------------------------------------------------*
	.dwpsn	file "../thirdparty/SEGGER/SEGGER/SEGGER_SYSVIEW.c",line 656,column 7,is_stmt,isa 1
;* --------------------------------------------------------------------------*
||$C$L27||:    
	.dwpsn	file "../thirdparty/SEGGER/SEGGER/SEGGER_SYSVIEW.c",line 664,column 3,is_stmt,isa 1
        LDR       A1, [SP, #8]          ; [DPU_V7M3_PIPE] |664| 
        CMP       A1, #32               ; [DPU_V7M3_PIPE] |664| 
        BCS       ||$C$L28||            ; [DPU_V7M3_PIPE] |664| 
        ; BRANCHCC OCCURS {||$C$L28||}   ; [] |664| 
;* --------------------------------------------------------------------------*
	.dwpsn	file "../thirdparty/SEGGER/SEGGER/SEGGER_SYSVIEW.c",line 665,column 5,is_stmt,isa 1
        LDR       A1, $C$CON5           ; [DPU_V7M3_PIPE] |665| 
        LDR       A3, [SP, #8]          ; [DPU_V7M3_PIPE] |665| 
        LDR       A2, [A1, #0]          ; [DPU_V7M3_PIPE] |665| 
        MOVS      A1, #1                ; [DPU_V7M3_PIPE] |665| 
        LSLS      A1, A1, A3            ; [DPU_V7M3_PIPE] |665| 
        TST       A1, A2                ; [DPU_V7M3_PIPE] |665| 
        BNE       ||$C$L37||            ; [DPU_V7M3_PIPE] |665| 
        ; BRANCHCC OCCURS {||$C$L37||}   ; [] |665| 
;* --------------------------------------------------------------------------*
	.dwpsn	file "../thirdparty/SEGGER/SEGGER/SEGGER_SYSVIEW.c",line 666,column 7,is_stmt,isa 1
;* --------------------------------------------------------------------------*
||$C$L28||:    
	.dwpsn	file "../thirdparty/SEGGER/SEGGER/SEGGER_SYSVIEW.c",line 674,column 3,is_stmt,isa 1
        LDR       A1, [SP, #8]          ; [DPU_V7M3_PIPE] |674| 
        CMP       A1, #24               ; [DPU_V7M3_PIPE] |674| 
        BCS       ||$C$L29||            ; [DPU_V7M3_PIPE] |674| 
        ; BRANCHCC OCCURS {||$C$L29||}   ; [] |674| 
;* --------------------------------------------------------------------------*
	.dwpsn	file "../thirdparty/SEGGER/SEGGER/SEGGER_SYSVIEW.c",line 675,column 5,is_stmt,isa 1
        LDR       A1, [SP, #0]          ; [DPU_V7M3_PIPE] |675| 
        SUBS      A1, A1, #1            ; [DPU_V7M3_PIPE] |675| 
        STR       A1, [SP, #0]          ; [DPU_V7M3_PIPE] |675| 
        LDRB      A2, [SP, #8]          ; [DPU_V7M3_PIPE] |675| 
        STRB      A2, [A1, #0]          ; [DPU_V7M3_PIPE] |675| 
	.dwpsn	file "../thirdparty/SEGGER/SEGGER/SEGGER_SYSVIEW.c",line 676,column 3,is_stmt,isa 1
        B         ||$C$L33||            ; [DPU_V7M3_PIPE] |676| 
        ; BRANCH OCCURS {||$C$L33||}     ; [] |676| 
;* --------------------------------------------------------------------------*
||$C$L29||:    
	.dwpsn	file "../thirdparty/SEGGER/SEGGER/SEGGER_SYSVIEW.c",line 677,column 5,is_stmt,isa 1
        LDR       A2, [SP, #0]          ; [DPU_V7M3_PIPE] |677| 
        LDR       A1, [SP, #4]          ; [DPU_V7M3_PIPE] |677| 
        SUBS      A1, A1, A2            ; [DPU_V7M3_PIPE] |677| 
        STR       A1, [SP, #12]         ; [DPU_V7M3_PIPE] |677| 
	.dwpsn	file "../thirdparty/SEGGER/SEGGER/SEGGER_SYSVIEW.c",line 678,column 5,is_stmt,isa 1
        LDR       A1, [SP, #12]         ; [DPU_V7M3_PIPE] |678| 
        CMP       A1, #127              ; [DPU_V7M3_PIPE] |678| 
        BLS       ||$C$L30||            ; [DPU_V7M3_PIPE] |678| 
        ; BRANCHCC OCCURS {||$C$L30||}   ; [] |678| 
;* --------------------------------------------------------------------------*
	.dwpsn	file "../thirdparty/SEGGER/SEGGER/SEGGER_SYSVIEW.c",line 679,column 7,is_stmt,isa 1
        LDR       A1, [SP, #0]          ; [DPU_V7M3_PIPE] |679| 
        LDR       A2, [SP, #12]         ; [DPU_V7M3_PIPE] |679| 
        SUBS      A1, A1, #1            ; [DPU_V7M3_PIPE] |679| 
        STR       A1, [SP, #0]          ; [DPU_V7M3_PIPE] |679| 
        LSRS      A2, A2, #7            ; [DPU_V7M3_PIPE] |679| 
        STRB      A2, [A1, #0]          ; [DPU_V7M3_PIPE] |679| 
	.dwpsn	file "../thirdparty/SEGGER/SEGGER/SEGGER_SYSVIEW.c",line 680,column 7,is_stmt,isa 1
        LDR       A2, [SP, #12]         ; [DPU_V7M3_PIPE] |680| 
        LDR       A1, [SP, #0]          ; [DPU_V7M3_PIPE] |680| 
        SUBS      A1, A1, #1            ; [DPU_V7M3_PIPE] |680| 
        STR       A1, [SP, #0]          ; [DPU_V7M3_PIPE] |680| 
        ORR       A2, A2, #128          ; [DPU_V7M3_PIPE] |680| 
        STRB      A2, [A1, #0]          ; [DPU_V7M3_PIPE] |680| 
	.dwpsn	file "../thirdparty/SEGGER/SEGGER/SEGGER_SYSVIEW.c",line 681,column 5,is_stmt,isa 1
        B         ||$C$L31||            ; [DPU_V7M3_PIPE] |681| 
        ; BRANCH OCCURS {||$C$L31||}     ; [] |681| 
;* --------------------------------------------------------------------------*
||$C$L30||:    
	.dwpsn	file "../thirdparty/SEGGER/SEGGER/SEGGER_SYSVIEW.c",line 682,column 7,is_stmt,isa 1
        LDR       A1, [SP, #0]          ; [DPU_V7M3_PIPE] |682| 
        SUBS      A1, A1, #1            ; [DPU_V7M3_PIPE] |682| 
        STR       A1, [SP, #0]          ; [DPU_V7M3_PIPE] |682| 
        LDRB      A2, [SP, #12]         ; [DPU_V7M3_PIPE] |682| 
        STRB      A2, [A1, #0]          ; [DPU_V7M3_PIPE] |682| 
;* --------------------------------------------------------------------------*
||$C$L31||:    
	.dwpsn	file "../thirdparty/SEGGER/SEGGER/SEGGER_SYSVIEW.c",line 684,column 5,is_stmt,isa 1
        LDR       A1, [SP, #8]          ; [DPU_V7M3_PIPE] |684| 
        CMP       A1, #127              ; [DPU_V7M3_PIPE] |684| 
        BLS       ||$C$L32||            ; [DPU_V7M3_PIPE] |684| 
        ; BRANCHCC OCCURS {||$C$L32||}   ; [] |684| 
;* --------------------------------------------------------------------------*
	.dwpsn	file "../thirdparty/SEGGER/SEGGER/SEGGER_SYSVIEW.c",line 685,column 7,is_stmt,isa 1
        LDR       A1, [SP, #0]          ; [DPU_V7M3_PIPE] |685| 
        LDR       A2, [SP, #8]          ; [DPU_V7M3_PIPE] |685| 
        SUBS      A1, A1, #1            ; [DPU_V7M3_PIPE] |685| 
        STR       A1, [SP, #0]          ; [DPU_V7M3_PIPE] |685| 
        LSRS      A2, A2, #7            ; [DPU_V7M3_PIPE] |685| 
        STRB      A2, [A1, #0]          ; [DPU_V7M3_PIPE] |685| 
	.dwpsn	file "../thirdparty/SEGGER/SEGGER/SEGGER_SYSVIEW.c",line 686,column 7,is_stmt,isa 1
        LDR       A2, [SP, #8]          ; [DPU_V7M3_PIPE] |686| 
        LDR       A1, [SP, #0]          ; [DPU_V7M3_PIPE] |686| 
        SUBS      A1, A1, #1            ; [DPU_V7M3_PIPE] |686| 
        STR       A1, [SP, #0]          ; [DPU_V7M3_PIPE] |686| 
        ORR       A2, A2, #128          ; [DPU_V7M3_PIPE] |686| 
        STRB      A2, [A1, #0]          ; [DPU_V7M3_PIPE] |686| 
	.dwpsn	file "../thirdparty/SEGGER/SEGGER/SEGGER_SYSVIEW.c",line 687,column 5,is_stmt,isa 1
        B         ||$C$L33||            ; [DPU_V7M3_PIPE] |687| 
        ; BRANCH OCCURS {||$C$L33||}     ; [] |687| 
;* --------------------------------------------------------------------------*
||$C$L32||:    
	.dwpsn	file "../thirdparty/SEGGER/SEGGER/SEGGER_SYSVIEW.c",line 688,column 7,is_stmt,isa 1
        LDR       A1, [SP, #0]          ; [DPU_V7M3_PIPE] |688| 
        SUBS      A1, A1, #1            ; [DPU_V7M3_PIPE] |688| 
        STR       A1, [SP, #0]          ; [DPU_V7M3_PIPE] |688| 
        LDRB      A2, [SP, #8]          ; [DPU_V7M3_PIPE] |688| 
        STRB      A2, [A1, #0]          ; [DPU_V7M3_PIPE] |688| 
;* --------------------------------------------------------------------------*
||$C$L33||:    
	.dwpsn	file "../thirdparty/SEGGER/SEGGER/SEGGER_SYSVIEW.c",line 694,column 3,is_stmt,isa 1
        LDR       A1, $C$CON2           ; [DPU_V7M3_PIPE] |694| 
        LDR       A1, [A1, #0]          ; [DPU_V7M3_PIPE] |694| 
        STR       A1, [SP, #16]         ; [DPU_V7M3_PIPE] |694| 
	.dwpsn	file "../thirdparty/SEGGER/SEGGER/SEGGER_SYSVIEW.c",line 695,column 3,is_stmt,isa 1
        LDR       A2, $C$CON3           ; [DPU_V7M3_PIPE] |695| 
        LDR       A1, [SP, #16]         ; [DPU_V7M3_PIPE] |695| 
        LDR       A2, [A2, #0]          ; [DPU_V7M3_PIPE] |695| 
        SUBS      A1, A1, A2            ; [DPU_V7M3_PIPE] |695| 
        STR       A1, [SP, #20]         ; [DPU_V7M3_PIPE] |695| 

$C$DW$95	.dwtag  DW_TAG_lexical_block
	.dwattr $C$DW$95, DW_AT_low_pc(0x00)
	.dwattr $C$DW$95, DW_AT_high_pc(0x00)
$C$DW$96	.dwtag  DW_TAG_variable
	.dwattr $C$DW$96, DW_AT_name("pSysviewPointer")
	.dwattr $C$DW$96, DW_AT_TI_symbol_name("pSysviewPointer")
	.dwattr $C$DW$96, DW_AT_type(*$C$DW$T$21)
	.dwattr $C$DW$96, DW_AT_location[DW_OP_breg13 28]

$C$DW$97	.dwtag  DW_TAG_variable
	.dwattr $C$DW$97, DW_AT_name("SysViewData")
	.dwattr $C$DW$97, DW_AT_TI_symbol_name("SysViewData")
	.dwattr $C$DW$97, DW_AT_type(*$C$DW$T$13)
	.dwattr $C$DW$97, DW_AT_location[DW_OP_breg13 32]

	.dwpsn	file "../thirdparty/SEGGER/SEGGER/SEGGER_SYSVIEW.c",line 697,column 3,is_stmt,isa 1
        LDR       A1, [SP, #20]         ; [DPU_V7M3_PIPE] |697| 
        LDR       A2, [SP, #4]          ; [DPU_V7M3_PIPE] |697| 
        STR       A1, [SP, #32]         ; [DPU_V7M3_PIPE] |697| 
        LDR       A1, [SP, #32]         ; [DPU_V7M3_PIPE] |697| 
        STR       A2, [SP, #28]         ; [DPU_V7M3_PIPE] |697| 
        CMP       A1, #127              ; [DPU_V7M3_PIPE] |697| 
        BLS       ||$C$L35||            ; [DPU_V7M3_PIPE] |697| 
        ; BRANCHCC OCCURS {||$C$L35||}   ; [] |697| 
;* --------------------------------------------------------------------------*
;*   BEGIN LOOP ||$C$L34||
;*
;*   Loop source line                : 697
;*   Loop closing brace source line  : 697
;*   Known Minimum Trip Count        : 1
;*   Known Maximum Trip Count        : 4294967295
;*   Known Max Trip Count Factor     : 1
;* --------------------------------------------------------------------------*
||$C$L34||:    
        LDR       A2, [SP, #28]         ; [DPU_V7M3_PIPE] |697| 
        LDR       A1, [SP, #32]         ; [DPU_V7M3_PIPE] |697| 
        ADDS      A3, A2, #1            ; [DPU_V7M3_PIPE] |697| 
        STR       A3, [SP, #28]         ; [DPU_V7M3_PIPE] |697| 
        ORR       A1, A1, #128          ; [DPU_V7M3_PIPE] |697| 
        STRB      A1, [A2, #0]          ; [DPU_V7M3_PIPE] |697| 
        LDR       A1, [SP, #32]         ; [DPU_V7M3_PIPE] |697| 
        LSRS      A1, A1, #7            ; [DPU_V7M3_PIPE] |697| 
        STR       A1, [SP, #32]         ; [DPU_V7M3_PIPE] |697| 
        LDR       A1, [SP, #32]         ; [DPU_V7M3_PIPE] |697| 
        CMP       A1, #127              ; [DPU_V7M3_PIPE] |697| 
        BHI       ||$C$L34||            ; [DPU_V7M3_PIPE] |697| 
        ; BRANCHCC OCCURS {||$C$L34||}   ; [] |697| 
;* --------------------------------------------------------------------------*
||$C$L35||:    
        LDR       A1, [SP, #28]         ; [DPU_V7M3_PIPE] |697| 
        ADDS      A2, A1, #1            ; [DPU_V7M3_PIPE] |697| 
        STR       A2, [SP, #28]         ; [DPU_V7M3_PIPE] |697| 
        LDRB      A2, [SP, #32]         ; [DPU_V7M3_PIPE] |697| 
        STRB      A2, [A1, #0]          ; [DPU_V7M3_PIPE] |697| 
        LDR       A1, [SP, #28]         ; [DPU_V7M3_PIPE] |697| 
        STR       A1, [SP, #4]          ; [DPU_V7M3_PIPE] |697| 
	.dwendtag $C$DW$95

	.dwpsn	file "../thirdparty/SEGGER/SEGGER/SEGGER_SYSVIEW.c",line 708,column 3,is_stmt,isa 1
        LDR       A3, [SP, #4]          ; [DPU_V7M3_PIPE] |708| 
        LDR       A1, [SP, #0]          ; [DPU_V7M3_PIPE] |708| 
        LDR       A2, [SP, #0]          ; [DPU_V7M3_PIPE] |708| 
        SUBS      A3, A3, A1            ; [DPU_V7M3_PIPE] |708| 
        MOVS      A1, #1                ; [DPU_V7M3_PIPE] |708| 
$C$DW$98	.dwtag  DW_TAG_TI_branch
	.dwattr $C$DW$98, DW_AT_low_pc(0x00)
	.dwattr $C$DW$98, DW_AT_name("SEGGER_RTT_WriteSkipNoLock")
	.dwattr $C$DW$98, DW_AT_TI_call

        BL        SEGGER_RTT_WriteSkipNoLock ; [DPU_V7M3_PIPE] |708| 
        ; CALL OCCURS {SEGGER_RTT_WriteSkipNoLock }  ; [] |708| 
        STR       A1, [SP, #24]         ; [DPU_V7M3_PIPE] |708| 
	.dwpsn	file "../thirdparty/SEGGER/SEGGER/SEGGER_SYSVIEW.c",line 709,column 3,is_stmt,isa 1
        LDR       A1, [SP, #24]         ; [DPU_V7M3_PIPE] |709| 
        CBZ       A1, ||$C$L36||        ; [] 
        ; BRANCHCC OCCURS {||$C$L36||}   ; [] |709| 
;* --------------------------------------------------------------------------*
	.dwpsn	file "../thirdparty/SEGGER/SEGGER/SEGGER_SYSVIEW.c",line 710,column 5,is_stmt,isa 1
        LDR       A1, [SP, #16]         ; [DPU_V7M3_PIPE] |710| 
        LDR       A2, $C$CON3           ; [DPU_V7M3_PIPE] |710| 
        STR       A1, [A2, #0]          ; [DPU_V7M3_PIPE] |710| 
	.dwpsn	file "../thirdparty/SEGGER/SEGGER/SEGGER_SYSVIEW.c",line 711,column 3,is_stmt,isa 1
        B         ||$C$L37||            ; [DPU_V7M3_PIPE] |711| 
        ; BRANCH OCCURS {||$C$L37||}     ; [] |711| 
;* --------------------------------------------------------------------------*
||$C$L36||:    
	.dwpsn	file "../thirdparty/SEGGER/SEGGER/SEGGER_SYSVIEW.c",line 712,column 5,is_stmt,isa 1
        LDR       A2, $C$CON4           ; [DPU_V7M3_PIPE] |712| 
        LDRB      A1, [A2, #0]          ; [DPU_V7M3_PIPE] |712| 
        ADDS      A1, A1, #1            ; [DPU_V7M3_PIPE] |712| 
        STRB      A1, [A2, #0]          ; [DPU_V7M3_PIPE] |712| 
;* --------------------------------------------------------------------------*
||$C$L37||:    
	.dwpsn	file "../thirdparty/SEGGER/SEGGER/SEGGER_SYSVIEW.c",line 737,column 3,is_stmt,isa 1
        LDR       A2, $C$CON7           ; [DPU_V7M3_PIPE] |737| 
        LDR       A1, $C$CON6           ; [DPU_V7M3_PIPE] |737| 
        LDR       A2, [A2, #0]          ; [DPU_V7M3_PIPE] |737| 
        LDR       A1, [A1, #0]          ; [DPU_V7M3_PIPE] |737| 
        SUBS      A1, A1, A2            ; [DPU_V7M3_PIPE] |737| 
        BEQ       ||$C$L38||            ; [DPU_V7M3_PIPE] |737| 
        ; BRANCHCC OCCURS {||$C$L38||}   ; [] |737| 
;* --------------------------------------------------------------------------*
	.dwpsn	file "../thirdparty/SEGGER/SEGGER/SEGGER_SYSVIEW.c",line 738,column 5,is_stmt,isa 1
        LDR       A1, $C$CON8           ; [DPU_V7M3_PIPE] |738| 
        LDRB      A1, [A1, #0]          ; [DPU_V7M3_PIPE] |738| 
        CBNZ      A1, ||$C$L38||        ; [] 
        ; BRANCHCC OCCURS {||$C$L38||}   ; [] |738| 
;* --------------------------------------------------------------------------*
	.dwpsn	file "../thirdparty/SEGGER/SEGGER/SEGGER_SYSVIEW.c",line 739,column 7,is_stmt,isa 1
        LDR       A2, $C$CON8           ; [DPU_V7M3_PIPE] |739| 
        MOVS      A1, #1                ; [DPU_V7M3_PIPE] |739| 
        STRB      A1, [A2, #0]          ; [DPU_V7M3_PIPE] |739| 
	.dwpsn	file "../thirdparty/SEGGER/SEGGER/SEGGER_SYSVIEW.c",line 740,column 7,is_stmt,isa 1
$C$DW$99	.dwtag  DW_TAG_TI_branch
	.dwattr $C$DW$99, DW_AT_low_pc(0x00)
	.dwattr $C$DW$99, DW_AT_name("_HandleIncomingPacket")
	.dwattr $C$DW$99, DW_AT_TI_call

        BL        _HandleIncomingPacket ; [DPU_V7M3_PIPE] |740| 
        ; CALL OCCURS {_HandleIncomingPacket }  ; [] |740| 
	.dwpsn	file "../thirdparty/SEGGER/SEGGER/SEGGER_SYSVIEW.c",line 741,column 7,is_stmt,isa 1
        LDR       A2, $C$CON8           ; [DPU_V7M3_PIPE] |741| 
        MOVS      A1, #0                ; [DPU_V7M3_PIPE] |741| 
        STRB      A1, [A2, #0]          ; [DPU_V7M3_PIPE] |741| 
	.dwpsn	file "../thirdparty/SEGGER/SEGGER/SEGGER_SYSVIEW.c",line 749,column 1,is_stmt,isa 1
;* --------------------------------------------------------------------------*
||$C$L38||:    
        ADD       SP, SP, #36           ; [DPU_V7M3_PIPE] 
	.dwcfi	cfa_offset, 4
$C$DW$100	.dwtag  DW_TAG_TI_branch
	.dwattr $C$DW$100, DW_AT_low_pc(0x00)
	.dwattr $C$DW$100, DW_AT_TI_return

        POP       {PC}                  ; [DPU_V7M3_PIPE] 
	.dwcfi	cfa_offset, 0
        ; BRANCH OCCURS                  ; [] 
	.dwattr $C$DW$81, DW_AT_TI_end_file("../thirdparty/SEGGER/SEGGER/SEGGER_SYSVIEW.c")
	.dwattr $C$DW$81, DW_AT_TI_end_line(0x2ed)
	.dwattr $C$DW$81, DW_AT_TI_end_column(0x01)
	.dwendentry
	.dwendtag $C$DW$81

;******************************************************************************
;* CONSTANT TABLE                                                             *
;******************************************************************************
	.sect	".text"
	.align	4
||$C$CON1||:	.bits	_SYSVIEW_Globals+20,32
	.align	4
||$C$CON2||:	.bits		0xe0001004,32

	.align	4
||$C$CON3||:	.bits	_SYSVIEW_Globals+12,32
	.align	4
||$C$CON4||:	.bits	_SYSVIEW_Globals,32
	.sect	".text"
	.clink
	.thumbfunc _VPrintHost
	.thumb

$C$DW$101	.dwtag  DW_TAG_subprogram
	.dwattr $C$DW$101, DW_AT_name("_VPrintHost")
	.dwattr $C$DW$101, DW_AT_low_pc(_VPrintHost)
	.dwattr $C$DW$101, DW_AT_high_pc(0x00)
	.dwattr $C$DW$101, DW_AT_TI_symbol_name("_VPrintHost")
	.dwattr $C$DW$101, DW_AT_type(*$C$DW$T$10)
	.dwattr $C$DW$101, DW_AT_TI_begin_file("../thirdparty/SEGGER/SEGGER/SEGGER_SYSVIEW.c")
	.dwattr $C$DW$101, DW_AT_TI_begin_line(0x2fc)
	.dwattr $C$DW$101, DW_AT_TI_begin_column(0x0c)
	.dwattr $C$DW$101, DW_AT_decl_file("../thirdparty/SEGGER/SEGGER/SEGGER_SYSVIEW.c")
	.dwattr $C$DW$101, DW_AT_decl_line(0x2fc)
	.dwattr $C$DW$101, DW_AT_decl_column(0x0c)
	.dwattr $C$DW$101, DW_AT_TI_max_frame_size(0x78)
	.dwpsn	file "../thirdparty/SEGGER/SEGGER/SEGGER_SYSVIEW.c",line 764,column 73,is_stmt,address _VPrintHost,isa 1

	.dwfde $C$DW$CIE, _VPrintHost
$C$DW$102	.dwtag  DW_TAG_formal_parameter
	.dwattr $C$DW$102, DW_AT_name("s")
	.dwattr $C$DW$102, DW_AT_TI_symbol_name("s")
	.dwattr $C$DW$102, DW_AT_type(*$C$DW$T$30)
	.dwattr $C$DW$102, DW_AT_location[DW_OP_reg0]

$C$DW$103	.dwtag  DW_TAG_formal_parameter
	.dwattr $C$DW$103, DW_AT_name("Options")
	.dwattr $C$DW$103, DW_AT_TI_symbol_name("Options")
	.dwattr $C$DW$103, DW_AT_type(*$C$DW$T$13)
	.dwattr $C$DW$103, DW_AT_location[DW_OP_reg1]

$C$DW$104	.dwtag  DW_TAG_formal_parameter
	.dwattr $C$DW$104, DW_AT_name("pParamList")
	.dwattr $C$DW$104, DW_AT_TI_symbol_name("pParamList")
	.dwattr $C$DW$104, DW_AT_type(*$C$DW$T$73)
	.dwattr $C$DW$104, DW_AT_location[DW_OP_reg2]


;*****************************************************************************
;* FUNCTION NAME: _VPrintHost                                                *
;*                                                                           *
;*   Regs Modified     : A1,A2,A3,A4,V9,SP,LR,SR,D0,D0_hi,D1,D1_hi,D2,D2_hi, *
;*                           D3,D3_hi,D4,D4_hi,D5,D5_hi,D6,D6_hi,D7,D7_hi,   *
;*                           FPEXC,FPSCR                                     *
;*   Regs Used         : A1,A2,A3,A4,V9,SP,LR,SR,D0,D0_hi,D1,D1_hi,D2,D2_hi, *
;*                           D3,D3_hi,D4,D4_hi,D5,D5_hi,D6,D6_hi,D7,D7_hi,   *
;*                           FPEXC,FPSCR                                     *
;*   Local Frame Size  : 0 Args + 112 Auto + 4 Save = 116 byte               *
;*****************************************************************************
_VPrintHost:
;* --------------------------------------------------------------------------*
	.dwcfi	cfa_offset, 0
        PUSH      {LR}                  ; [DPU_V7M3_PIPE] 
	.dwcfi	cfa_offset, 4
	.dwcfi	save_reg_to_mem, 14, -4
        SUB       SP, SP, #116          ; [DPU_V7M3_PIPE] 
	.dwcfi	cfa_offset, 120
$C$DW$105	.dwtag  DW_TAG_variable
	.dwattr $C$DW$105, DW_AT_name("aParas")
	.dwattr $C$DW$105, DW_AT_TI_symbol_name("aParas")
	.dwattr $C$DW$105, DW_AT_type(*$C$DW$T$234)
	.dwattr $C$DW$105, DW_AT_location[DW_OP_breg13 0]

$C$DW$106	.dwtag  DW_TAG_variable
	.dwattr $C$DW$106, DW_AT_name("s")
	.dwattr $C$DW$106, DW_AT_TI_symbol_name("s")
	.dwattr $C$DW$106, DW_AT_type(*$C$DW$T$30)
	.dwattr $C$DW$106, DW_AT_location[DW_OP_breg13 64]

$C$DW$107	.dwtag  DW_TAG_variable
	.dwattr $C$DW$107, DW_AT_name("Options")
	.dwattr $C$DW$107, DW_AT_TI_symbol_name("Options")
	.dwattr $C$DW$107, DW_AT_type(*$C$DW$T$13)
	.dwattr $C$DW$107, DW_AT_location[DW_OP_breg13 68]

$C$DW$108	.dwtag  DW_TAG_variable
	.dwattr $C$DW$108, DW_AT_name("pParamList")
	.dwattr $C$DW$108, DW_AT_TI_symbol_name("pParamList")
	.dwattr $C$DW$108, DW_AT_type(*$C$DW$T$73)
	.dwattr $C$DW$108, DW_AT_location[DW_OP_breg13 72]

$C$DW$109	.dwtag  DW_TAG_variable
	.dwattr $C$DW$109, DW_AT_name("pParas")
	.dwattr $C$DW$109, DW_AT_TI_symbol_name("pParas")
	.dwattr $C$DW$109, DW_AT_type(*$C$DW$T$233)
	.dwattr $C$DW$109, DW_AT_location[DW_OP_breg13 76]

$C$DW$110	.dwtag  DW_TAG_variable
	.dwattr $C$DW$110, DW_AT_name("NumArguments")
	.dwattr $C$DW$110, DW_AT_TI_symbol_name("NumArguments")
	.dwattr $C$DW$110, DW_AT_type(*$C$DW$T$13)
	.dwattr $C$DW$110, DW_AT_location[DW_OP_breg13 80]

$C$DW$111	.dwtag  DW_TAG_variable
	.dwattr $C$DW$111, DW_AT_name("p")
	.dwattr $C$DW$111, DW_AT_TI_symbol_name("p")
	.dwattr $C$DW$111, DW_AT_type(*$C$DW$T$30)
	.dwattr $C$DW$111, DW_AT_location[DW_OP_breg13 84]

$C$DW$112	.dwtag  DW_TAG_variable
	.dwattr $C$DW$112, DW_AT_name("pPayload")
	.dwattr $C$DW$112, DW_AT_TI_symbol_name("pPayload")
	.dwattr $C$DW$112, DW_AT_type(*$C$DW$T$21)
	.dwattr $C$DW$112, DW_AT_location[DW_OP_breg13 88]

$C$DW$113	.dwtag  DW_TAG_variable
	.dwattr $C$DW$113, DW_AT_name("pPayloadStart")
	.dwattr $C$DW$113, DW_AT_TI_symbol_name("pPayloadStart")
	.dwattr $C$DW$113, DW_AT_type(*$C$DW$T$21)
	.dwattr $C$DW$113, DW_AT_location[DW_OP_breg13 92]

$C$DW$114	.dwtag  DW_TAG_variable
	.dwattr $C$DW$114, DW_AT_name("c")
	.dwattr $C$DW$114, DW_AT_TI_symbol_name("c")
	.dwattr $C$DW$114, DW_AT_type(*$C$DW$T$6)
	.dwattr $C$DW$114, DW_AT_location[DW_OP_breg13 96]

        STR       A3, [SP, #72]         ; [DPU_V7M3_PIPE] |764| 
        STR       A2, [SP, #68]         ; [DPU_V7M3_PIPE] |764| 
        STR       A1, [SP, #64]         ; [DPU_V7M3_PIPE] |764| 
	.dwpsn	file "../thirdparty/SEGGER/SEGGER/SEGGER_SYSVIEW.c",line 781,column 3,is_stmt,isa 1
        LDR       A1, [SP, #64]         ; [DPU_V7M3_PIPE] |781| 
        STR       A1, [SP, #84]         ; [DPU_V7M3_PIPE] |781| 
	.dwpsn	file "../thirdparty/SEGGER/SEGGER/SEGGER_SYSVIEW.c",line 782,column 3,is_stmt,isa 1
        MOVS      A1, #0                ; [DPU_V7M3_PIPE] |782| 
        STR       A1, [SP, #80]         ; [DPU_V7M3_PIPE] |782| 
;* --------------------------------------------------------------------------*
;*   BEGIN LOOP ||$C$L39||
;*
;*   Loop source line                : 783
;*   Loop closing brace source line  : 807
;*   Known Minimum Trip Count        : 1
;*   Known Maximum Trip Count        : 4294967295
;*   Known Max Trip Count Factor     : 1
;* --------------------------------------------------------------------------*
||$C$L39||:    
	.dwpsn	file "../thirdparty/SEGGER/SEGGER/SEGGER_SYSVIEW.c",line 784,column 5,is_stmt,isa 1
        LDR       A1, [SP, #84]         ; [DPU_V7M3_PIPE] |784| 
        LDRB      A2, [A1], #1          ; [DPU_V7M3_PIPE] |784| 
        STR       A1, [SP, #84]         ; [DPU_V7M3_PIPE] |784| 
        STRB      A2, [SP, #96]         ; [DPU_V7M3_PIPE] |784| 
	.dwpsn	file "../thirdparty/SEGGER/SEGGER/SEGGER_SYSVIEW.c",line 785,column 5,is_stmt,isa 1
        LDRB      A1, [SP, #96]         ; [DPU_V7M3_PIPE] |785| 
        CBZ       A1, ||$C$L40||        ; [] 
        ; BRANCHCC OCCURS {||$C$L40||}   ; [] |785| 
;* --------------------------------------------------------------------------*
	.dwpsn	file "../thirdparty/SEGGER/SEGGER/SEGGER_SYSVIEW.c",line 786,column 7,is_stmt,isa 1
	.dwpsn	file "../thirdparty/SEGGER/SEGGER/SEGGER_SYSVIEW.c",line 788,column 5,is_stmt,isa 1
        LDRB      A1, [SP, #96]         ; [DPU_V7M3_PIPE] |788| 
        CMP       A1, #37               ; [DPU_V7M3_PIPE] |788| 
        BNE       ||$C$L39||            ; [DPU_V7M3_PIPE] |788| 
        ; BRANCHCC OCCURS {||$C$L39||}   ; [] |788| 
;* --------------------------------------------------------------------------*
	.dwpsn	file "../thirdparty/SEGGER/SEGGER/SEGGER_SYSVIEW.c",line 789,column 7,is_stmt,isa 1
        LDR       A1, [SP, #84]         ; [DPU_V7M3_PIPE] |789| 
        LDRB      A1, [A1, #0]          ; [DPU_V7M3_PIPE] |789| 
        STRB      A1, [SP, #96]         ; [DPU_V7M3_PIPE] |789| 
	.dwpsn	file "../thirdparty/SEGGER/SEGGER/SEGGER_SYSVIEW.c",line 791,column 7,is_stmt,isa 1
        LDR       A1, [SP, #72]         ; [DPU_V7M3_PIPE] |791| 
        LDR       A2, [SP, #72]         ; [DPU_V7M3_PIPE] |791| 
        LDR       A1, [A1, #0]          ; [DPU_V7M3_PIPE] |791| 
        ADDS      A1, A1, #3            ; [DPU_V7M3_PIPE] |791| 
        BIC       A1, A1, #3            ; [DPU_V7M3_PIPE] |791| 
        ADDS      A1, A1, #4            ; [DPU_V7M3_PIPE] |791| 
        STR       A1, [A2, #0]          ; [DPU_V7M3_PIPE] |791| 
        LDR       A2, [SP, #72]         ; [DPU_V7M3_PIPE] |791| 
        LDR       A1, [SP, #80]         ; [DPU_V7M3_PIPE] |791| 
        LDR       A2, [A2, #0]          ; [DPU_V7M3_PIPE] |791| 
        ADDS      A3, A1, #1            ; [DPU_V7M3_PIPE] |791| 
        LDR       A2, [A2, #-4]         ; [DPU_V7M3_PIPE] |791| 
        STR       A3, [SP, #80]         ; [DPU_V7M3_PIPE] |791| 
        STR       A2, [SP, +A1, LSL #2] ; [DPU_V7M3_PIPE] |791| 
	.dwpsn	file "../thirdparty/SEGGER/SEGGER/SEGGER_SYSVIEW.c",line 792,column 7,is_stmt,isa 1
        LDR       A1, [SP, #80]         ; [DPU_V7M3_PIPE] |792| 
        CMP       A1, #16               ; [DPU_V7M3_PIPE] |792| 
        BNE       ||$C$L39||            ; [DPU_V7M3_PIPE] |792| 
        ; BRANCHCC OCCURS {||$C$L39||}   ; [] |792| 
;* --------------------------------------------------------------------------*
	.dwpsn	file "../thirdparty/SEGGER/SEGGER/SEGGER_SYSVIEW.c",line 793,column 9,is_stmt,isa 1
	.dwpsn	file "../thirdparty/SEGGER/SEGGER/SEGGER_SYSVIEW.c",line 807,column 3,is_stmt,isa 1
;* --------------------------------------------------------------------------*
||$C$L40||:    

$C$DW$115	.dwtag  DW_TAG_lexical_block
	.dwattr $C$DW$115, DW_AT_low_pc(0x00)
	.dwattr $C$DW$115, DW_AT_high_pc(0x00)

$C$DW$116	.dwtag  DW_TAG_lexical_block
	.dwattr $C$DW$116, DW_AT_low_pc(0x00)
	.dwattr $C$DW$116, DW_AT_high_pc(0x00)
$C$DW$117	.dwtag  DW_TAG_variable
	.dwattr $C$DW$117, DW_AT_name("LockState")
	.dwattr $C$DW$117, DW_AT_TI_symbol_name("LockState")
	.dwattr $C$DW$117, DW_AT_type(*$C$DW$T$11)
	.dwattr $C$DW$117, DW_AT_location[DW_OP_breg13 100]

	.dwpsn	file "../thirdparty/SEGGER/SEGGER/SEGGER_SYSVIEW.c",line 818,column 5,is_stmt,isa 1
        MOVS      A1, #32               ; [DPU_V7M3_PIPE] |818| 
        MRS       A2, BASEPRI           ; [DPU_V7M3_PIPE] |818| 
        MSR       BASEPRI, A1           ; [DPU_V7M3_PIPE] |818| 
        LDR       A1, $C$CON9           ; [DPU_V7M3_PIPE] |818| 
        STR       A2, [SP, #100]        ; [DPU_V7M3_PIPE] |818| 
$C$DW$118	.dwtag  DW_TAG_TI_branch
	.dwattr $C$DW$118, DW_AT_low_pc(0x00)
	.dwattr $C$DW$118, DW_AT_name("_PreparePacket")
	.dwattr $C$DW$118, DW_AT_TI_call

        BL        _PreparePacket        ; [DPU_V7M3_PIPE] |818| 
        ; CALL OCCURS {_PreparePacket }  ; [] |818| 
        STR       A1, [SP, #92]         ; [DPU_V7M3_PIPE] |818| 
	.dwpsn	file "../thirdparty/SEGGER/SEGGER/SEGGER_SYSVIEW.c",line 819,column 5,is_stmt,isa 1
        LDR       A2, [SP, #64]         ; [DPU_V7M3_PIPE] |819| 
        LDR       A1, [SP, #92]         ; [DPU_V7M3_PIPE] |819| 
        MOVS      A3, #128              ; [DPU_V7M3_PIPE] |819| 
$C$DW$119	.dwtag  DW_TAG_TI_branch
	.dwattr $C$DW$119, DW_AT_low_pc(0x00)
	.dwattr $C$DW$119, DW_AT_name("_EncodeStr")
	.dwattr $C$DW$119, DW_AT_TI_call

        BL        _EncodeStr            ; [DPU_V7M3_PIPE] |819| 
        ; CALL OCCURS {_EncodeStr }      ; [] |819| 
        STR       A1, [SP, #88]         ; [DPU_V7M3_PIPE] |819| 

$C$DW$120	.dwtag  DW_TAG_lexical_block
	.dwattr $C$DW$120, DW_AT_low_pc(0x00)
	.dwattr $C$DW$120, DW_AT_high_pc(0x00)
$C$DW$121	.dwtag  DW_TAG_variable
	.dwattr $C$DW$121, DW_AT_name("pSysviewPointer")
	.dwattr $C$DW$121, DW_AT_TI_symbol_name("pSysviewPointer")
	.dwattr $C$DW$121, DW_AT_type(*$C$DW$T$21)
	.dwattr $C$DW$121, DW_AT_location[DW_OP_breg13 104]

$C$DW$122	.dwtag  DW_TAG_variable
	.dwattr $C$DW$122, DW_AT_name("SysViewData")
	.dwattr $C$DW$122, DW_AT_TI_symbol_name("SysViewData")
	.dwattr $C$DW$122, DW_AT_type(*$C$DW$T$13)
	.dwattr $C$DW$122, DW_AT_location[DW_OP_breg13 108]

	.dwpsn	file "../thirdparty/SEGGER/SEGGER/SEGGER_SYSVIEW.c",line 820,column 5,is_stmt,isa 1
        LDR       A1, [SP, #68]         ; [DPU_V7M3_PIPE] |820| 
        LDR       A2, [SP, #88]         ; [DPU_V7M3_PIPE] |820| 
        STR       A1, [SP, #108]        ; [DPU_V7M3_PIPE] |820| 
        LDR       A1, [SP, #108]        ; [DPU_V7M3_PIPE] |820| 
        STR       A2, [SP, #104]        ; [DPU_V7M3_PIPE] |820| 
        CMP       A1, #127              ; [DPU_V7M3_PIPE] |820| 
        BLS       ||$C$L42||            ; [DPU_V7M3_PIPE] |820| 
        ; BRANCHCC OCCURS {||$C$L42||}   ; [] |820| 
;* --------------------------------------------------------------------------*
;*   BEGIN LOOP ||$C$L41||
;*
;*   Loop source line                : 820
;*   Loop closing brace source line  : 820
;*   Known Minimum Trip Count        : 1
;*   Known Maximum Trip Count        : 4294967295
;*   Known Max Trip Count Factor     : 1
;* --------------------------------------------------------------------------*
||$C$L41||:    
        LDR       A2, [SP, #104]        ; [DPU_V7M3_PIPE] |820| 
        LDR       A1, [SP, #108]        ; [DPU_V7M3_PIPE] |820| 
        ADDS      A3, A2, #1            ; [DPU_V7M3_PIPE] |820| 
        STR       A3, [SP, #104]        ; [DPU_V7M3_PIPE] |820| 
        ORR       A1, A1, #128          ; [DPU_V7M3_PIPE] |820| 
        STRB      A1, [A2, #0]          ; [DPU_V7M3_PIPE] |820| 
        LDR       A1, [SP, #108]        ; [DPU_V7M3_PIPE] |820| 
        LSRS      A1, A1, #7            ; [DPU_V7M3_PIPE] |820| 
        STR       A1, [SP, #108]        ; [DPU_V7M3_PIPE] |820| 
        LDR       A1, [SP, #108]        ; [DPU_V7M3_PIPE] |820| 
        CMP       A1, #127              ; [DPU_V7M3_PIPE] |820| 
        BHI       ||$C$L41||            ; [DPU_V7M3_PIPE] |820| 
        ; BRANCHCC OCCURS {||$C$L41||}   ; [] |820| 
;* --------------------------------------------------------------------------*
||$C$L42||:    
        LDR       A1, [SP, #104]        ; [DPU_V7M3_PIPE] |820| 
        ADDS      A2, A1, #1            ; [DPU_V7M3_PIPE] |820| 
        STR       A2, [SP, #104]        ; [DPU_V7M3_PIPE] |820| 
        LDRB      A2, [SP, #108]        ; [DPU_V7M3_PIPE] |820| 
        STRB      A2, [A1, #0]          ; [DPU_V7M3_PIPE] |820| 
        LDR       A1, [SP, #104]        ; [DPU_V7M3_PIPE] |820| 
        STR       A1, [SP, #88]         ; [DPU_V7M3_PIPE] |820| 
	.dwendtag $C$DW$120


$C$DW$123	.dwtag  DW_TAG_lexical_block
	.dwattr $C$DW$123, DW_AT_low_pc(0x00)
	.dwattr $C$DW$123, DW_AT_high_pc(0x00)
$C$DW$124	.dwtag  DW_TAG_variable
	.dwattr $C$DW$124, DW_AT_name("pSysviewPointer")
	.dwattr $C$DW$124, DW_AT_TI_symbol_name("pSysviewPointer")
	.dwattr $C$DW$124, DW_AT_type(*$C$DW$T$21)
	.dwattr $C$DW$124, DW_AT_location[DW_OP_breg13 104]

$C$DW$125	.dwtag  DW_TAG_variable
	.dwattr $C$DW$125, DW_AT_name("SysViewData")
	.dwattr $C$DW$125, DW_AT_TI_symbol_name("SysViewData")
	.dwattr $C$DW$125, DW_AT_type(*$C$DW$T$13)
	.dwattr $C$DW$125, DW_AT_location[DW_OP_breg13 108]

	.dwpsn	file "../thirdparty/SEGGER/SEGGER/SEGGER_SYSVIEW.c",line 821,column 5,is_stmt,isa 1
        LDR       A1, [SP, #80]         ; [DPU_V7M3_PIPE] |821| 
        LDR       A2, [SP, #88]         ; [DPU_V7M3_PIPE] |821| 
        STR       A1, [SP, #108]        ; [DPU_V7M3_PIPE] |821| 
        LDR       A1, [SP, #108]        ; [DPU_V7M3_PIPE] |821| 
        STR       A2, [SP, #104]        ; [DPU_V7M3_PIPE] |821| 
        CMP       A1, #127              ; [DPU_V7M3_PIPE] |821| 
        BLS       ||$C$L44||            ; [DPU_V7M3_PIPE] |821| 
        ; BRANCHCC OCCURS {||$C$L44||}   ; [] |821| 
;* --------------------------------------------------------------------------*
;*   BEGIN LOOP ||$C$L43||
;*
;*   Loop source line                : 821
;*   Loop closing brace source line  : 821
;*   Known Minimum Trip Count        : 1
;*   Known Maximum Trip Count        : 4294967295
;*   Known Max Trip Count Factor     : 1
;* --------------------------------------------------------------------------*
||$C$L43||:    
        LDR       A2, [SP, #104]        ; [DPU_V7M3_PIPE] |821| 
        LDR       A1, [SP, #108]        ; [DPU_V7M3_PIPE] |821| 
        ADDS      A3, A2, #1            ; [DPU_V7M3_PIPE] |821| 
        STR       A3, [SP, #104]        ; [DPU_V7M3_PIPE] |821| 
        ORR       A1, A1, #128          ; [DPU_V7M3_PIPE] |821| 
        STRB      A1, [A2, #0]          ; [DPU_V7M3_PIPE] |821| 
        LDR       A1, [SP, #108]        ; [DPU_V7M3_PIPE] |821| 
        LSRS      A1, A1, #7            ; [DPU_V7M3_PIPE] |821| 
        STR       A1, [SP, #108]        ; [DPU_V7M3_PIPE] |821| 
        LDR       A1, [SP, #108]        ; [DPU_V7M3_PIPE] |821| 
        CMP       A1, #127              ; [DPU_V7M3_PIPE] |821| 
        BHI       ||$C$L43||            ; [DPU_V7M3_PIPE] |821| 
        ; BRANCHCC OCCURS {||$C$L43||}   ; [] |821| 
;* --------------------------------------------------------------------------*
||$C$L44||:    
        LDR       A1, [SP, #104]        ; [DPU_V7M3_PIPE] |821| 
        ADDS      A2, A1, #1            ; [DPU_V7M3_PIPE] |821| 
        STR       A2, [SP, #104]        ; [DPU_V7M3_PIPE] |821| 
        LDRB      A2, [SP, #108]        ; [DPU_V7M3_PIPE] |821| 
        STRB      A2, [A1, #0]          ; [DPU_V7M3_PIPE] |821| 
        LDR       A1, [SP, #104]        ; [DPU_V7M3_PIPE] |821| 
        STR       A1, [SP, #88]         ; [DPU_V7M3_PIPE] |821| 
	.dwendtag $C$DW$123

	.dwpsn	file "../thirdparty/SEGGER/SEGGER/SEGGER_SYSVIEW.c",line 822,column 5,is_stmt,isa 1
        STR       SP, [SP, #76]         ; [DPU_V7M3_PIPE] |822| 
	.dwpsn	file "../thirdparty/SEGGER/SEGGER/SEGGER_SYSVIEW.c",line 823,column 5,is_stmt,isa 1
        LDR       A1, [SP, #80]         ; [DPU_V7M3_PIPE] |823| 
        CMP       A1, #0                ; [DPU_V7M3_PIPE] |823| 
        SUB       A2, A1, #1            ; [DPU_V7M3_PIPE] |823| 
        STR       A2, [SP, #80]         ; [DPU_V7M3_PIPE] |823| 
        BEQ       ||$C$L48||            ; [DPU_V7M3_PIPE] |823| 
        ; BRANCHCC OCCURS {||$C$L48||}   ; [] |823| 
;* --------------------------------------------------------------------------*
;*   BEGIN LOOP ||$C$L45||
;*
;*   Loop source line                : 823
;*   Loop closing brace source line  : 826
;*   Known Minimum Trip Count        : 1
;*   Known Maximum Trip Count        : 4294967295
;*   Known Max Trip Count Factor     : 1
;* --------------------------------------------------------------------------*
||$C$L45||:    

$C$DW$126	.dwtag  DW_TAG_lexical_block
	.dwattr $C$DW$126, DW_AT_low_pc(0x00)
	.dwattr $C$DW$126, DW_AT_high_pc(0x00)

$C$DW$127	.dwtag  DW_TAG_lexical_block
	.dwattr $C$DW$127, DW_AT_low_pc(0x00)
	.dwattr $C$DW$127, DW_AT_high_pc(0x00)
$C$DW$128	.dwtag  DW_TAG_variable
	.dwattr $C$DW$128, DW_AT_name("pSysviewPointer")
	.dwattr $C$DW$128, DW_AT_TI_symbol_name("pSysviewPointer")
	.dwattr $C$DW$128, DW_AT_type(*$C$DW$T$21)
	.dwattr $C$DW$128, DW_AT_location[DW_OP_breg13 104]

$C$DW$129	.dwtag  DW_TAG_variable
	.dwattr $C$DW$129, DW_AT_name("SysViewData")
	.dwattr $C$DW$129, DW_AT_TI_symbol_name("SysViewData")
	.dwattr $C$DW$129, DW_AT_type(*$C$DW$T$13)
	.dwattr $C$DW$129, DW_AT_location[DW_OP_breg13 108]

	.dwpsn	file "../thirdparty/SEGGER/SEGGER/SEGGER_SYSVIEW.c",line 824,column 7,is_stmt,isa 1
        LDR       A2, [SP, #88]         ; [DPU_V7M3_PIPE] |824| 
        LDR       A1, [SP, #76]         ; [DPU_V7M3_PIPE] |824| 
        STR       A2, [SP, #104]        ; [DPU_V7M3_PIPE] |824| 
        LDR       A1, [A1, #0]          ; [DPU_V7M3_PIPE] |824| 
        STR       A1, [SP, #108]        ; [DPU_V7M3_PIPE] |824| 
        LDR       A1, [SP, #108]        ; [DPU_V7M3_PIPE] |824| 
        CMP       A1, #127              ; [DPU_V7M3_PIPE] |824| 
        BLS       ||$C$L47||            ; [DPU_V7M3_PIPE] |824| 
        ; BRANCHCC OCCURS {||$C$L47||}   ; [] |824| 
;* --------------------------------------------------------------------------*
;*   BEGIN LOOP ||$C$L46||
;*
;*   Loop source line                : 824
;*   Loop closing brace source line  : 824
;*   Known Minimum Trip Count        : 1
;*   Known Maximum Trip Count        : 4294967295
;*   Known Max Trip Count Factor     : 1
;* --------------------------------------------------------------------------*
||$C$L46||:    
        LDR       A2, [SP, #104]        ; [DPU_V7M3_PIPE] |824| 
        LDR       A1, [SP, #108]        ; [DPU_V7M3_PIPE] |824| 
        ADDS      A3, A2, #1            ; [DPU_V7M3_PIPE] |824| 
        STR       A3, [SP, #104]        ; [DPU_V7M3_PIPE] |824| 
        ORR       A1, A1, #128          ; [DPU_V7M3_PIPE] |824| 
        STRB      A1, [A2, #0]          ; [DPU_V7M3_PIPE] |824| 
        LDR       A1, [SP, #108]        ; [DPU_V7M3_PIPE] |824| 
        LSRS      A1, A1, #7            ; [DPU_V7M3_PIPE] |824| 
        STR       A1, [SP, #108]        ; [DPU_V7M3_PIPE] |824| 
        LDR       A1, [SP, #108]        ; [DPU_V7M3_PIPE] |824| 
        CMP       A1, #127              ; [DPU_V7M3_PIPE] |824| 
        BHI       ||$C$L46||            ; [DPU_V7M3_PIPE] |824| 
        ; BRANCHCC OCCURS {||$C$L46||}   ; [] |824| 
;* --------------------------------------------------------------------------*
||$C$L47||:    
        LDR       A1, [SP, #104]        ; [DPU_V7M3_PIPE] |824| 
        ADDS      A2, A1, #1            ; [DPU_V7M3_PIPE] |824| 
        STR       A2, [SP, #104]        ; [DPU_V7M3_PIPE] |824| 
        LDRB      A2, [SP, #108]        ; [DPU_V7M3_PIPE] |824| 
        STRB      A2, [A1, #0]          ; [DPU_V7M3_PIPE] |824| 
        LDR       A1, [SP, #104]        ; [DPU_V7M3_PIPE] |824| 
        STR       A1, [SP, #88]         ; [DPU_V7M3_PIPE] |824| 
	.dwendtag $C$DW$127

	.dwpsn	file "../thirdparty/SEGGER/SEGGER/SEGGER_SYSVIEW.c",line 825,column 7,is_stmt,isa 1
        LDR       A1, [SP, #76]         ; [DPU_V7M3_PIPE] |825| 
        ADDS      A1, A1, #4            ; [DPU_V7M3_PIPE] |825| 
        STR       A1, [SP, #76]         ; [DPU_V7M3_PIPE] |825| 
	.dwendtag $C$DW$126

	.dwpsn	file "../thirdparty/SEGGER/SEGGER/SEGGER_SYSVIEW.c",line 823,column 5,is_stmt,isa 1
        LDR       A1, [SP, #80]         ; [DPU_V7M3_PIPE] |823| 
        CMP       A1, #0                ; [DPU_V7M3_PIPE] |823| 
        SUB       A2, A1, #1            ; [DPU_V7M3_PIPE] |823| 
        STR       A2, [SP, #80]         ; [DPU_V7M3_PIPE] |823| 
        BNE       ||$C$L45||            ; [DPU_V7M3_PIPE] |823| 
        ; BRANCHCC OCCURS {||$C$L45||}   ; [] |823| 
;* --------------------------------------------------------------------------*
||$C$L48||:    
	.dwpsn	file "../thirdparty/SEGGER/SEGGER/SEGGER_SYSVIEW.c",line 827,column 5,is_stmt,isa 1
        LDR       A1, [SP, #92]         ; [DPU_V7M3_PIPE] |827| 
        LDR       A2, [SP, #88]         ; [DPU_V7M3_PIPE] |827| 
        MOVS      A3, #26               ; [DPU_V7M3_PIPE] |827| 
$C$DW$130	.dwtag  DW_TAG_TI_branch
	.dwattr $C$DW$130, DW_AT_low_pc(0x00)
	.dwattr $C$DW$130, DW_AT_name("_SendPacket")
	.dwattr $C$DW$130, DW_AT_TI_call

        BL        _SendPacket           ; [DPU_V7M3_PIPE] |827| 
        ; CALL OCCURS {_SendPacket }     ; [] |827| 
	.dwpsn	file "../thirdparty/SEGGER/SEGGER/SEGGER_SYSVIEW.c",line 828,column 5,is_stmt,isa 1
        LDR       A1, [SP, #100]        ; [DPU_V7M3_PIPE] |828| 
        MSR       BASEPRI, A1           ; [DPU_V7M3_PIPE] |828| 
	.dwendtag $C$DW$116

	.dwendtag $C$DW$115

	.dwpsn	file "../thirdparty/SEGGER/SEGGER/SEGGER_SYSVIEW.c",line 830,column 3,is_stmt,isa 1
        MOVS      A1, #0                ; [DPU_V7M3_PIPE] |830| 
	.dwpsn	file "../thirdparty/SEGGER/SEGGER/SEGGER_SYSVIEW.c",line 831,column 1,is_stmt,isa 1
        ADD       SP, SP, #116          ; [DPU_V7M3_PIPE] 
	.dwcfi	cfa_offset, 4
$C$DW$131	.dwtag  DW_TAG_TI_branch
	.dwattr $C$DW$131, DW_AT_low_pc(0x00)
	.dwattr $C$DW$131, DW_AT_TI_return

        POP       {PC}                  ; [DPU_V7M3_PIPE] 
	.dwcfi	cfa_offset, 0
        ; BRANCH OCCURS                  ; [] 
	.dwattr $C$DW$101, DW_AT_TI_end_file("../thirdparty/SEGGER/SEGGER/SEGGER_SYSVIEW.c")
	.dwattr $C$DW$101, DW_AT_TI_end_line(0x33f)
	.dwattr $C$DW$101, DW_AT_TI_end_column(0x01)
	.dwendentry
	.dwendtag $C$DW$101

;******************************************************************************
;* CONSTANT TABLE                                                             *
;******************************************************************************
	.sect	".text"
	.align	4
||$C$CON5||:	.bits	_SYSVIEW_Globals+28,32
	.sect	".text"
	.clink
	.thumbfunc _StoreChar
	.thumb

$C$DW$132	.dwtag  DW_TAG_subprogram
	.dwattr $C$DW$132, DW_AT_name("_StoreChar")
	.dwattr $C$DW$132, DW_AT_low_pc(_StoreChar)
	.dwattr $C$DW$132, DW_AT_high_pc(0x00)
	.dwattr $C$DW$132, DW_AT_TI_symbol_name("_StoreChar")
	.dwattr $C$DW$132, DW_AT_TI_begin_file("../thirdparty/SEGGER/SEGGER/SEGGER_SYSVIEW.c")
	.dwattr $C$DW$132, DW_AT_TI_begin_line(0x34d)
	.dwattr $C$DW$132, DW_AT_TI_begin_column(0x0d)
	.dwattr $C$DW$132, DW_AT_decl_file("../thirdparty/SEGGER/SEGGER/SEGGER_SYSVIEW.c")
	.dwattr $C$DW$132, DW_AT_decl_line(0x34d)
	.dwattr $C$DW$132, DW_AT_decl_column(0x0d)
	.dwattr $C$DW$132, DW_AT_TI_max_frame_size(0x20)
	.dwpsn	file "../thirdparty/SEGGER/SEGGER/SEGGER_SYSVIEW.c",line 845,column 64,is_stmt,address _StoreChar,isa 1

	.dwfde $C$DW$CIE, _StoreChar
$C$DW$133	.dwtag  DW_TAG_formal_parameter
	.dwattr $C$DW$133, DW_AT_name("p")
	.dwattr $C$DW$133, DW_AT_TI_symbol_name("p")
	.dwattr $C$DW$133, DW_AT_type(*$C$DW$T$88)
	.dwattr $C$DW$133, DW_AT_location[DW_OP_reg0]

$C$DW$134	.dwtag  DW_TAG_formal_parameter
	.dwattr $C$DW$134, DW_AT_name("c")
	.dwattr $C$DW$134, DW_AT_TI_symbol_name("c")
	.dwattr $C$DW$134, DW_AT_type(*$C$DW$T$10)
	.dwattr $C$DW$134, DW_AT_location[DW_OP_reg1]


;*****************************************************************************
;* FUNCTION NAME: _StoreChar                                                 *
;*                                                                           *
;*   Regs Modified     : A1,A2,A3,A4,V9,SP,LR,SR,D0,D0_hi,D1,D1_hi,D2,D2_hi, *
;*                           D3,D3_hi,D4,D4_hi,D5,D5_hi,D6,D6_hi,D7,D7_hi,   *
;*                           FPEXC,FPSCR                                     *
;*   Regs Used         : A1,A2,A3,A4,V9,SP,LR,SR,D0,D0_hi,D1,D1_hi,D2,D2_hi, *
;*                           D3,D3_hi,D4,D4_hi,D5,D5_hi,D6,D6_hi,D7,D7_hi,   *
;*                           FPEXC,FPSCR                                     *
;*   Local Frame Size  : 0 Args + 28 Auto + 4 Save = 32 byte                 *
;*****************************************************************************
_StoreChar:
;* --------------------------------------------------------------------------*
	.dwcfi	cfa_offset, 0
        PUSH      {LR}                  ; [DPU_V7M3_PIPE] 
	.dwcfi	cfa_offset, 4
	.dwcfi	save_reg_to_mem, 14, -4
        SUB       SP, SP, #28           ; [DPU_V7M3_PIPE] 
	.dwcfi	cfa_offset, 32
$C$DW$135	.dwtag  DW_TAG_variable
	.dwattr $C$DW$135, DW_AT_name("p")
	.dwattr $C$DW$135, DW_AT_TI_symbol_name("p")
	.dwattr $C$DW$135, DW_AT_type(*$C$DW$T$88)
	.dwattr $C$DW$135, DW_AT_location[DW_OP_breg13 0]

$C$DW$136	.dwtag  DW_TAG_variable
	.dwattr $C$DW$136, DW_AT_name("Cnt")
	.dwattr $C$DW$136, DW_AT_TI_symbol_name("Cnt")
	.dwattr $C$DW$136, DW_AT_type(*$C$DW$T$11)
	.dwattr $C$DW$136, DW_AT_location[DW_OP_breg13 4]

$C$DW$137	.dwtag  DW_TAG_variable
	.dwattr $C$DW$137, DW_AT_name("pPayload")
	.dwattr $C$DW$137, DW_AT_TI_symbol_name("pPayload")
	.dwattr $C$DW$137, DW_AT_type(*$C$DW$T$21)
	.dwattr $C$DW$137, DW_AT_location[DW_OP_breg13 8]

$C$DW$138	.dwtag  DW_TAG_variable
	.dwattr $C$DW$138, DW_AT_name("Options")
	.dwattr $C$DW$138, DW_AT_TI_symbol_name("Options")
	.dwattr $C$DW$138, DW_AT_type(*$C$DW$T$13)
	.dwattr $C$DW$138, DW_AT_location[DW_OP_breg13 12]

$C$DW$139	.dwtag  DW_TAG_variable
	.dwattr $C$DW$139, DW_AT_name("c")
	.dwattr $C$DW$139, DW_AT_TI_symbol_name("c")
	.dwattr $C$DW$139, DW_AT_type(*$C$DW$T$6)
	.dwattr $C$DW$139, DW_AT_location[DW_OP_breg13 16]

        STRB      A2, [SP, #16]         ; [DPU_V7M3_PIPE] |845| 
        STR       A1, [SP, #0]          ; [DPU_V7M3_PIPE] |845| 
	.dwpsn	file "../thirdparty/SEGGER/SEGGER/SEGGER_SYSVIEW.c",line 850,column 3,is_stmt,isa 1
        LDR       A1, [SP, #0]          ; [DPU_V7M3_PIPE] |850| 
        LDR       A1, [A1, #16]         ; [DPU_V7M3_PIPE] |850| 
        STR       A1, [SP, #4]          ; [DPU_V7M3_PIPE] |850| 
	.dwpsn	file "../thirdparty/SEGGER/SEGGER/SEGGER_SYSVIEW.c",line 851,column 3,is_stmt,isa 1
        LDR       A1, [SP, #4]          ; [DPU_V7M3_PIPE] |851| 
        ADDS      A1, A1, #1            ; [DPU_V7M3_PIPE] |851| 
        CMP       A1, #128              ; [DPU_V7M3_PIPE] |851| 
        BHI       ||$C$L49||            ; [DPU_V7M3_PIPE] |851| 
        ; BRANCHCC OCCURS {||$C$L49||}   ; [] |851| 
;* --------------------------------------------------------------------------*
	.dwpsn	file "../thirdparty/SEGGER/SEGGER/SEGGER_SYSVIEW.c",line 852,column 5,is_stmt,isa 1
        LDR       A2, [SP, #0]          ; [DPU_V7M3_PIPE] |852| 
        LDR       A1, [A2, #4]          ; [DPU_V7M3_PIPE] |852| 
        ADDS      A3, A1, #1            ; [DPU_V7M3_PIPE] |852| 
        STR       A3, [A2, #4]          ; [DPU_V7M3_PIPE] |852| 
        LDRB      A2, [SP, #16]         ; [DPU_V7M3_PIPE] |852| 
        STRB      A2, [A1, #0]          ; [DPU_V7M3_PIPE] |852| 
	.dwpsn	file "../thirdparty/SEGGER/SEGGER/SEGGER_SYSVIEW.c",line 853,column 5,is_stmt,isa 1
        LDR       A1, [SP, #4]          ; [DPU_V7M3_PIPE] |853| 
        LDR       A2, [SP, #0]          ; [DPU_V7M3_PIPE] |853| 
        ADDS      A1, A1, #1            ; [DPU_V7M3_PIPE] |853| 
        STR       A1, [A2, #16]         ; [DPU_V7M3_PIPE] |853| 
;* --------------------------------------------------------------------------*
||$C$L49||:    
	.dwpsn	file "../thirdparty/SEGGER/SEGGER/SEGGER_SYSVIEW.c",line 858,column 3,is_stmt,isa 1
        LDR       A1, [SP, #0]          ; [DPU_V7M3_PIPE] |858| 
        LDR       A1, [A1, #16]         ; [DPU_V7M3_PIPE] |858| 
        CMP       A1, #128              ; [DPU_V7M3_PIPE] |858| 
        BNE       ||$C$L54||            ; [DPU_V7M3_PIPE] |858| 
        ; BRANCHCC OCCURS {||$C$L54||}   ; [] |858| 
;* --------------------------------------------------------------------------*

$C$DW$140	.dwtag  DW_TAG_lexical_block
	.dwattr $C$DW$140, DW_AT_low_pc(0x00)
	.dwattr $C$DW$140, DW_AT_high_pc(0x00)
	.dwpsn	file "../thirdparty/SEGGER/SEGGER/SEGGER_SYSVIEW.c",line 859,column 5,is_stmt,isa 1
        LDR       A1, [SP, #0]          ; [DPU_V7M3_PIPE] |859| 
        LDR       A2, [SP, #0]          ; [DPU_V7M3_PIPE] |859| 
        LDRB      A1, [A1, #16]         ; [DPU_V7M3_PIPE] |859| 
        LDR       A2, [A2, #8]          ; [DPU_V7M3_PIPE] |859| 
        STRB      A1, [A2, #0]          ; [DPU_V7M3_PIPE] |859| 
	.dwpsn	file "../thirdparty/SEGGER/SEGGER/SEGGER_SYSVIEW.c",line 860,column 5,is_stmt,isa 1
        LDR       A1, [SP, #0]          ; [DPU_V7M3_PIPE] |860| 
        LDR       A1, [A1, #4]          ; [DPU_V7M3_PIPE] |860| 
        STR       A1, [SP, #8]          ; [DPU_V7M3_PIPE] |860| 
	.dwpsn	file "../thirdparty/SEGGER/SEGGER/SEGGER_SYSVIEW.c",line 861,column 5,is_stmt,isa 1
        LDR       A1, [SP, #0]          ; [DPU_V7M3_PIPE] |861| 
        LDR       A1, [A1, #12]         ; [DPU_V7M3_PIPE] |861| 
        STR       A1, [SP, #12]         ; [DPU_V7M3_PIPE] |861| 

$C$DW$141	.dwtag  DW_TAG_lexical_block
	.dwattr $C$DW$141, DW_AT_low_pc(0x00)
	.dwattr $C$DW$141, DW_AT_high_pc(0x00)
$C$DW$142	.dwtag  DW_TAG_variable
	.dwattr $C$DW$142, DW_AT_name("pSysviewPointer")
	.dwattr $C$DW$142, DW_AT_TI_symbol_name("pSysviewPointer")
	.dwattr $C$DW$142, DW_AT_type(*$C$DW$T$21)
	.dwattr $C$DW$142, DW_AT_location[DW_OP_breg13 20]

$C$DW$143	.dwtag  DW_TAG_variable
	.dwattr $C$DW$143, DW_AT_name("SysViewData")
	.dwattr $C$DW$143, DW_AT_TI_symbol_name("SysViewData")
	.dwattr $C$DW$143, DW_AT_type(*$C$DW$T$13)
	.dwattr $C$DW$143, DW_AT_location[DW_OP_breg13 24]

	.dwpsn	file "../thirdparty/SEGGER/SEGGER/SEGGER_SYSVIEW.c",line 862,column 5,is_stmt,isa 1
        LDR       A1, [SP, #12]         ; [DPU_V7M3_PIPE] |862| 
        LDR       A2, [SP, #8]          ; [DPU_V7M3_PIPE] |862| 
        STR       A1, [SP, #24]         ; [DPU_V7M3_PIPE] |862| 
        LDR       A1, [SP, #24]         ; [DPU_V7M3_PIPE] |862| 
        STR       A2, [SP, #20]         ; [DPU_V7M3_PIPE] |862| 
        CMP       A1, #127              ; [DPU_V7M3_PIPE] |862| 
        BLS       ||$C$L51||            ; [DPU_V7M3_PIPE] |862| 
        ; BRANCHCC OCCURS {||$C$L51||}   ; [] |862| 
;* --------------------------------------------------------------------------*
;*   BEGIN LOOP ||$C$L50||
;*
;*   Loop source line                : 862
;*   Loop closing brace source line  : 862
;*   Known Minimum Trip Count        : 1
;*   Known Maximum Trip Count        : 4294967295
;*   Known Max Trip Count Factor     : 1
;* --------------------------------------------------------------------------*
||$C$L50||:    
        LDR       A2, [SP, #20]         ; [DPU_V7M3_PIPE] |862| 
        LDR       A1, [SP, #24]         ; [DPU_V7M3_PIPE] |862| 
        ADDS      A3, A2, #1            ; [DPU_V7M3_PIPE] |862| 
        STR       A3, [SP, #20]         ; [DPU_V7M3_PIPE] |862| 
        ORR       A1, A1, #128          ; [DPU_V7M3_PIPE] |862| 
        STRB      A1, [A2, #0]          ; [DPU_V7M3_PIPE] |862| 
        LDR       A1, [SP, #24]         ; [DPU_V7M3_PIPE] |862| 
        LSRS      A1, A1, #7            ; [DPU_V7M3_PIPE] |862| 
        STR       A1, [SP, #24]         ; [DPU_V7M3_PIPE] |862| 
        LDR       A1, [SP, #24]         ; [DPU_V7M3_PIPE] |862| 
        CMP       A1, #127              ; [DPU_V7M3_PIPE] |862| 
        BHI       ||$C$L50||            ; [DPU_V7M3_PIPE] |862| 
        ; BRANCHCC OCCURS {||$C$L50||}   ; [] |862| 
;* --------------------------------------------------------------------------*
||$C$L51||:    
        LDR       A1, [SP, #20]         ; [DPU_V7M3_PIPE] |862| 
        ADDS      A2, A1, #1            ; [DPU_V7M3_PIPE] |862| 
        STR       A2, [SP, #20]         ; [DPU_V7M3_PIPE] |862| 
        LDRB      A2, [SP, #24]         ; [DPU_V7M3_PIPE] |862| 
        STRB      A2, [A1, #0]          ; [DPU_V7M3_PIPE] |862| 
        LDR       A1, [SP, #20]         ; [DPU_V7M3_PIPE] |862| 
        STR       A1, [SP, #8]          ; [DPU_V7M3_PIPE] |862| 
	.dwendtag $C$DW$141


$C$DW$144	.dwtag  DW_TAG_lexical_block
	.dwattr $C$DW$144, DW_AT_low_pc(0x00)
	.dwattr $C$DW$144, DW_AT_high_pc(0x00)
$C$DW$145	.dwtag  DW_TAG_variable
	.dwattr $C$DW$145, DW_AT_name("pSysviewPointer")
	.dwattr $C$DW$145, DW_AT_TI_symbol_name("pSysviewPointer")
	.dwattr $C$DW$145, DW_AT_type(*$C$DW$T$21)
	.dwattr $C$DW$145, DW_AT_location[DW_OP_breg13 20]

$C$DW$146	.dwtag  DW_TAG_variable
	.dwattr $C$DW$146, DW_AT_name("SysViewData")
	.dwattr $C$DW$146, DW_AT_TI_symbol_name("SysViewData")
	.dwattr $C$DW$146, DW_AT_type(*$C$DW$T$13)
	.dwattr $C$DW$146, DW_AT_location[DW_OP_breg13 24]

	.dwpsn	file "../thirdparty/SEGGER/SEGGER/SEGGER_SYSVIEW.c",line 863,column 5,is_stmt,isa 1
        MOVS      A1, #0                ; [DPU_V7M3_PIPE] |863| 
        LDR       A2, [SP, #8]          ; [DPU_V7M3_PIPE] |863| 
        STR       A1, [SP, #24]         ; [DPU_V7M3_PIPE] |863| 
        LDR       A1, [SP, #24]         ; [DPU_V7M3_PIPE] |863| 
        STR       A2, [SP, #20]         ; [DPU_V7M3_PIPE] |863| 
        CMP       A1, #127              ; [DPU_V7M3_PIPE] |863| 
        BLS       ||$C$L53||            ; [DPU_V7M3_PIPE] |863| 
        ; BRANCHCC OCCURS {||$C$L53||}   ; [] |863| 
;* --------------------------------------------------------------------------*
;*   BEGIN LOOP ||$C$L52||
;*
;*   Loop source line                : 863
;*   Loop closing brace source line  : 863
;*   Known Minimum Trip Count        : 1
;*   Known Maximum Trip Count        : 4294967295
;*   Known Max Trip Count Factor     : 1
;* --------------------------------------------------------------------------*
||$C$L52||:    
        LDR       A2, [SP, #20]         ; [DPU_V7M3_PIPE] |863| 
        LDR       A1, [SP, #24]         ; [DPU_V7M3_PIPE] |863| 
        ADDS      A3, A2, #1            ; [DPU_V7M3_PIPE] |863| 
        STR       A3, [SP, #20]         ; [DPU_V7M3_PIPE] |863| 
        ORR       A1, A1, #128          ; [DPU_V7M3_PIPE] |863| 
        STRB      A1, [A2, #0]          ; [DPU_V7M3_PIPE] |863| 
        LDR       A1, [SP, #24]         ; [DPU_V7M3_PIPE] |863| 
        LSRS      A1, A1, #7            ; [DPU_V7M3_PIPE] |863| 
        STR       A1, [SP, #24]         ; [DPU_V7M3_PIPE] |863| 
        LDR       A1, [SP, #24]         ; [DPU_V7M3_PIPE] |863| 
        CMP       A1, #127              ; [DPU_V7M3_PIPE] |863| 
        BHI       ||$C$L52||            ; [DPU_V7M3_PIPE] |863| 
        ; BRANCHCC OCCURS {||$C$L52||}   ; [] |863| 
;* --------------------------------------------------------------------------*
||$C$L53||:    
        LDR       A1, [SP, #20]         ; [DPU_V7M3_PIPE] |863| 
        ADDS      A2, A1, #1            ; [DPU_V7M3_PIPE] |863| 
        STR       A2, [SP, #20]         ; [DPU_V7M3_PIPE] |863| 
        LDRB      A2, [SP, #24]         ; [DPU_V7M3_PIPE] |863| 
        STRB      A2, [A1, #0]          ; [DPU_V7M3_PIPE] |863| 
        LDR       A1, [SP, #20]         ; [DPU_V7M3_PIPE] |863| 
        STR       A1, [SP, #8]          ; [DPU_V7M3_PIPE] |863| 
	.dwendtag $C$DW$144

	.dwpsn	file "../thirdparty/SEGGER/SEGGER/SEGGER_SYSVIEW.c",line 864,column 5,is_stmt,isa 1
        LDR       A1, [SP, #0]          ; [DPU_V7M3_PIPE] |864| 
        LDR       A2, [SP, #8]          ; [DPU_V7M3_PIPE] |864| 
        LDR       A1, [A1, #8]          ; [DPU_V7M3_PIPE] |864| 
        MOVS      A3, #26               ; [DPU_V7M3_PIPE] |864| 
$C$DW$147	.dwtag  DW_TAG_TI_branch
	.dwattr $C$DW$147, DW_AT_low_pc(0x00)
	.dwattr $C$DW$147, DW_AT_name("_SendPacket")
	.dwattr $C$DW$147, DW_AT_TI_call

        BL        _SendPacket           ; [DPU_V7M3_PIPE] |864| 
        ; CALL OCCURS {_SendPacket }     ; [] |864| 
	.dwpsn	file "../thirdparty/SEGGER/SEGGER/SEGGER_SYSVIEW.c",line 865,column 5,is_stmt,isa 1
        LDR       A1, [SP, #0]          ; [DPU_V7M3_PIPE] |865| 
        LDR       A1, [A1, #0]          ; [DPU_V7M3_PIPE] |865| 
$C$DW$148	.dwtag  DW_TAG_TI_branch
	.dwattr $C$DW$148, DW_AT_low_pc(0x00)
	.dwattr $C$DW$148, DW_AT_name("_PreparePacket")
	.dwattr $C$DW$148, DW_AT_TI_call

        BL        _PreparePacket        ; [DPU_V7M3_PIPE] |865| 
        ; CALL OCCURS {_PreparePacket }  ; [] |865| 
        LDR       A2, [SP, #0]          ; [DPU_V7M3_PIPE] |865| 
        STR       A1, [A2, #8]          ; [DPU_V7M3_PIPE] |865| 
	.dwpsn	file "../thirdparty/SEGGER/SEGGER/SEGGER_SYSVIEW.c",line 866,column 5,is_stmt,isa 1
        LDR       A1, [SP, #0]          ; [DPU_V7M3_PIPE] |866| 
        LDR       A2, [SP, #0]          ; [DPU_V7M3_PIPE] |866| 
        LDR       A1, [A1, #8]          ; [DPU_V7M3_PIPE] |866| 
        ADDS      A1, A1, #1            ; [DPU_V7M3_PIPE] |866| 
        STR       A1, [A2, #4]          ; [DPU_V7M3_PIPE] |866| 
	.dwpsn	file "../thirdparty/SEGGER/SEGGER/SEGGER_SYSVIEW.c",line 867,column 5,is_stmt,isa 1
        LDR       A1, [SP, #0]          ; [DPU_V7M3_PIPE] |867| 
        MOVS      A2, #0                ; [DPU_V7M3_PIPE] |867| 
        STR       A2, [A1, #16]         ; [DPU_V7M3_PIPE] |867| 
	.dwendtag $C$DW$140

	.dwpsn	file "../thirdparty/SEGGER/SEGGER/SEGGER_SYSVIEW.c",line 869,column 1,is_stmt,isa 1
;* --------------------------------------------------------------------------*
||$C$L54||:    
        ADD       SP, SP, #28           ; [DPU_V7M3_PIPE] 
	.dwcfi	cfa_offset, 4
$C$DW$149	.dwtag  DW_TAG_TI_branch
	.dwattr $C$DW$149, DW_AT_low_pc(0x00)
	.dwattr $C$DW$149, DW_AT_TI_return

        POP       {PC}                  ; [DPU_V7M3_PIPE] 
	.dwcfi	cfa_offset, 0
        ; BRANCH OCCURS                  ; [] 
	.dwattr $C$DW$132, DW_AT_TI_end_file("../thirdparty/SEGGER/SEGGER/SEGGER_SYSVIEW.c")
	.dwattr $C$DW$132, DW_AT_TI_end_line(0x365)
	.dwattr $C$DW$132, DW_AT_TI_end_column(0x01)
	.dwendentry
	.dwendtag $C$DW$132

;******************************************************************************
;* CONSTANT TABLE                                                             *
;******************************************************************************
	.sect	".text"
	.align	4
||$C$CON6||:	.bits	_SEGGER_RTT+132,32
	.align	4
||$C$CON7||:	.bits	_SEGGER_RTT+136,32
	.align	4
||$C$CON8||:	.bits	_SYSVIEW_Globals+2,32
	.align	4
||$C$CON9||:	.bits	_aPacket,32
	.sect	".text"
	.clink
	.thumbfunc _PrintUnsigned
	.thumb

$C$DW$150	.dwtag  DW_TAG_subprogram
	.dwattr $C$DW$150, DW_AT_name("_PrintUnsigned")
	.dwattr $C$DW$150, DW_AT_low_pc(_PrintUnsigned)
	.dwattr $C$DW$150, DW_AT_high_pc(0x00)
	.dwattr $C$DW$150, DW_AT_TI_symbol_name("_PrintUnsigned")
	.dwattr $C$DW$150, DW_AT_TI_begin_file("../thirdparty/SEGGER/SEGGER/SEGGER_SYSVIEW.c")
	.dwattr $C$DW$150, DW_AT_TI_begin_line(0x377)
	.dwattr $C$DW$150, DW_AT_TI_begin_column(0x0d)
	.dwattr $C$DW$150, DW_AT_decl_file("../thirdparty/SEGGER/SEGGER/SEGGER_SYSVIEW.c")
	.dwattr $C$DW$150, DW_AT_decl_line(0x377)
	.dwattr $C$DW$150, DW_AT_decl_column(0x0d)
	.dwattr $C$DW$150, DW_AT_TI_max_frame_size(0x28)
	.dwpsn	file "../thirdparty/SEGGER/SEGGER/SEGGER_SYSVIEW.c",line 887,column 180,is_stmt,address _PrintUnsigned,isa 1

	.dwfde $C$DW$CIE, _PrintUnsigned
$C$DW$151	.dwtag  DW_TAG_variable
	.dwattr $C$DW$151, DW_AT_name("_aV2C")
	.dwattr $C$DW$151, DW_AT_TI_symbol_name("_aV2C$1")
	.dwattr $C$DW$151, DW_AT_type(*$C$DW$T$260)
	.dwattr $C$DW$151, DW_AT_location[DW_OP_addr _aV2C$1]

$C$DW$152	.dwtag  DW_TAG_formal_parameter
	.dwattr $C$DW$152, DW_AT_name("pBufferDesc")
	.dwattr $C$DW$152, DW_AT_TI_symbol_name("pBufferDesc")
	.dwattr $C$DW$152, DW_AT_type(*$C$DW$T$88)
	.dwattr $C$DW$152, DW_AT_location[DW_OP_reg0]

$C$DW$153	.dwtag  DW_TAG_formal_parameter
	.dwattr $C$DW$153, DW_AT_name("v")
	.dwattr $C$DW$153, DW_AT_TI_symbol_name("v")
	.dwattr $C$DW$153, DW_AT_type(*$C$DW$T$11)
	.dwattr $C$DW$153, DW_AT_location[DW_OP_reg1]

$C$DW$154	.dwtag  DW_TAG_formal_parameter
	.dwattr $C$DW$154, DW_AT_name("Base")
	.dwattr $C$DW$154, DW_AT_TI_symbol_name("Base")
	.dwattr $C$DW$154, DW_AT_type(*$C$DW$T$11)
	.dwattr $C$DW$154, DW_AT_location[DW_OP_reg2]

$C$DW$155	.dwtag  DW_TAG_formal_parameter
	.dwattr $C$DW$155, DW_AT_name("NumDigits")
	.dwattr $C$DW$155, DW_AT_TI_symbol_name("NumDigits")
	.dwattr $C$DW$155, DW_AT_type(*$C$DW$T$11)
	.dwattr $C$DW$155, DW_AT_location[DW_OP_reg3]

$C$DW$156	.dwtag  DW_TAG_formal_parameter
	.dwattr $C$DW$156, DW_AT_name("FieldWidth")
	.dwattr $C$DW$156, DW_AT_TI_symbol_name("FieldWidth")
	.dwattr $C$DW$156, DW_AT_type(*$C$DW$T$11)
	.dwattr $C$DW$156, DW_AT_location[DW_OP_breg13 40]

$C$DW$157	.dwtag  DW_TAG_formal_parameter
	.dwattr $C$DW$157, DW_AT_name("FormatFlags")
	.dwattr $C$DW$157, DW_AT_TI_symbol_name("FormatFlags")
	.dwattr $C$DW$157, DW_AT_type(*$C$DW$T$11)
	.dwattr $C$DW$157, DW_AT_location[DW_OP_breg13 44]


;*****************************************************************************
;* FUNCTION NAME: _PrintUnsigned                                             *
;*                                                                           *
;*   Regs Modified     : A1,A2,A3,A4,V9,SP,LR,SR,D0,D0_hi,D1,D1_hi,D2,D2_hi, *
;*                           D3,D3_hi,D4,D4_hi,D5,D5_hi,D6,D6_hi,D7,D7_hi,   *
;*                           FPEXC,FPSCR                                     *
;*   Regs Used         : A1,A2,A3,A4,V9,SP,LR,SR,D0,D0_hi,D1,D1_hi,D2,D2_hi, *
;*                           D3,D3_hi,D4,D4_hi,D5,D5_hi,D6,D6_hi,D7,D7_hi,   *
;*                           FPEXC,FPSCR                                     *
;*   Local Frame Size  : 0 Args + 36 Auto + 4 Save = 40 byte                 *
;*****************************************************************************
_PrintUnsigned:
;* --------------------------------------------------------------------------*
	.dwcfi	cfa_offset, 0
        PUSH      {LR}                  ; [DPU_V7M3_PIPE] 
	.dwcfi	cfa_offset, 4
	.dwcfi	save_reg_to_mem, 14, -4
        SUB       SP, SP, #36           ; [DPU_V7M3_PIPE] 
	.dwcfi	cfa_offset, 40
$C$DW$158	.dwtag  DW_TAG_variable
	.dwattr $C$DW$158, DW_AT_name("pBufferDesc")
	.dwattr $C$DW$158, DW_AT_TI_symbol_name("pBufferDesc")
	.dwattr $C$DW$158, DW_AT_type(*$C$DW$T$88)
	.dwattr $C$DW$158, DW_AT_location[DW_OP_breg13 0]

$C$DW$159	.dwtag  DW_TAG_variable
	.dwattr $C$DW$159, DW_AT_name("v")
	.dwattr $C$DW$159, DW_AT_TI_symbol_name("v")
	.dwattr $C$DW$159, DW_AT_type(*$C$DW$T$11)
	.dwattr $C$DW$159, DW_AT_location[DW_OP_breg13 4]

$C$DW$160	.dwtag  DW_TAG_variable
	.dwattr $C$DW$160, DW_AT_name("Base")
	.dwattr $C$DW$160, DW_AT_TI_symbol_name("Base")
	.dwattr $C$DW$160, DW_AT_type(*$C$DW$T$11)
	.dwattr $C$DW$160, DW_AT_location[DW_OP_breg13 8]

$C$DW$161	.dwtag  DW_TAG_variable
	.dwattr $C$DW$161, DW_AT_name("NumDigits")
	.dwattr $C$DW$161, DW_AT_TI_symbol_name("NumDigits")
	.dwattr $C$DW$161, DW_AT_type(*$C$DW$T$11)
	.dwattr $C$DW$161, DW_AT_location[DW_OP_breg13 12]

$C$DW$162	.dwtag  DW_TAG_variable
	.dwattr $C$DW$162, DW_AT_name("Div")
	.dwattr $C$DW$162, DW_AT_TI_symbol_name("Div")
	.dwattr $C$DW$162, DW_AT_type(*$C$DW$T$11)
	.dwattr $C$DW$162, DW_AT_location[DW_OP_breg13 16]

$C$DW$163	.dwtag  DW_TAG_variable
	.dwattr $C$DW$163, DW_AT_name("Digit")
	.dwattr $C$DW$163, DW_AT_TI_symbol_name("Digit")
	.dwattr $C$DW$163, DW_AT_type(*$C$DW$T$11)
	.dwattr $C$DW$163, DW_AT_location[DW_OP_breg13 20]

$C$DW$164	.dwtag  DW_TAG_variable
	.dwattr $C$DW$164, DW_AT_name("Number")
	.dwattr $C$DW$164, DW_AT_TI_symbol_name("Number")
	.dwattr $C$DW$164, DW_AT_type(*$C$DW$T$11)
	.dwattr $C$DW$164, DW_AT_location[DW_OP_breg13 24]

$C$DW$165	.dwtag  DW_TAG_variable
	.dwattr $C$DW$165, DW_AT_name("Width")
	.dwattr $C$DW$165, DW_AT_TI_symbol_name("Width")
	.dwattr $C$DW$165, DW_AT_type(*$C$DW$T$11)
	.dwattr $C$DW$165, DW_AT_location[DW_OP_breg13 28]

$C$DW$166	.dwtag  DW_TAG_variable
	.dwattr $C$DW$166, DW_AT_name("c")
	.dwattr $C$DW$166, DW_AT_TI_symbol_name("c")
	.dwattr $C$DW$166, DW_AT_type(*$C$DW$T$6)
	.dwattr $C$DW$166, DW_AT_location[DW_OP_breg13 32]

        STR       A4, [SP, #12]         ; [DPU_V7M3_PIPE] |887| 
        STR       A3, [SP, #8]          ; [DPU_V7M3_PIPE] |887| 
        STR       A2, [SP, #4]          ; [DPU_V7M3_PIPE] |887| 
        STR       A1, [SP, #0]          ; [DPU_V7M3_PIPE] |887| 
	.dwpsn	file "../thirdparty/SEGGER/SEGGER/SEGGER_SYSVIEW.c",line 895,column 3,is_stmt,isa 1
        LDR       A1, [SP, #4]          ; [DPU_V7M3_PIPE] |895| 
        STR       A1, [SP, #24]         ; [DPU_V7M3_PIPE] |895| 
	.dwpsn	file "../thirdparty/SEGGER/SEGGER/SEGGER_SYSVIEW.c",line 896,column 3,is_stmt,isa 1
        MOVS      A1, #1                ; [DPU_V7M3_PIPE] |896| 
        STR       A1, [SP, #20]         ; [DPU_V7M3_PIPE] |896| 
	.dwpsn	file "../thirdparty/SEGGER/SEGGER/SEGGER_SYSVIEW.c",line 900,column 3,is_stmt,isa 1
        MOVS      A1, #1                ; [DPU_V7M3_PIPE] |900| 
        STR       A1, [SP, #28]         ; [DPU_V7M3_PIPE] |900| 
	.dwpsn	file "../thirdparty/SEGGER/SEGGER/SEGGER_SYSVIEW.c",line 901,column 10,is_stmt,isa 1
        LDR       A2, [SP, #24]         ; [DPU_V7M3_PIPE] |901| 
        LDR       A1, [SP, #8]          ; [DPU_V7M3_PIPE] |901| 
        CMP       A1, A2                ; [DPU_V7M3_PIPE] |901| 
        BHI       ||$C$L56||            ; [DPU_V7M3_PIPE] |901| 
        ; BRANCHCC OCCURS {||$C$L56||}   ; [] |901| 
;* --------------------------------------------------------------------------*
;*   BEGIN LOOP ||$C$L55||
;*
;*   Loop source line                : 901
;*   Loop closing brace source line  : 904
;*   Known Minimum Trip Count        : 1
;*   Known Maximum Trip Count        : 4294967295
;*   Known Max Trip Count Factor     : 1
;* --------------------------------------------------------------------------*
||$C$L55||:    
	.dwpsn	file "../thirdparty/SEGGER/SEGGER/SEGGER_SYSVIEW.c",line 902,column 5,is_stmt,isa 1
        LDR       A1, [SP, #8]          ; [DPU_V7M3_PIPE] |902| 
        LDR       A2, [SP, #24]         ; [DPU_V7M3_PIPE] |902| 
        UDIV      A1, A2, A1            ; [DPU_V7M3_PIPE] |902| 
        STR       A1, [SP, #24]         ; [DPU_V7M3_PIPE] |902| 
	.dwpsn	file "../thirdparty/SEGGER/SEGGER/SEGGER_SYSVIEW.c",line 903,column 5,is_stmt,isa 1
        LDR       A1, [SP, #28]         ; [DPU_V7M3_PIPE] |903| 
        ADDS      A1, A1, #1            ; [DPU_V7M3_PIPE] |903| 
        STR       A1, [SP, #28]         ; [DPU_V7M3_PIPE] |903| 
	.dwpsn	file "../thirdparty/SEGGER/SEGGER/SEGGER_SYSVIEW.c",line 901,column 10,is_stmt,isa 1
        LDR       A1, [SP, #8]          ; [DPU_V7M3_PIPE] |901| 
        LDR       A2, [SP, #24]         ; [DPU_V7M3_PIPE] |901| 
        CMP       A1, A2                ; [DPU_V7M3_PIPE] |901| 
        BLS       ||$C$L55||            ; [DPU_V7M3_PIPE] |901| 
        ; BRANCHCC OCCURS {||$C$L55||}   ; [] |901| 
;* --------------------------------------------------------------------------*
||$C$L56||:    
	.dwpsn	file "../thirdparty/SEGGER/SEGGER/SEGGER_SYSVIEW.c",line 905,column 3,is_stmt,isa 1
        LDR       A1, [SP, #28]         ; [DPU_V7M3_PIPE] |905| 
        LDR       A2, [SP, #12]         ; [DPU_V7M3_PIPE] |905| 
        CMP       A1, A2                ; [DPU_V7M3_PIPE] |905| 
        BCS       ||$C$L57||            ; [DPU_V7M3_PIPE] |905| 
        ; BRANCHCC OCCURS {||$C$L57||}   ; [] |905| 
;* --------------------------------------------------------------------------*
	.dwpsn	file "../thirdparty/SEGGER/SEGGER/SEGGER_SYSVIEW.c",line 906,column 5,is_stmt,isa 1
        LDR       A1, [SP, #12]         ; [DPU_V7M3_PIPE] |906| 
        STR       A1, [SP, #28]         ; [DPU_V7M3_PIPE] |906| 
;* --------------------------------------------------------------------------*
||$C$L57||:    
	.dwpsn	file "../thirdparty/SEGGER/SEGGER/SEGGER_SYSVIEW.c",line 911,column 3,is_stmt,isa 1
        LDR       A1, [SP, #44]         ; [DPU_V7M3_PIPE] |911| 
        LSRS      A1, A1, #1            ; [DPU_V7M3_PIPE] |911| 
        BCS       ||$C$L61||            ; [DPU_V7M3_PIPE] |911| 
        ; BRANCHCC OCCURS {||$C$L61||}   ; [] |911| 
;* --------------------------------------------------------------------------*
	.dwpsn	file "../thirdparty/SEGGER/SEGGER/SEGGER_SYSVIEW.c",line 912,column 5,is_stmt,isa 1
        LDR       A1, [SP, #40]         ; [DPU_V7M3_PIPE] |912| 
        CBZ       A1, ||$C$L61||        ; [] 
        ; BRANCHCC OCCURS {||$C$L61||}   ; [] |912| 
;* --------------------------------------------------------------------------*
	.dwpsn	file "../thirdparty/SEGGER/SEGGER/SEGGER_SYSVIEW.c",line 913,column 7,is_stmt,isa 1
        LDR       A1, [SP, #44]         ; [DPU_V7M3_PIPE] |913| 
        LSRS      A1, A1, #2            ; [DPU_V7M3_PIPE] |913| 
        BCC       ||$C$L58||            ; [DPU_V7M3_PIPE] |913| 
        ; BRANCHCC OCCURS {||$C$L58||}   ; [] |913| 
;* --------------------------------------------------------------------------*
        LDR       A1, [SP, #12]         ; [DPU_V7M3_PIPE] |913| 
        CBNZ      A1, ||$C$L58||        ; [] 
        ; BRANCHCC OCCURS {||$C$L58||}   ; [] |913| 
;* --------------------------------------------------------------------------*
	.dwpsn	file "../thirdparty/SEGGER/SEGGER/SEGGER_SYSVIEW.c",line 914,column 9,is_stmt,isa 1
        MOVS      A1, #48               ; [DPU_V7M3_PIPE] |914| 
        STRB      A1, [SP, #32]         ; [DPU_V7M3_PIPE] |914| 
	.dwpsn	file "../thirdparty/SEGGER/SEGGER/SEGGER_SYSVIEW.c",line 915,column 7,is_stmt,isa 1
        B         ||$C$L60||            ; [DPU_V7M3_PIPE] |915| 
        ; BRANCH OCCURS {||$C$L60||}     ; [] |915| 
;* --------------------------------------------------------------------------*
||$C$L58||:    
	.dwpsn	file "../thirdparty/SEGGER/SEGGER/SEGGER_SYSVIEW.c",line 916,column 9,is_stmt,isa 1
        MOVS      A1, #32               ; [DPU_V7M3_PIPE] |916| 
        STRB      A1, [SP, #32]         ; [DPU_V7M3_PIPE] |916| 
	.dwpsn	file "../thirdparty/SEGGER/SEGGER/SEGGER_SYSVIEW.c",line 918,column 7,is_stmt,isa 1
        B         ||$C$L60||            ; [DPU_V7M3_PIPE] |918| 
        ; BRANCH OCCURS {||$C$L60||}     ; [] |918| 
;* --------------------------------------------------------------------------*
||$C$L59||:    
	.dwpsn	file "../thirdparty/SEGGER/SEGGER/SEGGER_SYSVIEW.c",line 919,column 9,is_stmt,isa 1
        LDR       A1, [SP, #40]         ; [DPU_V7M3_PIPE] |919| 
        SUBS      A1, A1, #1            ; [DPU_V7M3_PIPE] |919| 
        STR       A1, [SP, #40]         ; [DPU_V7M3_PIPE] |919| 
	.dwpsn	file "../thirdparty/SEGGER/SEGGER/SEGGER_SYSVIEW.c",line 920,column 9,is_stmt,isa 1
        LDRB      A2, [SP, #32]         ; [DPU_V7M3_PIPE] |920| 
        LDR       A1, [SP, #0]          ; [DPU_V7M3_PIPE] |920| 
$C$DW$167	.dwtag  DW_TAG_TI_branch
	.dwattr $C$DW$167, DW_AT_low_pc(0x00)
	.dwattr $C$DW$167, DW_AT_name("_StoreChar")
	.dwattr $C$DW$167, DW_AT_TI_call

        BL        _StoreChar            ; [DPU_V7M3_PIPE] |920| 
        ; CALL OCCURS {_StoreChar }      ; [] |920| 
;* --------------------------------------------------------------------------*
;*   BEGIN LOOP ||$C$L60||
;* --------------------------------------------------------------------------*
||$C$L60||:    
	.dwpsn	file "../thirdparty/SEGGER/SEGGER/SEGGER_SYSVIEW.c",line 918,column 14,is_stmt,isa 1
        LDR       A1, [SP, #40]         ; [DPU_V7M3_PIPE] |918| 
        CBZ       A1, ||$C$L61||        ; [] 
        ; BRANCHCC OCCURS {||$C$L61||}   ; [] |918| 
;* --------------------------------------------------------------------------*
        LDR       A1, [SP, #40]         ; [DPU_V7M3_PIPE] |918| 
        LDR       A2, [SP, #28]         ; [DPU_V7M3_PIPE] |918| 
        CMP       A1, A2                ; [DPU_V7M3_PIPE] |918| 
        BHI       ||$C$L59||            ; [DPU_V7M3_PIPE] |918| 
        ; BRANCHCC OCCURS {||$C$L59||}   ; [] |918| 
;* --------------------------------------------------------------------------*
||$C$L61||:    
	.dwpsn	file "../thirdparty/SEGGER/SEGGER/SEGGER_SYSVIEW.c",line 929,column 10,is_stmt,isa 1
;* --------------------------------------------------------------------------*
;*   BEGIN LOOP ||$C$L62||
;*
;*   Loop source line                : 929
;*   Loop closing brace source line  : 939
;*   Known Minimum Trip Count        : 1
;*   Known Maximum Trip Count        : 4294967295
;*   Known Max Trip Count Factor     : 1
;* --------------------------------------------------------------------------*
||$C$L62||:    
	.dwpsn	file "../thirdparty/SEGGER/SEGGER/SEGGER_SYSVIEW.c",line 930,column 5,is_stmt,isa 1
        LDR       A1, [SP, #12]         ; [DPU_V7M3_PIPE] |930| 
        CMP       A1, #1                ; [DPU_V7M3_PIPE] |930| 
        BLS       ||$C$L63||            ; [DPU_V7M3_PIPE] |930| 
        ; BRANCHCC OCCURS {||$C$L63||}   ; [] |930| 
;* --------------------------------------------------------------------------*
	.dwpsn	file "../thirdparty/SEGGER/SEGGER/SEGGER_SYSVIEW.c",line 931,column 7,is_stmt,isa 1
        LDR       A1, [SP, #12]         ; [DPU_V7M3_PIPE] |931| 
        SUBS      A1, A1, #1            ; [DPU_V7M3_PIPE] |931| 
        STR       A1, [SP, #12]         ; [DPU_V7M3_PIPE] |931| 
	.dwpsn	file "../thirdparty/SEGGER/SEGGER/SEGGER_SYSVIEW.c",line 932,column 5,is_stmt,isa 1
        B         ||$C$L64||            ; [DPU_V7M3_PIPE] |932| 
        ; BRANCH OCCURS {||$C$L64||}     ; [] |932| 
;* --------------------------------------------------------------------------*
||$C$L63||:    
	.dwpsn	file "../thirdparty/SEGGER/SEGGER/SEGGER_SYSVIEW.c",line 933,column 7,is_stmt,isa 1
        LDR       A1, [SP, #20]         ; [DPU_V7M3_PIPE] |933| 
        LDR       A2, [SP, #4]          ; [DPU_V7M3_PIPE] |933| 
        UDIV      A1, A2, A1            ; [DPU_V7M3_PIPE] |933| 
        STR       A1, [SP, #16]         ; [DPU_V7M3_PIPE] |933| 
	.dwpsn	file "../thirdparty/SEGGER/SEGGER/SEGGER_SYSVIEW.c",line 934,column 7,is_stmt,isa 1
        LDR       A1, [SP, #8]          ; [DPU_V7M3_PIPE] |934| 
        LDR       A2, [SP, #16]         ; [DPU_V7M3_PIPE] |934| 
        CMP       A1, A2                ; [DPU_V7M3_PIPE] |934| 
        BHI       ||$C$L65||            ; [DPU_V7M3_PIPE] |934| 
        ; BRANCHCC OCCURS {||$C$L65||}   ; [] |934| 
;* --------------------------------------------------------------------------*
	.dwpsn	file "../thirdparty/SEGGER/SEGGER/SEGGER_SYSVIEW.c",line 935,column 9,is_stmt,isa 1
;* --------------------------------------------------------------------------*
||$C$L64||:    
	.dwpsn	file "../thirdparty/SEGGER/SEGGER/SEGGER_SYSVIEW.c",line 938,column 5,is_stmt,isa 1
        LDR       A2, [SP, #20]         ; [DPU_V7M3_PIPE] |938| 
        LDR       A1, [SP, #8]          ; [DPU_V7M3_PIPE] |938| 
        MULS      A1, A1, A2            ; [DPU_V7M3_PIPE] |938| 
        STR       A1, [SP, #20]         ; [DPU_V7M3_PIPE] |938| 
	.dwpsn	file "../thirdparty/SEGGER/SEGGER/SEGGER_SYSVIEW.c",line 929,column 10,is_stmt,isa 1
        B         ||$C$L62||            ; [DPU_V7M3_PIPE] |929| 
        ; BRANCH OCCURS {||$C$L62||}     ; [] |929| 
;* --------------------------------------------------------------------------*
;*   BEGIN LOOP ||$C$L65||
;*
;*   Loop source line                : 943
;*   Loop closing brace source line  : 948
;*   Known Minimum Trip Count        : 1
;*   Known Maximum Trip Count        : 4294967295
;*   Known Max Trip Count Factor     : 1
;* --------------------------------------------------------------------------*
||$C$L65||:    
	.dwpsn	file "../thirdparty/SEGGER/SEGGER/SEGGER_SYSVIEW.c",line 944,column 5,is_stmt,isa 1
        LDR       A1, [SP, #20]         ; [DPU_V7M3_PIPE] |944| 
        LDR       A2, [SP, #4]          ; [DPU_V7M3_PIPE] |944| 
        UDIV      A1, A2, A1            ; [DPU_V7M3_PIPE] |944| 
        STR       A1, [SP, #16]         ; [DPU_V7M3_PIPE] |944| 
	.dwpsn	file "../thirdparty/SEGGER/SEGGER/SEGGER_SYSVIEW.c",line 945,column 5,is_stmt,isa 1
        LDR       A3, [SP, #4]          ; [DPU_V7M3_PIPE] |945| 
        LDR       A2, [SP, #20]         ; [DPU_V7M3_PIPE] |945| 
        LDR       A1, [SP, #16]         ; [DPU_V7M3_PIPE] |945| 
        MLS       A1, A2, A1, A3        ; [DPU_V7M3_PIPE] |945| 
        STR       A1, [SP, #4]          ; [DPU_V7M3_PIPE] |945| 
	.dwpsn	file "../thirdparty/SEGGER/SEGGER/SEGGER_SYSVIEW.c",line 946,column 5,is_stmt,isa 1
        LDR       A2, $C$CON10          ; [DPU_V7M3_PIPE] |946| 
        LDR       A1, [SP, #16]         ; [DPU_V7M3_PIPE] |946| 
        LDRB      A2, [A2, +A1]         ; [DPU_V7M3_PIPE] |946| 
        LDR       A1, [SP, #0]          ; [DPU_V7M3_PIPE] |946| 
$C$DW$168	.dwtag  DW_TAG_TI_branch
	.dwattr $C$DW$168, DW_AT_low_pc(0x00)
	.dwattr $C$DW$168, DW_AT_name("_StoreChar")
	.dwattr $C$DW$168, DW_AT_TI_call

        BL        _StoreChar            ; [DPU_V7M3_PIPE] |946| 
        ; CALL OCCURS {_StoreChar }      ; [] |946| 
	.dwpsn	file "../thirdparty/SEGGER/SEGGER/SEGGER_SYSVIEW.c",line 947,column 5,is_stmt,isa 1
        LDR       A1, [SP, #8]          ; [DPU_V7M3_PIPE] |947| 
        LDR       A2, [SP, #20]         ; [DPU_V7M3_PIPE] |947| 
        UDIV      A1, A2, A1            ; [DPU_V7M3_PIPE] |947| 
        STR       A1, [SP, #20]         ; [DPU_V7M3_PIPE] |947| 
	.dwpsn	file "../thirdparty/SEGGER/SEGGER/SEGGER_SYSVIEW.c",line 943,column 3,is_stmt,isa 1
        LDR       A1, [SP, #20]         ; [DPU_V7M3_PIPE] |943| 
        CMP       A1, #0                ; [DPU_V7M3_PIPE] |943| 
        BNE       ||$C$L65||            ; [DPU_V7M3_PIPE] |943| 
        ; BRANCHCC OCCURS {||$C$L65||}   ; [] |943| 
;* --------------------------------------------------------------------------*
	.dwpsn	file "../thirdparty/SEGGER/SEGGER/SEGGER_SYSVIEW.c",line 952,column 3,is_stmt,isa 1
        LDR       A1, [SP, #44]         ; [DPU_V7M3_PIPE] |952| 
        LSRS      A1, A1, #1            ; [DPU_V7M3_PIPE] |952| 
        BCC       ||$C$L68||            ; [DPU_V7M3_PIPE] |952| 
        ; BRANCHCC OCCURS {||$C$L68||}   ; [] |952| 
;* --------------------------------------------------------------------------*
	.dwpsn	file "../thirdparty/SEGGER/SEGGER/SEGGER_SYSVIEW.c",line 953,column 5,is_stmt,isa 1
        LDR       A1, [SP, #40]         ; [DPU_V7M3_PIPE] |953| 
        CBZ       A1, ||$C$L68||        ; [] 
        ; BRANCHCC OCCURS {||$C$L68||}   ; [] |953| 
;* --------------------------------------------------------------------------*
	.dwpsn	file "../thirdparty/SEGGER/SEGGER/SEGGER_SYSVIEW.c",line 954,column 7,is_stmt,isa 1
        B         ||$C$L67||            ; [DPU_V7M3_PIPE] |954| 
        ; BRANCH OCCURS {||$C$L67||}     ; [] |954| 
;* --------------------------------------------------------------------------*
||$C$L66||:    
	.dwpsn	file "../thirdparty/SEGGER/SEGGER/SEGGER_SYSVIEW.c",line 955,column 9,is_stmt,isa 1
        LDR       A1, [SP, #40]         ; [DPU_V7M3_PIPE] |955| 
        SUBS      A1, A1, #1            ; [DPU_V7M3_PIPE] |955| 
        STR       A1, [SP, #40]         ; [DPU_V7M3_PIPE] |955| 
	.dwpsn	file "../thirdparty/SEGGER/SEGGER/SEGGER_SYSVIEW.c",line 956,column 9,is_stmt,isa 1
        LDR       A1, [SP, #0]          ; [DPU_V7M3_PIPE] |956| 
        MOVS      A2, #32               ; [DPU_V7M3_PIPE] |956| 
$C$DW$169	.dwtag  DW_TAG_TI_branch
	.dwattr $C$DW$169, DW_AT_low_pc(0x00)
	.dwattr $C$DW$169, DW_AT_name("_StoreChar")
	.dwattr $C$DW$169, DW_AT_TI_call

        BL        _StoreChar            ; [DPU_V7M3_PIPE] |956| 
        ; CALL OCCURS {_StoreChar }      ; [] |956| 
;* --------------------------------------------------------------------------*
;*   BEGIN LOOP ||$C$L67||
;* --------------------------------------------------------------------------*
||$C$L67||:    
	.dwpsn	file "../thirdparty/SEGGER/SEGGER/SEGGER_SYSVIEW.c",line 954,column 14,is_stmt,isa 1
        LDR       A1, [SP, #40]         ; [DPU_V7M3_PIPE] |954| 
        CBZ       A1, ||$C$L68||        ; [] 
        ; BRANCHCC OCCURS {||$C$L68||}   ; [] |954| 
;* --------------------------------------------------------------------------*
        LDR       A1, [SP, #40]         ; [DPU_V7M3_PIPE] |954| 
        LDR       A2, [SP, #28]         ; [DPU_V7M3_PIPE] |954| 
        CMP       A1, A2                ; [DPU_V7M3_PIPE] |954| 
        BHI       ||$C$L66||            ; [DPU_V7M3_PIPE] |954| 
        ; BRANCHCC OCCURS {||$C$L66||}   ; [] |954| 
;* --------------------------------------------------------------------------*
	.dwpsn	file "../thirdparty/SEGGER/SEGGER/SEGGER_SYSVIEW.c",line 960,column 1,is_stmt,isa 1
;* --------------------------------------------------------------------------*
||$C$L68||:    
        ADD       SP, SP, #36           ; [DPU_V7M3_PIPE] 
	.dwcfi	cfa_offset, 4
$C$DW$170	.dwtag  DW_TAG_TI_branch
	.dwattr $C$DW$170, DW_AT_low_pc(0x00)
	.dwattr $C$DW$170, DW_AT_TI_return

        POP       {PC}                  ; [DPU_V7M3_PIPE] 
	.dwcfi	cfa_offset, 0
        ; BRANCH OCCURS                  ; [] 
	.dwattr $C$DW$150, DW_AT_TI_end_file("../thirdparty/SEGGER/SEGGER/SEGGER_SYSVIEW.c")
	.dwattr $C$DW$150, DW_AT_TI_end_line(0x3c0)
	.dwattr $C$DW$150, DW_AT_TI_end_column(0x01)
	.dwendentry
	.dwendtag $C$DW$150

	.sect	".text"
	.clink
	.thumbfunc _PrintInt
	.thumb

$C$DW$171	.dwtag  DW_TAG_subprogram
	.dwattr $C$DW$171, DW_AT_name("_PrintInt")
	.dwattr $C$DW$171, DW_AT_low_pc(_PrintInt)
	.dwattr $C$DW$171, DW_AT_high_pc(0x00)
	.dwattr $C$DW$171, DW_AT_TI_symbol_name("_PrintInt")
	.dwattr $C$DW$171, DW_AT_TI_begin_file("../thirdparty/SEGGER/SEGGER/SEGGER_SYSVIEW.c")
	.dwattr $C$DW$171, DW_AT_TI_begin_line(0x3d2)
	.dwattr $C$DW$171, DW_AT_TI_begin_column(0x0d)
	.dwattr $C$DW$171, DW_AT_decl_file("../thirdparty/SEGGER/SEGGER/SEGGER_SYSVIEW.c")
	.dwattr $C$DW$171, DW_AT_decl_line(0x3d2)
	.dwattr $C$DW$171, DW_AT_decl_column(0x0d)
	.dwattr $C$DW$171, DW_AT_TI_max_frame_size(0x28)
	.dwpsn	file "../thirdparty/SEGGER/SEGGER/SEGGER_SYSVIEW.c",line 978,column 166,is_stmt,address _PrintInt,isa 1

	.dwfde $C$DW$CIE, _PrintInt
$C$DW$172	.dwtag  DW_TAG_formal_parameter
	.dwattr $C$DW$172, DW_AT_name("pBufferDesc")
	.dwattr $C$DW$172, DW_AT_TI_symbol_name("pBufferDesc")
	.dwattr $C$DW$172, DW_AT_type(*$C$DW$T$88)
	.dwattr $C$DW$172, DW_AT_location[DW_OP_reg0]

$C$DW$173	.dwtag  DW_TAG_formal_parameter
	.dwattr $C$DW$173, DW_AT_name("v")
	.dwattr $C$DW$173, DW_AT_TI_symbol_name("v")
	.dwattr $C$DW$173, DW_AT_type(*$C$DW$T$10)
	.dwattr $C$DW$173, DW_AT_location[DW_OP_reg1]

$C$DW$174	.dwtag  DW_TAG_formal_parameter
	.dwattr $C$DW$174, DW_AT_name("Base")
	.dwattr $C$DW$174, DW_AT_TI_symbol_name("Base")
	.dwattr $C$DW$174, DW_AT_type(*$C$DW$T$11)
	.dwattr $C$DW$174, DW_AT_location[DW_OP_reg2]

$C$DW$175	.dwtag  DW_TAG_formal_parameter
	.dwattr $C$DW$175, DW_AT_name("NumDigits")
	.dwattr $C$DW$175, DW_AT_TI_symbol_name("NumDigits")
	.dwattr $C$DW$175, DW_AT_type(*$C$DW$T$11)
	.dwattr $C$DW$175, DW_AT_location[DW_OP_reg3]

$C$DW$176	.dwtag  DW_TAG_formal_parameter
	.dwattr $C$DW$176, DW_AT_name("FieldWidth")
	.dwattr $C$DW$176, DW_AT_TI_symbol_name("FieldWidth")
	.dwattr $C$DW$176, DW_AT_type(*$C$DW$T$11)
	.dwattr $C$DW$176, DW_AT_location[DW_OP_breg13 40]

$C$DW$177	.dwtag  DW_TAG_formal_parameter
	.dwattr $C$DW$177, DW_AT_name("FormatFlags")
	.dwattr $C$DW$177, DW_AT_TI_symbol_name("FormatFlags")
	.dwattr $C$DW$177, DW_AT_type(*$C$DW$T$11)
	.dwattr $C$DW$177, DW_AT_location[DW_OP_breg13 44]


;*****************************************************************************
;* FUNCTION NAME: _PrintInt                                                  *
;*                                                                           *
;*   Regs Modified     : A1,A2,A3,A4,V9,SP,LR,SR,D0,D0_hi,D1,D1_hi,D2,D2_hi, *
;*                           D3,D3_hi,D4,D4_hi,D5,D5_hi,D6,D6_hi,D7,D7_hi,   *
;*                           FPEXC,FPSCR                                     *
;*   Regs Used         : A1,A2,A3,A4,V9,SP,LR,SR,D0,D0_hi,D1,D1_hi,D2,D2_hi, *
;*                           D3,D3_hi,D4,D4_hi,D5,D5_hi,D6,D6_hi,D7,D7_hi,   *
;*                           FPEXC,FPSCR                                     *
;*   Local Frame Size  : 8 Args + 24 Auto + 4 Save = 36 byte                 *
;*****************************************************************************
_PrintInt:
;* --------------------------------------------------------------------------*
	.dwcfi	cfa_offset, 0
        PUSH      {LR}                  ; [DPU_V7M3_PIPE] 
	.dwcfi	cfa_offset, 4
	.dwcfi	save_reg_to_mem, 14, -4
        SUB       SP, SP, #36           ; [DPU_V7M3_PIPE] 
	.dwcfi	cfa_offset, 40
$C$DW$178	.dwtag  DW_TAG_variable
	.dwattr $C$DW$178, DW_AT_name("pBufferDesc")
	.dwattr $C$DW$178, DW_AT_TI_symbol_name("pBufferDesc")
	.dwattr $C$DW$178, DW_AT_type(*$C$DW$T$88)
	.dwattr $C$DW$178, DW_AT_location[DW_OP_breg13 8]

$C$DW$179	.dwtag  DW_TAG_variable
	.dwattr $C$DW$179, DW_AT_name("v")
	.dwattr $C$DW$179, DW_AT_TI_symbol_name("v")
	.dwattr $C$DW$179, DW_AT_type(*$C$DW$T$10)
	.dwattr $C$DW$179, DW_AT_location[DW_OP_breg13 12]

$C$DW$180	.dwtag  DW_TAG_variable
	.dwattr $C$DW$180, DW_AT_name("Base")
	.dwattr $C$DW$180, DW_AT_TI_symbol_name("Base")
	.dwattr $C$DW$180, DW_AT_type(*$C$DW$T$11)
	.dwattr $C$DW$180, DW_AT_location[DW_OP_breg13 16]

$C$DW$181	.dwtag  DW_TAG_variable
	.dwattr $C$DW$181, DW_AT_name("NumDigits")
	.dwattr $C$DW$181, DW_AT_TI_symbol_name("NumDigits")
	.dwattr $C$DW$181, DW_AT_type(*$C$DW$T$11)
	.dwattr $C$DW$181, DW_AT_location[DW_OP_breg13 20]

$C$DW$182	.dwtag  DW_TAG_variable
	.dwattr $C$DW$182, DW_AT_name("Width")
	.dwattr $C$DW$182, DW_AT_TI_symbol_name("Width")
	.dwattr $C$DW$182, DW_AT_type(*$C$DW$T$11)
	.dwattr $C$DW$182, DW_AT_location[DW_OP_breg13 24]

$C$DW$183	.dwtag  DW_TAG_variable
	.dwattr $C$DW$183, DW_AT_name("Number")
	.dwattr $C$DW$183, DW_AT_TI_symbol_name("Number")
	.dwattr $C$DW$183, DW_AT_type(*$C$DW$T$10)
	.dwattr $C$DW$183, DW_AT_location[DW_OP_breg13 28]

        STR       A4, [SP, #20]         ; [DPU_V7M3_PIPE] |978| 
        STR       A3, [SP, #16]         ; [DPU_V7M3_PIPE] |978| 
        STR       A2, [SP, #12]         ; [DPU_V7M3_PIPE] |978| 
        STR       A1, [SP, #8]          ; [DPU_V7M3_PIPE] |978| 
	.dwpsn	file "../thirdparty/SEGGER/SEGGER/SEGGER_SYSVIEW.c",line 982,column 3,is_stmt,isa 1
        LDR       A1, [SP, #12]         ; [DPU_V7M3_PIPE] |982| 
        CMP       A1, #0                ; [DPU_V7M3_PIPE] |982| 
        BPL       ||$C$L69||            ; [DPU_V7M3_PIPE] |982| 
        ; BRANCHCC OCCURS {||$C$L69||}   ; [] |982| 
;* --------------------------------------------------------------------------*
        LDR       A1, [SP, #12]         ; [DPU_V7M3_PIPE] |982| 
        RSBS      A1, A1, #0            ; [DPU_V7M3_PIPE] |982| 
        B         ||$C$L70||            ; [DPU_V7M3_PIPE] |982| 
        ; BRANCH OCCURS {||$C$L70||}     ; [] |982| 
;* --------------------------------------------------------------------------*
||$C$L69||:    
        LDR       A1, [SP, #12]         ; [DPU_V7M3_PIPE] |982| 
;* --------------------------------------------------------------------------*
||$C$L70||:    
        STR       A1, [SP, #28]         ; [DPU_V7M3_PIPE] |982| 
	.dwpsn	file "../thirdparty/SEGGER/SEGGER/SEGGER_SYSVIEW.c",line 987,column 3,is_stmt,isa 1
        MOVS      A1, #1                ; [DPU_V7M3_PIPE] |987| 
        STR       A1, [SP, #24]         ; [DPU_V7M3_PIPE] |987| 
	.dwpsn	file "../thirdparty/SEGGER/SEGGER/SEGGER_SYSVIEW.c",line 988,column 10,is_stmt,isa 1
        LDR       A1, [SP, #16]         ; [DPU_V7M3_PIPE] |988| 
        LDR       A2, [SP, #28]         ; [DPU_V7M3_PIPE] |988| 
        CMP       A1, A2                ; [DPU_V7M3_PIPE] |988| 
        BGT       ||$C$L72||            ; [DPU_V7M3_PIPE] |988| 
        ; BRANCHCC OCCURS {||$C$L72||}   ; [] |988| 
;* --------------------------------------------------------------------------*
;*   BEGIN LOOP ||$C$L71||
;*
;*   Loop source line                : 988
;*   Loop closing brace source line  : 991
;*   Known Minimum Trip Count        : 1
;*   Known Maximum Trip Count        : 4294967295
;*   Known Max Trip Count Factor     : 1
;* --------------------------------------------------------------------------*
||$C$L71||:    
	.dwpsn	file "../thirdparty/SEGGER/SEGGER/SEGGER_SYSVIEW.c",line 989,column 5,is_stmt,isa 1
        LDR       A1, [SP, #16]         ; [DPU_V7M3_PIPE] |989| 
        LDR       A2, [SP, #28]         ; [DPU_V7M3_PIPE] |989| 
        SDIV      A1, A2, A1            ; [DPU_V7M3_PIPE] |989| 
        STR       A1, [SP, #28]         ; [DPU_V7M3_PIPE] |989| 
	.dwpsn	file "../thirdparty/SEGGER/SEGGER/SEGGER_SYSVIEW.c",line 990,column 5,is_stmt,isa 1
        LDR       A1, [SP, #24]         ; [DPU_V7M3_PIPE] |990| 
        ADDS      A1, A1, #1            ; [DPU_V7M3_PIPE] |990| 
        STR       A1, [SP, #24]         ; [DPU_V7M3_PIPE] |990| 
	.dwpsn	file "../thirdparty/SEGGER/SEGGER/SEGGER_SYSVIEW.c",line 988,column 10,is_stmt,isa 1
        LDR       A1, [SP, #16]         ; [DPU_V7M3_PIPE] |988| 
        LDR       A2, [SP, #28]         ; [DPU_V7M3_PIPE] |988| 
        CMP       A1, A2                ; [DPU_V7M3_PIPE] |988| 
        BLE       ||$C$L71||            ; [DPU_V7M3_PIPE] |988| 
        ; BRANCHCC OCCURS {||$C$L71||}   ; [] |988| 
;* --------------------------------------------------------------------------*
||$C$L72||:    
	.dwpsn	file "../thirdparty/SEGGER/SEGGER/SEGGER_SYSVIEW.c",line 992,column 3,is_stmt,isa 1
        LDR       A1, [SP, #24]         ; [DPU_V7M3_PIPE] |992| 
        LDR       A2, [SP, #20]         ; [DPU_V7M3_PIPE] |992| 
        CMP       A1, A2                ; [DPU_V7M3_PIPE] |992| 
        BCS       ||$C$L73||            ; [DPU_V7M3_PIPE] |992| 
        ; BRANCHCC OCCURS {||$C$L73||}   ; [] |992| 
;* --------------------------------------------------------------------------*
	.dwpsn	file "../thirdparty/SEGGER/SEGGER/SEGGER_SYSVIEW.c",line 993,column 5,is_stmt,isa 1
        LDR       A1, [SP, #20]         ; [DPU_V7M3_PIPE] |993| 
        STR       A1, [SP, #24]         ; [DPU_V7M3_PIPE] |993| 
;* --------------------------------------------------------------------------*
||$C$L73||:    
	.dwpsn	file "../thirdparty/SEGGER/SEGGER/SEGGER_SYSVIEW.c",line 995,column 3,is_stmt,isa 1
        LDR       A1, [SP, #40]         ; [DPU_V7M3_PIPE] |995| 
        CBZ       A1, ||$C$L75||        ; [] 
        ; BRANCHCC OCCURS {||$C$L75||}   ; [] |995| 
;* --------------------------------------------------------------------------*
        LDR       A1, [SP, #12]         ; [DPU_V7M3_PIPE] |995| 
        CMP       A1, #0                ; [DPU_V7M3_PIPE] |995| 
        BMI       ||$C$L74||            ; [DPU_V7M3_PIPE] |995| 
        ; BRANCHCC OCCURS {||$C$L74||}   ; [] |995| 
;* --------------------------------------------------------------------------*
        LDR       A1, [SP, #44]         ; [DPU_V7M3_PIPE] |995| 
        LSRS      A1, A1, #3            ; [DPU_V7M3_PIPE] |995| 
        BCC       ||$C$L75||            ; [DPU_V7M3_PIPE] |995| 
        ; BRANCHCC OCCURS {||$C$L75||}   ; [] |995| 
;* --------------------------------------------------------------------------*
||$C$L74||:    
	.dwpsn	file "../thirdparty/SEGGER/SEGGER/SEGGER_SYSVIEW.c",line 996,column 5,is_stmt,isa 1
        LDR       A1, [SP, #40]         ; [DPU_V7M3_PIPE] |996| 
        SUBS      A1, A1, #1            ; [DPU_V7M3_PIPE] |996| 
        STR       A1, [SP, #40]         ; [DPU_V7M3_PIPE] |996| 
;* --------------------------------------------------------------------------*
||$C$L75||:    
	.dwpsn	file "../thirdparty/SEGGER/SEGGER/SEGGER_SYSVIEW.c",line 1002,column 3,is_stmt,isa 1
        LDR       A1, [SP, #44]         ; [DPU_V7M3_PIPE] |1002| 
        LSRS      A1, A1, #2            ; [DPU_V7M3_PIPE] |1002| 
        BCC       ||$C$L76||            ; [DPU_V7M3_PIPE] |1002| 
        ; BRANCHCC OCCURS {||$C$L76||}   ; [] |1002| 
;* --------------------------------------------------------------------------*
        LDR       A1, [SP, #20]         ; [DPU_V7M3_PIPE] |1002| 
        CBZ       A1, ||$C$L79||        ; [] 
        ; BRANCHCC OCCURS {||$C$L79||}   ; [] |1002| 
;* --------------------------------------------------------------------------*
||$C$L76||:    
        LDR       A1, [SP, #44]         ; [DPU_V7M3_PIPE] |1002| 
        LSRS      A1, A1, #1            ; [DPU_V7M3_PIPE] |1002| 
        BCS       ||$C$L79||            ; [DPU_V7M3_PIPE] |1002| 
        ; BRANCHCC OCCURS {||$C$L79||}   ; [] |1002| 
;* --------------------------------------------------------------------------*
	.dwpsn	file "../thirdparty/SEGGER/SEGGER/SEGGER_SYSVIEW.c",line 1003,column 5,is_stmt,isa 1
        LDR       A1, [SP, #40]         ; [DPU_V7M3_PIPE] |1003| 
        CBZ       A1, ||$C$L79||        ; [] 
        ; BRANCHCC OCCURS {||$C$L79||}   ; [] |1003| 
;* --------------------------------------------------------------------------*
	.dwpsn	file "../thirdparty/SEGGER/SEGGER/SEGGER_SYSVIEW.c",line 1004,column 7,is_stmt,isa 1
        B         ||$C$L78||            ; [DPU_V7M3_PIPE] |1004| 
        ; BRANCH OCCURS {||$C$L78||}     ; [] |1004| 
;* --------------------------------------------------------------------------*
||$C$L77||:    
	.dwpsn	file "../thirdparty/SEGGER/SEGGER/SEGGER_SYSVIEW.c",line 1005,column 9,is_stmt,isa 1
        LDR       A1, [SP, #40]         ; [DPU_V7M3_PIPE] |1005| 
        SUBS      A1, A1, #1            ; [DPU_V7M3_PIPE] |1005| 
        STR       A1, [SP, #40]         ; [DPU_V7M3_PIPE] |1005| 
	.dwpsn	file "../thirdparty/SEGGER/SEGGER/SEGGER_SYSVIEW.c",line 1006,column 9,is_stmt,isa 1
        LDR       A1, [SP, #8]          ; [DPU_V7M3_PIPE] |1006| 
        MOVS      A2, #32               ; [DPU_V7M3_PIPE] |1006| 
$C$DW$184	.dwtag  DW_TAG_TI_branch
	.dwattr $C$DW$184, DW_AT_low_pc(0x00)
	.dwattr $C$DW$184, DW_AT_name("_StoreChar")
	.dwattr $C$DW$184, DW_AT_TI_call

        BL        _StoreChar            ; [DPU_V7M3_PIPE] |1006| 
        ; CALL OCCURS {_StoreChar }      ; [] |1006| 
;* --------------------------------------------------------------------------*
;*   BEGIN LOOP ||$C$L78||
;* --------------------------------------------------------------------------*
||$C$L78||:    
	.dwpsn	file "../thirdparty/SEGGER/SEGGER/SEGGER_SYSVIEW.c",line 1004,column 14,is_stmt,isa 1
        LDR       A1, [SP, #40]         ; [DPU_V7M3_PIPE] |1004| 
        CBZ       A1, ||$C$L79||        ; [] 
        ; BRANCHCC OCCURS {||$C$L79||}   ; [] |1004| 
;* --------------------------------------------------------------------------*
        LDR       A1, [SP, #40]         ; [DPU_V7M3_PIPE] |1004| 
        LDR       A2, [SP, #24]         ; [DPU_V7M3_PIPE] |1004| 
        CMP       A1, A2                ; [DPU_V7M3_PIPE] |1004| 
        BHI       ||$C$L77||            ; [DPU_V7M3_PIPE] |1004| 
        ; BRANCHCC OCCURS {||$C$L77||}   ; [] |1004| 
;* --------------------------------------------------------------------------*
||$C$L79||:    
	.dwpsn	file "../thirdparty/SEGGER/SEGGER/SEGGER_SYSVIEW.c",line 1013,column 3,is_stmt,isa 1
        LDR       A1, [SP, #12]         ; [DPU_V7M3_PIPE] |1013| 
        CMP       A1, #0                ; [DPU_V7M3_PIPE] |1013| 
        BPL       ||$C$L80||            ; [DPU_V7M3_PIPE] |1013| 
        ; BRANCHCC OCCURS {||$C$L80||}   ; [] |1013| 
;* --------------------------------------------------------------------------*
	.dwpsn	file "../thirdparty/SEGGER/SEGGER/SEGGER_SYSVIEW.c",line 1014,column 5,is_stmt,isa 1
        LDR       A1, [SP, #12]         ; [DPU_V7M3_PIPE] |1014| 
        RSBS      A1, A1, #0            ; [DPU_V7M3_PIPE] |1014| 
        STR       A1, [SP, #12]         ; [DPU_V7M3_PIPE] |1014| 
	.dwpsn	file "../thirdparty/SEGGER/SEGGER/SEGGER_SYSVIEW.c",line 1015,column 5,is_stmt,isa 1
        LDR       A1, [SP, #8]          ; [DPU_V7M3_PIPE] |1015| 
        MOVS      A2, #45               ; [DPU_V7M3_PIPE] |1015| 
$C$DW$185	.dwtag  DW_TAG_TI_branch
	.dwattr $C$DW$185, DW_AT_low_pc(0x00)
	.dwattr $C$DW$185, DW_AT_name("_StoreChar")
	.dwattr $C$DW$185, DW_AT_TI_call

        BL        _StoreChar            ; [DPU_V7M3_PIPE] |1015| 
        ; CALL OCCURS {_StoreChar }      ; [] |1015| 
	.dwpsn	file "../thirdparty/SEGGER/SEGGER/SEGGER_SYSVIEW.c",line 1016,column 3,is_stmt,isa 1
        B         ||$C$L81||            ; [DPU_V7M3_PIPE] |1016| 
        ; BRANCH OCCURS {||$C$L81||}     ; [] |1016| 
;* --------------------------------------------------------------------------*
||$C$L80||:    
	.dwpsn	file "../thirdparty/SEGGER/SEGGER/SEGGER_SYSVIEW.c",line 1016,column 10,is_stmt,isa 1
        LDR       A1, [SP, #44]         ; [DPU_V7M3_PIPE] |1016| 
        LSRS      A1, A1, #3            ; [DPU_V7M3_PIPE] |1016| 
        BCC       ||$C$L81||            ; [DPU_V7M3_PIPE] |1016| 
        ; BRANCHCC OCCURS {||$C$L81||}   ; [] |1016| 
;* --------------------------------------------------------------------------*
	.dwpsn	file "../thirdparty/SEGGER/SEGGER/SEGGER_SYSVIEW.c",line 1017,column 5,is_stmt,isa 1
        LDR       A1, [SP, #8]          ; [DPU_V7M3_PIPE] |1017| 
        MOVS      A2, #43               ; [DPU_V7M3_PIPE] |1017| 
$C$DW$186	.dwtag  DW_TAG_TI_branch
	.dwattr $C$DW$186, DW_AT_low_pc(0x00)
	.dwattr $C$DW$186, DW_AT_name("_StoreChar")
	.dwattr $C$DW$186, DW_AT_TI_call

        BL        _StoreChar            ; [DPU_V7M3_PIPE] |1017| 
        ; CALL OCCURS {_StoreChar }      ; [] |1017| 
	.dwpsn	file "../thirdparty/SEGGER/SEGGER/SEGGER_SYSVIEW.c",line 1018,column 3,is_stmt,isa 1
;* --------------------------------------------------------------------------*
||$C$L81||:    
	.dwpsn	file "../thirdparty/SEGGER/SEGGER/SEGGER_SYSVIEW.c",line 1024,column 3,is_stmt,isa 1
        LDR       A1, [SP, #44]         ; [DPU_V7M3_PIPE] |1024| 
        LSRS      A1, A1, #2            ; [DPU_V7M3_PIPE] |1024| 
        BCC       ||$C$L84||            ; [DPU_V7M3_PIPE] |1024| 
        ; BRANCHCC OCCURS {||$C$L84||}   ; [] |1024| 
;* --------------------------------------------------------------------------*
        LDR       A1, [SP, #44]         ; [DPU_V7M3_PIPE] |1024| 
        LSRS      A1, A1, #1            ; [DPU_V7M3_PIPE] |1024| 
        BCS       ||$C$L84||            ; [DPU_V7M3_PIPE] |1024| 
        ; BRANCHCC OCCURS {||$C$L84||}   ; [] |1024| 
;* --------------------------------------------------------------------------*
        LDR       A1, [SP, #20]         ; [DPU_V7M3_PIPE] |1024| 
        CBNZ      A1, ||$C$L84||        ; [] 
        ; BRANCHCC OCCURS {||$C$L84||}   ; [] |1024| 
;* --------------------------------------------------------------------------*
	.dwpsn	file "../thirdparty/SEGGER/SEGGER/SEGGER_SYSVIEW.c",line 1025,column 5,is_stmt,isa 1
        LDR       A1, [SP, #40]         ; [DPU_V7M3_PIPE] |1025| 
        CBZ       A1, ||$C$L84||        ; [] 
        ; BRANCHCC OCCURS {||$C$L84||}   ; [] |1025| 
;* --------------------------------------------------------------------------*
	.dwpsn	file "../thirdparty/SEGGER/SEGGER/SEGGER_SYSVIEW.c",line 1026,column 7,is_stmt,isa 1
        B         ||$C$L83||            ; [DPU_V7M3_PIPE] |1026| 
        ; BRANCH OCCURS {||$C$L83||}     ; [] |1026| 
;* --------------------------------------------------------------------------*
||$C$L82||:    
	.dwpsn	file "../thirdparty/SEGGER/SEGGER/SEGGER_SYSVIEW.c",line 1027,column 9,is_stmt,isa 1
        LDR       A1, [SP, #40]         ; [DPU_V7M3_PIPE] |1027| 
        SUBS      A1, A1, #1            ; [DPU_V7M3_PIPE] |1027| 
        STR       A1, [SP, #40]         ; [DPU_V7M3_PIPE] |1027| 
	.dwpsn	file "../thirdparty/SEGGER/SEGGER/SEGGER_SYSVIEW.c",line 1028,column 9,is_stmt,isa 1
        LDR       A1, [SP, #8]          ; [DPU_V7M3_PIPE] |1028| 
        MOVS      A2, #48               ; [DPU_V7M3_PIPE] |1028| 
$C$DW$187	.dwtag  DW_TAG_TI_branch
	.dwattr $C$DW$187, DW_AT_low_pc(0x00)
	.dwattr $C$DW$187, DW_AT_name("_StoreChar")
	.dwattr $C$DW$187, DW_AT_TI_call

        BL        _StoreChar            ; [DPU_V7M3_PIPE] |1028| 
        ; CALL OCCURS {_StoreChar }      ; [] |1028| 
;* --------------------------------------------------------------------------*
;*   BEGIN LOOP ||$C$L83||
;* --------------------------------------------------------------------------*
||$C$L83||:    
	.dwpsn	file "../thirdparty/SEGGER/SEGGER/SEGGER_SYSVIEW.c",line 1026,column 14,is_stmt,isa 1
        LDR       A1, [SP, #40]         ; [DPU_V7M3_PIPE] |1026| 
        CBZ       A1, ||$C$L84||        ; [] 
        ; BRANCHCC OCCURS {||$C$L84||}   ; [] |1026| 
;* --------------------------------------------------------------------------*
        LDR       A1, [SP, #40]         ; [DPU_V7M3_PIPE] |1026| 
        LDR       A2, [SP, #24]         ; [DPU_V7M3_PIPE] |1026| 
        CMP       A1, A2                ; [DPU_V7M3_PIPE] |1026| 
        BHI       ||$C$L82||            ; [DPU_V7M3_PIPE] |1026| 
        ; BRANCHCC OCCURS {||$C$L82||}   ; [] |1026| 
;* --------------------------------------------------------------------------*
||$C$L84||:    
	.dwpsn	file "../thirdparty/SEGGER/SEGGER/SEGGER_SYSVIEW.c",line 1035,column 3,is_stmt,isa 1
        LDR       A1, [SP, #40]         ; [DPU_V7M3_PIPE] |1035| 
        STR       A1, [SP, #0]          ; [DPU_V7M3_PIPE] |1035| 
        LDR       A1, [SP, #44]         ; [DPU_V7M3_PIPE] |1035| 
        STR       A1, [SP, #4]          ; [DPU_V7M3_PIPE] |1035| 
        LDR       A2, [SP, #12]         ; [DPU_V7M3_PIPE] |1035| 
        LDR       A3, [SP, #16]         ; [DPU_V7M3_PIPE] |1035| 
        LDR       A4, [SP, #20]         ; [DPU_V7M3_PIPE] |1035| 
        LDR       A1, [SP, #8]          ; [DPU_V7M3_PIPE] |1035| 
$C$DW$188	.dwtag  DW_TAG_TI_branch
	.dwattr $C$DW$188, DW_AT_low_pc(0x00)
	.dwattr $C$DW$188, DW_AT_name("_PrintUnsigned")
	.dwattr $C$DW$188, DW_AT_TI_call

        BL        _PrintUnsigned        ; [DPU_V7M3_PIPE] |1035| 
        ; CALL OCCURS {_PrintUnsigned }  ; [] |1035| 
	.dwpsn	file "../thirdparty/SEGGER/SEGGER/SEGGER_SYSVIEW.c",line 1036,column 1,is_stmt,isa 1
        ADD       SP, SP, #36           ; [DPU_V7M3_PIPE] 
	.dwcfi	cfa_offset, 4
$C$DW$189	.dwtag  DW_TAG_TI_branch
	.dwattr $C$DW$189, DW_AT_low_pc(0x00)
	.dwattr $C$DW$189, DW_AT_TI_return

        POP       {PC}                  ; [DPU_V7M3_PIPE] 
	.dwcfi	cfa_offset, 0
        ; BRANCH OCCURS                  ; [] 
	.dwattr $C$DW$171, DW_AT_TI_end_file("../thirdparty/SEGGER/SEGGER/SEGGER_SYSVIEW.c")
	.dwattr $C$DW$171, DW_AT_TI_end_line(0x40c)
	.dwattr $C$DW$171, DW_AT_TI_end_column(0x01)
	.dwendentry
	.dwendtag $C$DW$171

;******************************************************************************
;* CONSTANT TABLE                                                             *
;******************************************************************************
	.sect	".text"
	.align	4
||$C$CON10||:	.bits	_aV2C$1,32
	.sect	".text"
	.clink
	.thumbfunc _VPrintTarget
	.thumb

$C$DW$190	.dwtag  DW_TAG_subprogram
	.dwattr $C$DW$190, DW_AT_name("_VPrintTarget")
	.dwattr $C$DW$190, DW_AT_low_pc(_VPrintTarget)
	.dwattr $C$DW$190, DW_AT_high_pc(0x00)
	.dwattr $C$DW$190, DW_AT_TI_symbol_name("_VPrintTarget")
	.dwattr $C$DW$190, DW_AT_TI_begin_file("../thirdparty/SEGGER/SEGGER/SEGGER_SYSVIEW.c")
	.dwattr $C$DW$190, DW_AT_TI_begin_line(0x41b)
	.dwattr $C$DW$190, DW_AT_TI_begin_column(0x0d)
	.dwattr $C$DW$190, DW_AT_decl_file("../thirdparty/SEGGER/SEGGER/SEGGER_SYSVIEW.c")
	.dwattr $C$DW$190, DW_AT_decl_line(0x41b)
	.dwattr $C$DW$190, DW_AT_decl_column(0x0d)
	.dwattr $C$DW$190, DW_AT_TI_max_frame_size(0x50)
	.dwpsn	file "../thirdparty/SEGGER/SEGGER/SEGGER_SYSVIEW.c",line 1051,column 82,is_stmt,address _VPrintTarget,isa 1

	.dwfde $C$DW$CIE, _VPrintTarget
$C$DW$191	.dwtag  DW_TAG_formal_parameter
	.dwattr $C$DW$191, DW_AT_name("sFormat")
	.dwattr $C$DW$191, DW_AT_TI_symbol_name("sFormat")
	.dwattr $C$DW$191, DW_AT_type(*$C$DW$T$30)
	.dwattr $C$DW$191, DW_AT_location[DW_OP_reg0]

$C$DW$192	.dwtag  DW_TAG_formal_parameter
	.dwattr $C$DW$192, DW_AT_name("Options")
	.dwattr $C$DW$192, DW_AT_TI_symbol_name("Options")
	.dwattr $C$DW$192, DW_AT_type(*$C$DW$T$13)
	.dwattr $C$DW$192, DW_AT_location[DW_OP_reg1]

$C$DW$193	.dwtag  DW_TAG_formal_parameter
	.dwattr $C$DW$193, DW_AT_name("pParamList")
	.dwattr $C$DW$193, DW_AT_TI_symbol_name("pParamList")
	.dwattr $C$DW$193, DW_AT_type(*$C$DW$T$73)
	.dwattr $C$DW$193, DW_AT_location[DW_OP_reg2]


;*****************************************************************************
;* FUNCTION NAME: _VPrintTarget                                              *
;*                                                                           *
;*   Regs Modified     : A1,A2,A3,A4,V9,SP,LR,SR,D0,D0_hi,D1,D1_hi,D2,D2_hi, *
;*                           D3,D3_hi,D4,D4_hi,D5,D5_hi,D6,D6_hi,D7,D7_hi,   *
;*                           FPEXC,FPSCR                                     *
;*   Regs Used         : A1,A2,A3,A4,V9,SP,LR,SR,D0,D0_hi,D1,D1_hi,D2,D2_hi, *
;*                           D3,D3_hi,D4,D4_hi,D5,D5_hi,D6,D6_hi,D7,D7_hi,   *
;*                           FPEXC,FPSCR                                     *
;*   Local Frame Size  : 8 Args + 68 Auto + 4 Save = 80 byte                 *
;*****************************************************************************
_VPrintTarget:
;* --------------------------------------------------------------------------*
	.dwcfi	cfa_offset, 0
        PUSH      {LR}                  ; [DPU_V7M3_PIPE] 
	.dwcfi	cfa_offset, 4
	.dwcfi	save_reg_to_mem, 14, -4
        SUB       SP, SP, #76           ; [DPU_V7M3_PIPE] 
	.dwcfi	cfa_offset, 80
$C$DW$194	.dwtag  DW_TAG_variable
	.dwattr $C$DW$194, DW_AT_name("BufferDesc")
	.dwattr $C$DW$194, DW_AT_TI_symbol_name("BufferDesc")
	.dwattr $C$DW$194, DW_AT_type(*$C$DW$T$87)
	.dwattr $C$DW$194, DW_AT_location[DW_OP_breg13 8]

$C$DW$195	.dwtag  DW_TAG_variable
	.dwattr $C$DW$195, DW_AT_name("sFormat")
	.dwattr $C$DW$195, DW_AT_TI_symbol_name("sFormat")
	.dwattr $C$DW$195, DW_AT_type(*$C$DW$T$30)
	.dwattr $C$DW$195, DW_AT_location[DW_OP_breg13 28]

$C$DW$196	.dwtag  DW_TAG_variable
	.dwattr $C$DW$196, DW_AT_name("Options")
	.dwattr $C$DW$196, DW_AT_TI_symbol_name("Options")
	.dwattr $C$DW$196, DW_AT_type(*$C$DW$T$13)
	.dwattr $C$DW$196, DW_AT_location[DW_OP_breg13 32]

$C$DW$197	.dwtag  DW_TAG_variable
	.dwattr $C$DW$197, DW_AT_name("pParamList")
	.dwattr $C$DW$197, DW_AT_TI_symbol_name("pParamList")
	.dwattr $C$DW$197, DW_AT_type(*$C$DW$T$73)
	.dwattr $C$DW$197, DW_AT_location[DW_OP_breg13 36]

$C$DW$198	.dwtag  DW_TAG_variable
	.dwattr $C$DW$198, DW_AT_name("v")
	.dwattr $C$DW$198, DW_AT_TI_symbol_name("v")
	.dwattr $C$DW$198, DW_AT_type(*$C$DW$T$10)
	.dwattr $C$DW$198, DW_AT_location[DW_OP_breg13 40]

$C$DW$199	.dwtag  DW_TAG_variable
	.dwattr $C$DW$199, DW_AT_name("NumDigits")
	.dwattr $C$DW$199, DW_AT_TI_symbol_name("NumDigits")
	.dwattr $C$DW$199, DW_AT_type(*$C$DW$T$11)
	.dwattr $C$DW$199, DW_AT_location[DW_OP_breg13 44]

$C$DW$200	.dwtag  DW_TAG_variable
	.dwattr $C$DW$200, DW_AT_name("FormatFlags")
	.dwattr $C$DW$200, DW_AT_TI_symbol_name("FormatFlags")
	.dwattr $C$DW$200, DW_AT_type(*$C$DW$T$11)
	.dwattr $C$DW$200, DW_AT_location[DW_OP_breg13 48]

$C$DW$201	.dwtag  DW_TAG_variable
	.dwattr $C$DW$201, DW_AT_name("FieldWidth")
	.dwattr $C$DW$201, DW_AT_TI_symbol_name("FieldWidth")
	.dwattr $C$DW$201, DW_AT_type(*$C$DW$T$11)
	.dwattr $C$DW$201, DW_AT_location[DW_OP_breg13 52]

$C$DW$202	.dwtag  DW_TAG_variable
	.dwattr $C$DW$202, DW_AT_name("pPayloadStart")
	.dwattr $C$DW$202, DW_AT_TI_symbol_name("pPayloadStart")
	.dwattr $C$DW$202, DW_AT_type(*$C$DW$T$21)
	.dwattr $C$DW$202, DW_AT_location[DW_OP_breg13 56]

$C$DW$203	.dwtag  DW_TAG_variable
	.dwattr $C$DW$203, DW_AT_name("c")
	.dwattr $C$DW$203, DW_AT_TI_symbol_name("c")
	.dwattr $C$DW$203, DW_AT_type(*$C$DW$T$6)
	.dwattr $C$DW$203, DW_AT_location[DW_OP_breg13 60]

        STR       A3, [SP, #36]         ; [DPU_V7M3_PIPE] |1051| 
        STR       A2, [SP, #32]         ; [DPU_V7M3_PIPE] |1051| 
        STR       A1, [SP, #28]         ; [DPU_V7M3_PIPE] |1051| 

$C$DW$204	.dwtag  DW_TAG_lexical_block
	.dwattr $C$DW$204, DW_AT_low_pc(0x00)
	.dwattr $C$DW$204, DW_AT_high_pc(0x00)
$C$DW$205	.dwtag  DW_TAG_variable
	.dwattr $C$DW$205, DW_AT_name("LockState")
	.dwattr $C$DW$205, DW_AT_TI_symbol_name("LockState")
	.dwattr $C$DW$205, DW_AT_type(*$C$DW$T$11)
	.dwattr $C$DW$205, DW_AT_location[DW_OP_breg13 64]

	.dwpsn	file "../thirdparty/SEGGER/SEGGER/SEGGER_SYSVIEW.c",line 1063,column 3,is_stmt,isa 1
        MOVS      A1, #32               ; [DPU_V7M3_PIPE] |1063| 
        MRS       A2, BASEPRI           ; [DPU_V7M3_PIPE] |1063| 
        MSR       BASEPRI, A1           ; [DPU_V7M3_PIPE] |1063| 
        LDR       A1, $C$CON11          ; [DPU_V7M3_PIPE] |1063| 
        STR       A2, [SP, #64]         ; [DPU_V7M3_PIPE] |1063| 
$C$DW$206	.dwtag  DW_TAG_TI_branch
	.dwattr $C$DW$206, DW_AT_low_pc(0x00)
	.dwattr $C$DW$206, DW_AT_name("_PreparePacket")
	.dwattr $C$DW$206, DW_AT_TI_call

        BL        _PreparePacket        ; [DPU_V7M3_PIPE] |1063| 
        ; CALL OCCURS {_PreparePacket }  ; [] |1063| 
        STR       A1, [SP, #56]         ; [DPU_V7M3_PIPE] |1063| 
	.dwpsn	file "../thirdparty/SEGGER/SEGGER/SEGGER_SYSVIEW.c",line 1069,column 3,is_stmt,isa 1
        LDR       A1, $C$CON11          ; [DPU_V7M3_PIPE] |1069| 
        STR       A1, [SP, #8]          ; [DPU_V7M3_PIPE] |1069| 
	.dwpsn	file "../thirdparty/SEGGER/SEGGER/SEGGER_SYSVIEW.c",line 1071,column 3,is_stmt,isa 1
        MOVS      A1, #0                ; [DPU_V7M3_PIPE] |1071| 
        STR       A1, [SP, #24]         ; [DPU_V7M3_PIPE] |1071| 
	.dwpsn	file "../thirdparty/SEGGER/SEGGER/SEGGER_SYSVIEW.c",line 1072,column 3,is_stmt,isa 1
        LDR       A1, [SP, #56]         ; [DPU_V7M3_PIPE] |1072| 
        STR       A1, [SP, #16]         ; [DPU_V7M3_PIPE] |1072| 
	.dwpsn	file "../thirdparty/SEGGER/SEGGER/SEGGER_SYSVIEW.c",line 1073,column 3,is_stmt,isa 1
        LDR       A1, [SP, #16]         ; [DPU_V7M3_PIPE] |1073| 
        ADDS      A1, A1, #1            ; [DPU_V7M3_PIPE] |1073| 
        STR       A1, [SP, #12]         ; [DPU_V7M3_PIPE] |1073| 
	.dwpsn	file "../thirdparty/SEGGER/SEGGER/SEGGER_SYSVIEW.c",line 1074,column 3,is_stmt,isa 1
        LDR       A1, [SP, #32]         ; [DPU_V7M3_PIPE] |1074| 
        STR       A1, [SP, #20]         ; [DPU_V7M3_PIPE] |1074| 
;* --------------------------------------------------------------------------*
;*   BEGIN LOOP ||$C$L85||
;*
;*   Loop source line                : 1076
;*   Loop closing brace source line  : 1177
;*   Known Minimum Trip Count        : 1
;*   Known Maximum Trip Count        : 4294967295
;*   Known Max Trip Count Factor     : 1
;* --------------------------------------------------------------------------*
||$C$L85||:    

$C$DW$207	.dwtag  DW_TAG_lexical_block
	.dwattr $C$DW$207, DW_AT_low_pc(0x00)
	.dwattr $C$DW$207, DW_AT_high_pc(0x00)
	.dwpsn	file "../thirdparty/SEGGER/SEGGER/SEGGER_SYSVIEW.c",line 1077,column 5,is_stmt,isa 1
        LDR       A1, [SP, #28]         ; [DPU_V7M3_PIPE] |1077| 
        LDRB      A1, [A1, #0]          ; [DPU_V7M3_PIPE] |1077| 
        STRB      A1, [SP, #60]         ; [DPU_V7M3_PIPE] |1077| 
	.dwpsn	file "../thirdparty/SEGGER/SEGGER/SEGGER_SYSVIEW.c",line 1078,column 5,is_stmt,isa 1
        LDR       A1, [SP, #28]         ; [DPU_V7M3_PIPE] |1078| 
        ADDS      A1, A1, #1            ; [DPU_V7M3_PIPE] |1078| 
        STR       A1, [SP, #28]         ; [DPU_V7M3_PIPE] |1078| 
	.dwpsn	file "../thirdparty/SEGGER/SEGGER/SEGGER_SYSVIEW.c",line 1079,column 5,is_stmt,isa 1
        LDRB      A1, [SP, #60]         ; [DPU_V7M3_PIPE] |1079| 
        CMP       A1, #0                ; [DPU_V7M3_PIPE] |1079| 
        BEQ       ||$C$L112||           ; [DPU_V7M3_PIPE] |1079| 
        ; BRANCHCC OCCURS {||$C$L112||}  ; [] |1079| 
;* --------------------------------------------------------------------------*
	.dwpsn	file "../thirdparty/SEGGER/SEGGER/SEGGER_SYSVIEW.c",line 1080,column 7,is_stmt,isa 1
	.dwpsn	file "../thirdparty/SEGGER/SEGGER/SEGGER_SYSVIEW.c",line 1082,column 5,is_stmt,isa 1
        LDRB      A1, [SP, #60]         ; [DPU_V7M3_PIPE] |1082| 
        CMP       A1, #37               ; [DPU_V7M3_PIPE] |1082| 
        BNE       ||$C$L110||           ; [DPU_V7M3_PIPE] |1082| 
        ; BRANCHCC OCCURS {||$C$L110||}  ; [] |1082| 
;* --------------------------------------------------------------------------*

$C$DW$208	.dwtag  DW_TAG_lexical_block
	.dwattr $C$DW$208, DW_AT_low_pc(0x00)
	.dwattr $C$DW$208, DW_AT_high_pc(0x00)
	.dwpsn	file "../thirdparty/SEGGER/SEGGER/SEGGER_SYSVIEW.c",line 1086,column 7,is_stmt,isa 1
        MOVS      A1, #0                ; [DPU_V7M3_PIPE] |1086| 
        STR       A1, [SP, #48]         ; [DPU_V7M3_PIPE] |1086| 
	.dwpsn	file "../thirdparty/SEGGER/SEGGER/SEGGER_SYSVIEW.c",line 1087,column 7,is_stmt,isa 1
        MOVS      A1, #1                ; [DPU_V7M3_PIPE] |1087| 
        STR       A1, [SP, #40]         ; [DPU_V7M3_PIPE] |1087| 
;* --------------------------------------------------------------------------*
;*   BEGIN LOOP ||$C$L86||
;*
;*   Loop source line                : 1088
;*   Loop closing brace source line  : 1097
;*   Known Minimum Trip Count        : 1
;*   Known Maximum Trip Count        : 4294967295
;*   Known Max Trip Count Factor     : 1
;* --------------------------------------------------------------------------*
||$C$L86||:    
	.dwpsn	file "../thirdparty/SEGGER/SEGGER/SEGGER_SYSVIEW.c",line 1089,column 9,is_stmt,isa 1
        LDR       A1, [SP, #28]         ; [DPU_V7M3_PIPE] |1089| 
        LDRB      A1, [A1, #0]          ; [DPU_V7M3_PIPE] |1089| 
        STRB      A1, [SP, #60]         ; [DPU_V7M3_PIPE] |1089| 
	.dwpsn	file "../thirdparty/SEGGER/SEGGER/SEGGER_SYSVIEW.c",line 1090,column 9,is_stmt,isa 1
        B         ||$C$L92||            ; [DPU_V7M3_PIPE] |1090| 
        ; BRANCH OCCURS {||$C$L92||}     ; [] |1090| 
;* --------------------------------------------------------------------------*
||$C$L87||:    
	.dwpsn	file "../thirdparty/SEGGER/SEGGER/SEGGER_SYSVIEW.c",line 1091,column 19,is_stmt,isa 1
        LDR       A1, [SP, #48]         ; [DPU_V7M3_PIPE] |1091| 
        ORR       A1, A1, #1            ; [DPU_V7M3_PIPE] |1091| 
        STR       A1, [SP, #48]         ; [DPU_V7M3_PIPE] |1091| 
	.dwpsn	file "../thirdparty/SEGGER/SEGGER/SEGGER_SYSVIEW.c",line 1091,column 60,is_stmt,isa 1
        LDR       A1, [SP, #28]         ; [DPU_V7M3_PIPE] |1091| 
        ADDS      A1, A1, #1            ; [DPU_V7M3_PIPE] |1091| 
        STR       A1, [SP, #28]         ; [DPU_V7M3_PIPE] |1091| 
	.dwpsn	file "../thirdparty/SEGGER/SEGGER/SEGGER_SYSVIEW.c",line 1091,column 71,is_stmt,isa 1
        B         ||$C$L93||            ; [DPU_V7M3_PIPE] |1091| 
        ; BRANCH OCCURS {||$C$L93||}     ; [] |1091| 
;* --------------------------------------------------------------------------*
||$C$L88||:    
	.dwpsn	file "../thirdparty/SEGGER/SEGGER/SEGGER_SYSVIEW.c",line 1092,column 19,is_stmt,isa 1
        LDR       A1, [SP, #48]         ; [DPU_V7M3_PIPE] |1092| 
        ORR       A1, A1, #2            ; [DPU_V7M3_PIPE] |1092| 
        STR       A1, [SP, #48]         ; [DPU_V7M3_PIPE] |1092| 
	.dwpsn	file "../thirdparty/SEGGER/SEGGER/SEGGER_SYSVIEW.c",line 1092,column 60,is_stmt,isa 1
        LDR       A1, [SP, #28]         ; [DPU_V7M3_PIPE] |1092| 
        ADDS      A1, A1, #1            ; [DPU_V7M3_PIPE] |1092| 
        STR       A1, [SP, #28]         ; [DPU_V7M3_PIPE] |1092| 
	.dwpsn	file "../thirdparty/SEGGER/SEGGER/SEGGER_SYSVIEW.c",line 1092,column 71,is_stmt,isa 1
        B         ||$C$L93||            ; [DPU_V7M3_PIPE] |1092| 
        ; BRANCH OCCURS {||$C$L93||}     ; [] |1092| 
;* --------------------------------------------------------------------------*
||$C$L89||:    
	.dwpsn	file "../thirdparty/SEGGER/SEGGER/SEGGER_SYSVIEW.c",line 1093,column 19,is_stmt,isa 1
        LDR       A1, [SP, #48]         ; [DPU_V7M3_PIPE] |1093| 
        ORR       A1, A1, #4            ; [DPU_V7M3_PIPE] |1093| 
        STR       A1, [SP, #48]         ; [DPU_V7M3_PIPE] |1093| 
	.dwpsn	file "../thirdparty/SEGGER/SEGGER/SEGGER_SYSVIEW.c",line 1093,column 60,is_stmt,isa 1
        LDR       A1, [SP, #28]         ; [DPU_V7M3_PIPE] |1093| 
        ADDS      A1, A1, #1            ; [DPU_V7M3_PIPE] |1093| 
        STR       A1, [SP, #28]         ; [DPU_V7M3_PIPE] |1093| 
	.dwpsn	file "../thirdparty/SEGGER/SEGGER/SEGGER_SYSVIEW.c",line 1093,column 71,is_stmt,isa 1
        B         ||$C$L93||            ; [DPU_V7M3_PIPE] |1093| 
        ; BRANCH OCCURS {||$C$L93||}     ; [] |1093| 
;* --------------------------------------------------------------------------*
||$C$L90||:    
	.dwpsn	file "../thirdparty/SEGGER/SEGGER/SEGGER_SYSVIEW.c",line 1094,column 19,is_stmt,isa 1
        LDR       A1, [SP, #48]         ; [DPU_V7M3_PIPE] |1094| 
        ORR       A1, A1, #8            ; [DPU_V7M3_PIPE] |1094| 
        STR       A1, [SP, #48]         ; [DPU_V7M3_PIPE] |1094| 
	.dwpsn	file "../thirdparty/SEGGER/SEGGER/SEGGER_SYSVIEW.c",line 1094,column 60,is_stmt,isa 1
        LDR       A1, [SP, #28]         ; [DPU_V7M3_PIPE] |1094| 
        ADDS      A1, A1, #1            ; [DPU_V7M3_PIPE] |1094| 
        STR       A1, [SP, #28]         ; [DPU_V7M3_PIPE] |1094| 
	.dwpsn	file "../thirdparty/SEGGER/SEGGER/SEGGER_SYSVIEW.c",line 1094,column 71,is_stmt,isa 1
        B         ||$C$L93||            ; [DPU_V7M3_PIPE] |1094| 
        ; BRANCH OCCURS {||$C$L93||}     ; [] |1094| 
;* --------------------------------------------------------------------------*
||$C$L91||:    
	.dwpsn	file "../thirdparty/SEGGER/SEGGER/SEGGER_SYSVIEW.c",line 1095,column 19,is_stmt,isa 1
        MOVS      A1, #0                ; [DPU_V7M3_PIPE] |1095| 
        STR       A1, [SP, #40]         ; [DPU_V7M3_PIPE] |1095| 
	.dwpsn	file "../thirdparty/SEGGER/SEGGER/SEGGER_SYSVIEW.c",line 1095,column 26,is_stmt,isa 1
        B         ||$C$L93||            ; [DPU_V7M3_PIPE] |1095| 
        ; BRANCH OCCURS {||$C$L93||}     ; [] |1095| 
;* --------------------------------------------------------------------------*
;* --------------------------------------------------------------------------*
||$C$L92||:    
	.dwpsn	file "../thirdparty/SEGGER/SEGGER/SEGGER_SYSVIEW.c",line 1090,column 9,is_stmt,isa 1
        LDRB      A1, [SP, #60]         ; [DPU_V7M3_PIPE] |1090| 
        SUBS      A1, A1, #35           ; [DPU_V7M3_PIPE] |1090| 
        BEQ       ||$C$L90||            ; [DPU_V7M3_PIPE] |1090| 
        ; BRANCHCC OCCURS {||$C$L90||}   ; [] |1090| 
;* --------------------------------------------------------------------------*
        SUBS      A1, A1, #8            ; [DPU_V7M3_PIPE] |1090| 
        BEQ       ||$C$L89||            ; [DPU_V7M3_PIPE] |1090| 
        ; BRANCHCC OCCURS {||$C$L89||}   ; [] |1090| 
;* --------------------------------------------------------------------------*
        SUBS      A1, A1, #2            ; [DPU_V7M3_PIPE] |1090| 
        BEQ       ||$C$L87||            ; [DPU_V7M3_PIPE] |1090| 
        ; BRANCHCC OCCURS {||$C$L87||}   ; [] |1090| 
;* --------------------------------------------------------------------------*
        SUBS      A1, A1, #3            ; [DPU_V7M3_PIPE] |1090| 
        BEQ       ||$C$L88||            ; [DPU_V7M3_PIPE] |1090| 
        ; BRANCHCC OCCURS {||$C$L88||}   ; [] |1090| 
;* --------------------------------------------------------------------------*
        B         ||$C$L91||            ; [DPU_V7M3_PIPE] |1090| 
        ; BRANCH OCCURS {||$C$L91||}     ; [] |1090| 
;* --------------------------------------------------------------------------*
||$C$L93||:    
	.dwpsn	file "../thirdparty/SEGGER/SEGGER/SEGGER_SYSVIEW.c",line 1088,column 7,is_stmt,isa 1
        LDR       A1, [SP, #40]         ; [DPU_V7M3_PIPE] |1088| 
        CMP       A1, #0                ; [DPU_V7M3_PIPE] |1088| 
        BNE       ||$C$L86||            ; [DPU_V7M3_PIPE] |1088| 
        ; BRANCHCC OCCURS {||$C$L86||}   ; [] |1088| 
;* --------------------------------------------------------------------------*
	.dwpsn	file "../thirdparty/SEGGER/SEGGER/SEGGER_SYSVIEW.c",line 1101,column 7,is_stmt,isa 1
        MOVS      A1, #0                ; [DPU_V7M3_PIPE] |1101| 
        STR       A1, [SP, #52]         ; [DPU_V7M3_PIPE] |1101| 
;* --------------------------------------------------------------------------*
;*   BEGIN LOOP ||$C$L94||
;*
;*   Loop source line                : 1102
;*   Loop closing brace source line  : 1109
;*   Known Minimum Trip Count        : 1
;*   Known Maximum Trip Count        : 4294967295
;*   Known Max Trip Count Factor     : 1
;* --------------------------------------------------------------------------*
||$C$L94||:    
	.dwpsn	file "../thirdparty/SEGGER/SEGGER/SEGGER_SYSVIEW.c",line 1103,column 9,is_stmt,isa 1
        LDR       A1, [SP, #28]         ; [DPU_V7M3_PIPE] |1103| 
        LDRB      A1, [A1, #0]          ; [DPU_V7M3_PIPE] |1103| 
        STRB      A1, [SP, #60]         ; [DPU_V7M3_PIPE] |1103| 
	.dwpsn	file "../thirdparty/SEGGER/SEGGER/SEGGER_SYSVIEW.c",line 1104,column 9,is_stmt,isa 1
        LDRB      A1, [SP, #60]         ; [DPU_V7M3_PIPE] |1104| 
        CMP       A1, #48               ; [DPU_V7M3_PIPE] |1104| 
        BLT       ||$C$L96||            ; [DPU_V7M3_PIPE] |1104| 
        ; BRANCHCC OCCURS {||$C$L96||}   ; [] |1104| 
;* --------------------------------------------------------------------------*
        LDRB      A1, [SP, #60]         ; [DPU_V7M3_PIPE] |1104| 
        CMP       A1, #57               ; [DPU_V7M3_PIPE] |1104| 
        BLE       ||$C$L95||            ; [DPU_V7M3_PIPE] |1104| 
        ; BRANCHCC OCCURS {||$C$L95||}   ; [] |1104| 
;* --------------------------------------------------------------------------*
        B         ||$C$L96||            ; [DPU_V7M3_PIPE] |1104| 
        ; BRANCH OCCURS {||$C$L96||}     ; [] |1104| 
;* --------------------------------------------------------------------------*
;* --------------------------------------------------------------------------*
||$C$L95||:    
	.dwpsn	file "../thirdparty/SEGGER/SEGGER/SEGGER_SYSVIEW.c",line 1107,column 9,is_stmt,isa 1
        LDR       A1, [SP, #28]         ; [DPU_V7M3_PIPE] |1107| 
        ADDS      A1, A1, #1            ; [DPU_V7M3_PIPE] |1107| 
        STR       A1, [SP, #28]         ; [DPU_V7M3_PIPE] |1107| 
	.dwpsn	file "../thirdparty/SEGGER/SEGGER/SEGGER_SYSVIEW.c",line 1108,column 9,is_stmt,isa 1
        LDR       A3, [SP, #52]         ; [DPU_V7M3_PIPE] |1108| 
        LDRB      A2, [SP, #60]         ; [DPU_V7M3_PIPE] |1108| 
        LSLS      A1, A3, #1            ; [DPU_V7M3_PIPE] |1108| 
        ADD       A1, A1, A3, LSL #3    ; [DPU_V7M3_PIPE] |1108| 
        ADDS      A1, A1, A2            ; [DPU_V7M3_PIPE] |1108| 
        SUBS      A1, A1, #48           ; [DPU_V7M3_PIPE] |1108| 
        STR       A1, [SP, #52]         ; [DPU_V7M3_PIPE] |1108| 
	.dwpsn	file "../thirdparty/SEGGER/SEGGER/SEGGER_SYSVIEW.c",line 1109,column 16,is_stmt,isa 1
        B         ||$C$L94||            ; [DPU_V7M3_PIPE] |1109| 
        ; BRANCH OCCURS {||$C$L94||}     ; [] |1109| 
;* --------------------------------------------------------------------------*
||$C$L96||:    
	.dwpsn	file "../thirdparty/SEGGER/SEGGER/SEGGER_SYSVIEW.c",line 1114,column 7,is_stmt,isa 1
        MOVS      A1, #0                ; [DPU_V7M3_PIPE] |1114| 
        STR       A1, [SP, #44]         ; [DPU_V7M3_PIPE] |1114| 
	.dwpsn	file "../thirdparty/SEGGER/SEGGER/SEGGER_SYSVIEW.c",line 1115,column 7,is_stmt,isa 1
        LDR       A1, [SP, #28]         ; [DPU_V7M3_PIPE] |1115| 
        LDRB      A1, [A1, #0]          ; [DPU_V7M3_PIPE] |1115| 
        STRB      A1, [SP, #60]         ; [DPU_V7M3_PIPE] |1115| 
	.dwpsn	file "../thirdparty/SEGGER/SEGGER/SEGGER_SYSVIEW.c",line 1116,column 7,is_stmt,isa 1
        LDRB      A1, [SP, #60]         ; [DPU_V7M3_PIPE] |1116| 
        CMP       A1, #46               ; [DPU_V7M3_PIPE] |1116| 
        BNE       ||$C$L99||            ; [DPU_V7M3_PIPE] |1116| 
        ; BRANCHCC OCCURS {||$C$L99||}   ; [] |1116| 
;* --------------------------------------------------------------------------*
	.dwpsn	file "../thirdparty/SEGGER/SEGGER/SEGGER_SYSVIEW.c",line 1117,column 9,is_stmt,isa 1
        LDR       A1, [SP, #28]         ; [DPU_V7M3_PIPE] |1117| 
        ADDS      A1, A1, #1            ; [DPU_V7M3_PIPE] |1117| 
        STR       A1, [SP, #28]         ; [DPU_V7M3_PIPE] |1117| 
;* --------------------------------------------------------------------------*
;*   BEGIN LOOP ||$C$L97||
;*
;*   Loop source line                : 1118
;*   Loop closing brace source line  : 1125
;*   Known Minimum Trip Count        : 1
;*   Known Maximum Trip Count        : 4294967295
;*   Known Max Trip Count Factor     : 1
;* --------------------------------------------------------------------------*
||$C$L97||:    
	.dwpsn	file "../thirdparty/SEGGER/SEGGER/SEGGER_SYSVIEW.c",line 1119,column 11,is_stmt,isa 1
        LDR       A1, [SP, #28]         ; [DPU_V7M3_PIPE] |1119| 
        LDRB      A1, [A1, #0]          ; [DPU_V7M3_PIPE] |1119| 
        STRB      A1, [SP, #60]         ; [DPU_V7M3_PIPE] |1119| 
	.dwpsn	file "../thirdparty/SEGGER/SEGGER/SEGGER_SYSVIEW.c",line 1120,column 11,is_stmt,isa 1
        LDRB      A1, [SP, #60]         ; [DPU_V7M3_PIPE] |1120| 
        CMP       A1, #48               ; [DPU_V7M3_PIPE] |1120| 
        BLT       ||$C$L99||            ; [DPU_V7M3_PIPE] |1120| 
        ; BRANCHCC OCCURS {||$C$L99||}   ; [] |1120| 
;* --------------------------------------------------------------------------*
        LDRB      A1, [SP, #60]         ; [DPU_V7M3_PIPE] |1120| 
        CMP       A1, #57               ; [DPU_V7M3_PIPE] |1120| 
        BLE       ||$C$L98||            ; [DPU_V7M3_PIPE] |1120| 
        ; BRANCHCC OCCURS {||$C$L98||}   ; [] |1120| 
;* --------------------------------------------------------------------------*
        B         ||$C$L99||            ; [DPU_V7M3_PIPE] |1120| 
        ; BRANCH OCCURS {||$C$L99||}     ; [] |1120| 
;* --------------------------------------------------------------------------*
;* --------------------------------------------------------------------------*
||$C$L98||:    
	.dwpsn	file "../thirdparty/SEGGER/SEGGER/SEGGER_SYSVIEW.c",line 1123,column 11,is_stmt,isa 1
        LDR       A1, [SP, #28]         ; [DPU_V7M3_PIPE] |1123| 
        ADDS      A1, A1, #1            ; [DPU_V7M3_PIPE] |1123| 
        STR       A1, [SP, #28]         ; [DPU_V7M3_PIPE] |1123| 
	.dwpsn	file "../thirdparty/SEGGER/SEGGER/SEGGER_SYSVIEW.c",line 1124,column 11,is_stmt,isa 1
        LDR       A3, [SP, #44]         ; [DPU_V7M3_PIPE] |1124| 
        LDRB      A2, [SP, #60]         ; [DPU_V7M3_PIPE] |1124| 
        LSLS      A1, A3, #1            ; [DPU_V7M3_PIPE] |1124| 
        ADD       A1, A1, A3, LSL #3    ; [DPU_V7M3_PIPE] |1124| 
        ADDS      A1, A1, A2            ; [DPU_V7M3_PIPE] |1124| 
        SUBS      A1, A1, #48           ; [DPU_V7M3_PIPE] |1124| 
        STR       A1, [SP, #44]         ; [DPU_V7M3_PIPE] |1124| 
	.dwpsn	file "../thirdparty/SEGGER/SEGGER/SEGGER_SYSVIEW.c",line 1125,column 18,is_stmt,isa 1
        B         ||$C$L97||            ; [DPU_V7M3_PIPE] |1125| 
        ; BRANCH OCCURS {||$C$L97||}     ; [] |1125| 
;* --------------------------------------------------------------------------*
||$C$L99||:    
	.dwpsn	file "../thirdparty/SEGGER/SEGGER/SEGGER_SYSVIEW.c",line 1130,column 7,is_stmt,isa 1
        LDR       A1, [SP, #28]         ; [DPU_V7M3_PIPE] |1130| 
        LDRB      A1, [A1, #0]          ; [DPU_V7M3_PIPE] |1130| 
        STRB      A1, [SP, #60]         ; [DPU_V7M3_PIPE] |1130| 
;* --------------------------------------------------------------------------*
;*   BEGIN LOOP ||$C$L100||
;*
;*   Loop source line                : 1131
;*   Loop closing brace source line  : 1138
;*   Known Minimum Trip Count        : 1
;*   Known Maximum Trip Count        : 4294967295
;*   Known Max Trip Count Factor     : 1
;* --------------------------------------------------------------------------*
||$C$L100||:    
	.dwpsn	file "../thirdparty/SEGGER/SEGGER/SEGGER_SYSVIEW.c",line 1132,column 9,is_stmt,isa 1
        LDRB      A1, [SP, #60]         ; [DPU_V7M3_PIPE] |1132| 
        CMP       A1, #108              ; [DPU_V7M3_PIPE] |1132| 
        BEQ       ||$C$L101||           ; [DPU_V7M3_PIPE] |1132| 
        ; BRANCHCC OCCURS {||$C$L101||}  ; [] |1132| 
;* --------------------------------------------------------------------------*
        LDRB      A1, [SP, #60]         ; [DPU_V7M3_PIPE] |1132| 
        CMP       A1, #104              ; [DPU_V7M3_PIPE] |1132| 
        BNE       ||$C$L108||           ; [DPU_V7M3_PIPE] |1132| 
        ; BRANCHCC OCCURS {||$C$L108||}  ; [] |1132| 
;* --------------------------------------------------------------------------*
||$C$L101||:    
	.dwpsn	file "../thirdparty/SEGGER/SEGGER/SEGGER_SYSVIEW.c",line 1133,column 11,is_stmt,isa 1
        LDR       A1, [SP, #28]         ; [DPU_V7M3_PIPE] |1133| 
        LDRB      A1, [A1, #0]          ; [DPU_V7M3_PIPE] |1133| 
        STRB      A1, [SP, #60]         ; [DPU_V7M3_PIPE] |1133| 
	.dwpsn	file "../thirdparty/SEGGER/SEGGER/SEGGER_SYSVIEW.c",line 1134,column 11,is_stmt,isa 1
        LDR       A1, [SP, #28]         ; [DPU_V7M3_PIPE] |1134| 
        ADDS      A1, A1, #1            ; [DPU_V7M3_PIPE] |1134| 
        STR       A1, [SP, #28]         ; [DPU_V7M3_PIPE] |1134| 
	.dwpsn	file "../thirdparty/SEGGER/SEGGER/SEGGER_SYSVIEW.c",line 1135,column 9,is_stmt,isa 1
        B         ||$C$L100||           ; [DPU_V7M3_PIPE] |1135| 
        ; BRANCH OCCURS {||$C$L100||}    ; [] |1135| 
;* --------------------------------------------------------------------------*

$C$DW$209	.dwtag  DW_TAG_lexical_block
	.dwattr $C$DW$209, DW_AT_low_pc(0x00)
	.dwattr $C$DW$209, DW_AT_high_pc(0x00)
;* --------------------------------------------------------------------------*
||$C$L102||:    

$C$DW$210	.dwtag  DW_TAG_lexical_block
	.dwattr $C$DW$210, DW_AT_low_pc(0x00)
	.dwattr $C$DW$210, DW_AT_high_pc(0x00)
$C$DW$211	.dwtag  DW_TAG_variable
	.dwattr $C$DW$211, DW_AT_name("c0")
	.dwattr $C$DW$211, DW_AT_TI_symbol_name("c0")
	.dwattr $C$DW$211, DW_AT_type(*$C$DW$T$6)
	.dwattr $C$DW$211, DW_AT_location[DW_OP_breg13 68]

	.dwpsn	file "../thirdparty/SEGGER/SEGGER/SEGGER_SYSVIEW.c",line 1145,column 9,is_stmt,isa 1
        LDR       A1, [SP, #36]         ; [DPU_V7M3_PIPE] |1145| 
        LDR       A2, [SP, #36]         ; [DPU_V7M3_PIPE] |1145| 
        LDR       A1, [A1, #0]          ; [DPU_V7M3_PIPE] |1145| 
        ADDS      A1, A1, #3            ; [DPU_V7M3_PIPE] |1145| 
        BIC       A1, A1, #3            ; [DPU_V7M3_PIPE] |1145| 
        ADDS      A1, A1, #4            ; [DPU_V7M3_PIPE] |1145| 
        STR       A1, [A2, #0]          ; [DPU_V7M3_PIPE] |1145| 
        LDR       A1, [SP, #36]         ; [DPU_V7M3_PIPE] |1145| 
        LDR       A1, [A1, #0]          ; [DPU_V7M3_PIPE] |1145| 
        LDR       A1, [A1, #-4]         ; [DPU_V7M3_PIPE] |1145| 
        STR       A1, [SP, #40]         ; [DPU_V7M3_PIPE] |1145| 
	.dwpsn	file "../thirdparty/SEGGER/SEGGER/SEGGER_SYSVIEW.c",line 1146,column 9,is_stmt,isa 1
        LDRB      A1, [SP, #40]         ; [DPU_V7M3_PIPE] |1146| 
        STRB      A1, [SP, #68]         ; [DPU_V7M3_PIPE] |1146| 
	.dwpsn	file "../thirdparty/SEGGER/SEGGER/SEGGER_SYSVIEW.c",line 1147,column 9,is_stmt,isa 1
        LDRB      A2, [SP, #68]         ; [DPU_V7M3_PIPE] |1147| 
        ADD       A1, SP, #8            ; [DPU_V7M3_PIPE] |1147| 
$C$DW$212	.dwtag  DW_TAG_TI_branch
	.dwattr $C$DW$212, DW_AT_low_pc(0x00)
	.dwattr $C$DW$212, DW_AT_name("_StoreChar")
	.dwattr $C$DW$212, DW_AT_TI_call

        BL        _StoreChar            ; [DPU_V7M3_PIPE] |1147| 
        ; CALL OCCURS {_StoreChar }      ; [] |1147| 
	.dwpsn	file "../thirdparty/SEGGER/SEGGER/SEGGER_SYSVIEW.c",line 1148,column 9,is_stmt,isa 1
        B         ||$C$L109||           ; [DPU_V7M3_PIPE] |1148| 
        ; BRANCH OCCURS {||$C$L109||}    ; [] |1148| 
;* --------------------------------------------------------------------------*
	.dwendtag $C$DW$210

;* --------------------------------------------------------------------------*
||$C$L103||:    
	.dwpsn	file "../thirdparty/SEGGER/SEGGER/SEGGER_SYSVIEW.c",line 1151,column 9,is_stmt,isa 1
        LDR       A1, [SP, #36]         ; [DPU_V7M3_PIPE] |1151| 
        LDR       A2, [SP, #36]         ; [DPU_V7M3_PIPE] |1151| 
        LDR       A1, [A1, #0]          ; [DPU_V7M3_PIPE] |1151| 
        ADDS      A1, A1, #3            ; [DPU_V7M3_PIPE] |1151| 
        BIC       A1, A1, #3            ; [DPU_V7M3_PIPE] |1151| 
        ADDS      A1, A1, #4            ; [DPU_V7M3_PIPE] |1151| 
        STR       A1, [A2, #0]          ; [DPU_V7M3_PIPE] |1151| 
        LDR       A1, [SP, #36]         ; [DPU_V7M3_PIPE] |1151| 
        LDR       A1, [A1, #0]          ; [DPU_V7M3_PIPE] |1151| 
        LDR       A1, [A1, #-4]         ; [DPU_V7M3_PIPE] |1151| 
        STR       A1, [SP, #40]         ; [DPU_V7M3_PIPE] |1151| 
	.dwpsn	file "../thirdparty/SEGGER/SEGGER/SEGGER_SYSVIEW.c",line 1152,column 9,is_stmt,isa 1
        LDR       A1, [SP, #52]         ; [DPU_V7M3_PIPE] |1152| 
        LDR       A4, [SP, #44]         ; [DPU_V7M3_PIPE] |1152| 
        STR       A1, [SP, #0]          ; [DPU_V7M3_PIPE] |1152| 
        LDR       A2, [SP, #40]         ; [DPU_V7M3_PIPE] |1152| 
        LDR       A1, [SP, #48]         ; [DPU_V7M3_PIPE] |1152| 
        MOVS      A3, #10               ; [DPU_V7M3_PIPE] |1152| 
        STR       A1, [SP, #4]          ; [DPU_V7M3_PIPE] |1152| 
        ADD       A1, SP, #8            ; [DPU_V7M3_PIPE] |1152| 
$C$DW$213	.dwtag  DW_TAG_TI_branch
	.dwattr $C$DW$213, DW_AT_low_pc(0x00)
	.dwattr $C$DW$213, DW_AT_name("_PrintInt")
	.dwattr $C$DW$213, DW_AT_TI_call

        BL        _PrintInt             ; [DPU_V7M3_PIPE] |1152| 
        ; CALL OCCURS {_PrintInt }       ; [] |1152| 
	.dwpsn	file "../thirdparty/SEGGER/SEGGER/SEGGER_SYSVIEW.c",line 1153,column 9,is_stmt,isa 1
        B         ||$C$L109||           ; [DPU_V7M3_PIPE] |1153| 
        ; BRANCH OCCURS {||$C$L109||}    ; [] |1153| 
;* --------------------------------------------------------------------------*
||$C$L104||:    
	.dwpsn	file "../thirdparty/SEGGER/SEGGER/SEGGER_SYSVIEW.c",line 1155,column 9,is_stmt,isa 1
        LDR       A1, [SP, #36]         ; [DPU_V7M3_PIPE] |1155| 
        LDR       A2, [SP, #36]         ; [DPU_V7M3_PIPE] |1155| 
        LDR       A1, [A1, #0]          ; [DPU_V7M3_PIPE] |1155| 
        ADDS      A1, A1, #3            ; [DPU_V7M3_PIPE] |1155| 
        BIC       A1, A1, #3            ; [DPU_V7M3_PIPE] |1155| 
        ADDS      A1, A1, #4            ; [DPU_V7M3_PIPE] |1155| 
        STR       A1, [A2, #0]          ; [DPU_V7M3_PIPE] |1155| 
        LDR       A1, [SP, #36]         ; [DPU_V7M3_PIPE] |1155| 
        LDR       A1, [A1, #0]          ; [DPU_V7M3_PIPE] |1155| 
        LDR       A1, [A1, #-4]         ; [DPU_V7M3_PIPE] |1155| 
        STR       A1, [SP, #40]         ; [DPU_V7M3_PIPE] |1155| 
	.dwpsn	file "../thirdparty/SEGGER/SEGGER/SEGGER_SYSVIEW.c",line 1156,column 9,is_stmt,isa 1
        LDR       A2, [SP, #52]         ; [DPU_V7M3_PIPE] |1156| 
        MOVS      A3, #10               ; [DPU_V7M3_PIPE] |1156| 
        LDR       A1, [SP, #48]         ; [DPU_V7M3_PIPE] |1156| 
        LDR       A4, [SP, #44]         ; [DPU_V7M3_PIPE] |1156| 
        STR       A2, [SP, #0]          ; [DPU_V7M3_PIPE] |1156| 
        LDR       A2, [SP, #40]         ; [DPU_V7M3_PIPE] |1156| 
        STR       A1, [SP, #4]          ; [DPU_V7M3_PIPE] |1156| 
        ADD       A1, SP, #8            ; [DPU_V7M3_PIPE] |1156| 
$C$DW$214	.dwtag  DW_TAG_TI_branch
	.dwattr $C$DW$214, DW_AT_low_pc(0x00)
	.dwattr $C$DW$214, DW_AT_name("_PrintUnsigned")
	.dwattr $C$DW$214, DW_AT_TI_call

        BL        _PrintUnsigned        ; [DPU_V7M3_PIPE] |1156| 
        ; CALL OCCURS {_PrintUnsigned }  ; [] |1156| 
	.dwpsn	file "../thirdparty/SEGGER/SEGGER/SEGGER_SYSVIEW.c",line 1157,column 9,is_stmt,isa 1
        B         ||$C$L109||           ; [DPU_V7M3_PIPE] |1157| 
        ; BRANCH OCCURS {||$C$L109||}    ; [] |1157| 
;* --------------------------------------------------------------------------*
||$C$L105||:    
	.dwpsn	file "../thirdparty/SEGGER/SEGGER/SEGGER_SYSVIEW.c",line 1160,column 9,is_stmt,isa 1
        LDR       A1, [SP, #36]         ; [DPU_V7M3_PIPE] |1160| 
        LDR       A2, [SP, #36]         ; [DPU_V7M3_PIPE] |1160| 
        LDR       A1, [A1, #0]          ; [DPU_V7M3_PIPE] |1160| 
        ADDS      A1, A1, #3            ; [DPU_V7M3_PIPE] |1160| 
        BIC       A1, A1, #3            ; [DPU_V7M3_PIPE] |1160| 
        ADDS      A1, A1, #4            ; [DPU_V7M3_PIPE] |1160| 
        STR       A1, [A2, #0]          ; [DPU_V7M3_PIPE] |1160| 
        LDR       A1, [SP, #36]         ; [DPU_V7M3_PIPE] |1160| 
        LDR       A1, [A1, #0]          ; [DPU_V7M3_PIPE] |1160| 
        LDR       A1, [A1, #-4]         ; [DPU_V7M3_PIPE] |1160| 
        STR       A1, [SP, #40]         ; [DPU_V7M3_PIPE] |1160| 
	.dwpsn	file "../thirdparty/SEGGER/SEGGER/SEGGER_SYSVIEW.c",line 1161,column 9,is_stmt,isa 1
        LDR       A2, [SP, #52]         ; [DPU_V7M3_PIPE] |1161| 
        MOVS      A3, #16               ; [DPU_V7M3_PIPE] |1161| 
        LDR       A1, [SP, #48]         ; [DPU_V7M3_PIPE] |1161| 
        LDR       A4, [SP, #44]         ; [DPU_V7M3_PIPE] |1161| 
        STR       A2, [SP, #0]          ; [DPU_V7M3_PIPE] |1161| 
        LDR       A2, [SP, #40]         ; [DPU_V7M3_PIPE] |1161| 
        STR       A1, [SP, #4]          ; [DPU_V7M3_PIPE] |1161| 
        ADD       A1, SP, #8            ; [DPU_V7M3_PIPE] |1161| 
$C$DW$215	.dwtag  DW_TAG_TI_branch
	.dwattr $C$DW$215, DW_AT_low_pc(0x00)
	.dwattr $C$DW$215, DW_AT_name("_PrintUnsigned")
	.dwattr $C$DW$215, DW_AT_TI_call

        BL        _PrintUnsigned        ; [DPU_V7M3_PIPE] |1161| 
        ; CALL OCCURS {_PrintUnsigned }  ; [] |1161| 
	.dwpsn	file "../thirdparty/SEGGER/SEGGER/SEGGER_SYSVIEW.c",line 1162,column 9,is_stmt,isa 1
        B         ||$C$L109||           ; [DPU_V7M3_PIPE] |1162| 
        ; BRANCH OCCURS {||$C$L109||}    ; [] |1162| 
;* --------------------------------------------------------------------------*
||$C$L106||:    
	.dwpsn	file "../thirdparty/SEGGER/SEGGER/SEGGER_SYSVIEW.c",line 1164,column 9,is_stmt,isa 1
        LDR       A1, [SP, #36]         ; [DPU_V7M3_PIPE] |1164| 
        LDR       A2, [SP, #36]         ; [DPU_V7M3_PIPE] |1164| 
        LDR       A1, [A1, #0]          ; [DPU_V7M3_PIPE] |1164| 
        ADDS      A1, A1, #3            ; [DPU_V7M3_PIPE] |1164| 
        BIC       A1, A1, #3            ; [DPU_V7M3_PIPE] |1164| 
        ADDS      A1, A1, #4            ; [DPU_V7M3_PIPE] |1164| 
        STR       A1, [A2, #0]          ; [DPU_V7M3_PIPE] |1164| 
        LDR       A1, [SP, #36]         ; [DPU_V7M3_PIPE] |1164| 
        LDR       A1, [A1, #0]          ; [DPU_V7M3_PIPE] |1164| 
        LDR       A1, [A1, #-4]         ; [DPU_V7M3_PIPE] |1164| 
        STR       A1, [SP, #40]         ; [DPU_V7M3_PIPE] |1164| 
	.dwpsn	file "../thirdparty/SEGGER/SEGGER/SEGGER_SYSVIEW.c",line 1165,column 9,is_stmt,isa 1
        MOVS      A2, #8                ; [DPU_V7M3_PIPE] |1165| 
        MOVS      A3, #16               ; [DPU_V7M3_PIPE] |1165| 
        MOVS      A4, #8                ; [DPU_V7M3_PIPE] |1165| 
        MOVS      A1, #0                ; [DPU_V7M3_PIPE] |1165| 
        STR       A2, [SP, #0]          ; [DPU_V7M3_PIPE] |1165| 
        LDR       A2, [SP, #40]         ; [DPU_V7M3_PIPE] |1165| 
        STR       A1, [SP, #4]          ; [DPU_V7M3_PIPE] |1165| 
        ADD       A1, SP, #8            ; [DPU_V7M3_PIPE] |1165| 
$C$DW$216	.dwtag  DW_TAG_TI_branch
	.dwattr $C$DW$216, DW_AT_low_pc(0x00)
	.dwattr $C$DW$216, DW_AT_name("_PrintUnsigned")
	.dwattr $C$DW$216, DW_AT_TI_call

        BL        _PrintUnsigned        ; [DPU_V7M3_PIPE] |1165| 
        ; CALL OCCURS {_PrintUnsigned }  ; [] |1165| 
	.dwpsn	file "../thirdparty/SEGGER/SEGGER/SEGGER_SYSVIEW.c",line 1166,column 9,is_stmt,isa 1
        B         ||$C$L109||           ; [DPU_V7M3_PIPE] |1166| 
        ; BRANCH OCCURS {||$C$L109||}    ; [] |1166| 
;* --------------------------------------------------------------------------*
||$C$L107||:    
	.dwpsn	file "../thirdparty/SEGGER/SEGGER/SEGGER_SYSVIEW.c",line 1168,column 9,is_stmt,isa 1
        ADD       A1, SP, #8            ; [DPU_V7M3_PIPE] |1168| 
        MOVS      A2, #37               ; [DPU_V7M3_PIPE] |1168| 
$C$DW$217	.dwtag  DW_TAG_TI_branch
	.dwattr $C$DW$217, DW_AT_low_pc(0x00)
	.dwattr $C$DW$217, DW_AT_name("_StoreChar")
	.dwattr $C$DW$217, DW_AT_TI_call

        BL        _StoreChar            ; [DPU_V7M3_PIPE] |1168| 
        ; CALL OCCURS {_StoreChar }      ; [] |1168| 
	.dwpsn	file "../thirdparty/SEGGER/SEGGER/SEGGER_SYSVIEW.c",line 1169,column 9,is_stmt,isa 1
        B         ||$C$L109||           ; [DPU_V7M3_PIPE] |1169| 
        ; BRANCH OCCURS {||$C$L109||}    ; [] |1169| 
;* --------------------------------------------------------------------------*
	.dwendtag $C$DW$209

;* --------------------------------------------------------------------------*
||$C$L108||:    
	.dwpsn	file "../thirdparty/SEGGER/SEGGER/SEGGER_SYSVIEW.c",line 1142,column 7,is_stmt,isa 1
        LDRB      A1, [SP, #60]         ; [DPU_V7M3_PIPE] |1142| 
        SUBS      A1, A1, #37           ; [DPU_V7M3_PIPE] |1142| 
        BEQ       ||$C$L107||           ; [DPU_V7M3_PIPE] |1142| 
        ; BRANCHCC OCCURS {||$C$L107||}  ; [] |1142| 
;* --------------------------------------------------------------------------*
        SUBS      A1, A1, #51           ; [DPU_V7M3_PIPE] |1142| 
        BEQ       ||$C$L105||           ; [DPU_V7M3_PIPE] |1142| 
        ; BRANCHCC OCCURS {||$C$L105||}  ; [] |1142| 
;* --------------------------------------------------------------------------*
        SUBS      A1, A1, #11           ; [DPU_V7M3_PIPE] |1142| 
        BEQ       ||$C$L102||           ; [DPU_V7M3_PIPE] |1142| 
        ; BRANCHCC OCCURS {||$C$L102||}  ; [] |1142| 
;* --------------------------------------------------------------------------*
        SUBS      A1, A1, #1            ; [DPU_V7M3_PIPE] |1142| 
        BEQ       ||$C$L103||           ; [DPU_V7M3_PIPE] |1142| 
        ; BRANCHCC OCCURS {||$C$L103||}  ; [] |1142| 
;* --------------------------------------------------------------------------*
        SUBS      A1, A1, #12           ; [DPU_V7M3_PIPE] |1142| 
        BEQ       ||$C$L106||           ; [DPU_V7M3_PIPE] |1142| 
        ; BRANCHCC OCCURS {||$C$L106||}  ; [] |1142| 
;* --------------------------------------------------------------------------*
        SUBS      A1, A1, #5            ; [DPU_V7M3_PIPE] |1142| 
        BEQ       ||$C$L104||           ; [DPU_V7M3_PIPE] |1142| 
        ; BRANCHCC OCCURS {||$C$L104||}  ; [] |1142| 
;* --------------------------------------------------------------------------*
        SUBS      A1, A1, #3            ; [DPU_V7M3_PIPE] |1142| 
        BEQ       ||$C$L105||           ; [DPU_V7M3_PIPE] |1142| 
        ; BRANCHCC OCCURS {||$C$L105||}  ; [] |1142| 
;* --------------------------------------------------------------------------*
||$C$L109||:    
	.dwpsn	file "../thirdparty/SEGGER/SEGGER/SEGGER_SYSVIEW.c",line 1173,column 7,is_stmt,isa 1
        LDR       A1, [SP, #28]         ; [DPU_V7M3_PIPE] |1173| 
        ADDS      A1, A1, #1            ; [DPU_V7M3_PIPE] |1173| 
        STR       A1, [SP, #28]         ; [DPU_V7M3_PIPE] |1173| 
	.dwendtag $C$DW$208

	.dwpsn	file "../thirdparty/SEGGER/SEGGER/SEGGER_SYSVIEW.c",line 1174,column 5,is_stmt,isa 1
        B         ||$C$L111||           ; [DPU_V7M3_PIPE] |1174| 
        ; BRANCH OCCURS {||$C$L111||}    ; [] |1174| 
;******************************************************************************
;* CONSTANT TABLE                                                             *
;******************************************************************************
	.sect	".text"
	.align	4
||$C$CON11||:	.bits	_aPacket,32
;* --------------------------------------------------------------------------*
||$C$L110||:    
	.dwpsn	file "../thirdparty/SEGGER/SEGGER/SEGGER_SYSVIEW.c",line 1175,column 7,is_stmt,isa 1
        LDRB      A2, [SP, #60]         ; [DPU_V7M3_PIPE] |1175| 
        ADD       A1, SP, #8            ; [DPU_V7M3_PIPE] |1175| 
$C$DW$218	.dwtag  DW_TAG_TI_branch
	.dwattr $C$DW$218, DW_AT_low_pc(0x00)
	.dwattr $C$DW$218, DW_AT_name("_StoreChar")
	.dwattr $C$DW$218, DW_AT_TI_call

        BL        _StoreChar            ; [DPU_V7M3_PIPE] |1175| 
        ; CALL OCCURS {_StoreChar }      ; [] |1175| 
;* --------------------------------------------------------------------------*
||$C$L111||:    
	.dwendtag $C$DW$207

	.dwpsn	file "../thirdparty/SEGGER/SEGGER/SEGGER_SYSVIEW.c",line 1076,column 3,is_stmt,isa 1
        LDR       A1, [SP, #28]         ; [DPU_V7M3_PIPE] |1076| 
        LDRB      A1, [A1, #0]          ; [DPU_V7M3_PIPE] |1076| 
        CMP       A1, #0                ; [DPU_V7M3_PIPE] |1076| 
        BNE       ||$C$L85||            ; [DPU_V7M3_PIPE] |1076| 
        ; BRANCHCC OCCURS {||$C$L85||}   ; [] |1076| 
;* --------------------------------------------------------------------------*
||$C$L112||:    
	.dwpsn	file "../thirdparty/SEGGER/SEGGER/SEGGER_SYSVIEW.c",line 1182,column 3,is_stmt,isa 1
        LDR       A1, [SP, #24]         ; [DPU_V7M3_PIPE] |1182| 
        CMP       A1, #0                ; [DPU_V7M3_PIPE] |1182| 
        BEQ       ||$C$L117||           ; [DPU_V7M3_PIPE] |1182| 
        ; BRANCHCC OCCURS {||$C$L117||}  ; [] |1182| 
;* --------------------------------------------------------------------------*

$C$DW$219	.dwtag  DW_TAG_lexical_block
	.dwattr $C$DW$219, DW_AT_low_pc(0x00)
	.dwattr $C$DW$219, DW_AT_high_pc(0x00)
	.dwpsn	file "../thirdparty/SEGGER/SEGGER/SEGGER_SYSVIEW.c",line 1183,column 5,is_stmt,isa 1
        LDRB      A1, [SP, #24]         ; [DPU_V7M3_PIPE] |1183| 
        LDR       A2, [SP, #16]         ; [DPU_V7M3_PIPE] |1183| 
        STRB      A1, [A2, #0]          ; [DPU_V7M3_PIPE] |1183| 

$C$DW$220	.dwtag  DW_TAG_lexical_block
	.dwattr $C$DW$220, DW_AT_low_pc(0x00)
	.dwattr $C$DW$220, DW_AT_high_pc(0x00)
$C$DW$221	.dwtag  DW_TAG_variable
	.dwattr $C$DW$221, DW_AT_name("pSysviewPointer")
	.dwattr $C$DW$221, DW_AT_TI_symbol_name("pSysviewPointer")
	.dwattr $C$DW$221, DW_AT_type(*$C$DW$T$21)
	.dwattr $C$DW$221, DW_AT_location[DW_OP_breg13 68]

$C$DW$222	.dwtag  DW_TAG_variable
	.dwattr $C$DW$222, DW_AT_name("SysViewData")
	.dwattr $C$DW$222, DW_AT_TI_symbol_name("SysViewData")
	.dwattr $C$DW$222, DW_AT_type(*$C$DW$T$13)
	.dwattr $C$DW$222, DW_AT_location[DW_OP_breg13 72]

	.dwpsn	file "../thirdparty/SEGGER/SEGGER/SEGGER_SYSVIEW.c",line 1184,column 5,is_stmt,isa 1
        LDR       A1, [SP, #20]         ; [DPU_V7M3_PIPE] |1184| 
        LDR       A2, [SP, #12]         ; [DPU_V7M3_PIPE] |1184| 
        STR       A1, [SP, #72]         ; [DPU_V7M3_PIPE] |1184| 
        LDR       A1, [SP, #72]         ; [DPU_V7M3_PIPE] |1184| 
        STR       A2, [SP, #68]         ; [DPU_V7M3_PIPE] |1184| 
        CMP       A1, #127              ; [DPU_V7M3_PIPE] |1184| 
        BLS       ||$C$L114||           ; [DPU_V7M3_PIPE] |1184| 
        ; BRANCHCC OCCURS {||$C$L114||}  ; [] |1184| 
;* --------------------------------------------------------------------------*
;*   BEGIN LOOP ||$C$L113||
;*
;*   Loop source line                : 1184
;*   Loop closing brace source line  : 1184
;*   Known Minimum Trip Count        : 1
;*   Known Maximum Trip Count        : 4294967295
;*   Known Max Trip Count Factor     : 1
;* --------------------------------------------------------------------------*
||$C$L113||:    
        LDR       A2, [SP, #68]         ; [DPU_V7M3_PIPE] |1184| 
        LDR       A1, [SP, #72]         ; [DPU_V7M3_PIPE] |1184| 
        ADDS      A3, A2, #1            ; [DPU_V7M3_PIPE] |1184| 
        STR       A3, [SP, #68]         ; [DPU_V7M3_PIPE] |1184| 
        ORR       A1, A1, #128          ; [DPU_V7M3_PIPE] |1184| 
        STRB      A1, [A2, #0]          ; [DPU_V7M3_PIPE] |1184| 
        LDR       A1, [SP, #72]         ; [DPU_V7M3_PIPE] |1184| 
        LSRS      A1, A1, #7            ; [DPU_V7M3_PIPE] |1184| 
        STR       A1, [SP, #72]         ; [DPU_V7M3_PIPE] |1184| 
        LDR       A1, [SP, #72]         ; [DPU_V7M3_PIPE] |1184| 
        CMP       A1, #127              ; [DPU_V7M3_PIPE] |1184| 
        BHI       ||$C$L113||           ; [DPU_V7M3_PIPE] |1184| 
        ; BRANCHCC OCCURS {||$C$L113||}  ; [] |1184| 
;* --------------------------------------------------------------------------*
||$C$L114||:    
        LDR       A1, [SP, #68]         ; [DPU_V7M3_PIPE] |1184| 
        ADDS      A2, A1, #1            ; [DPU_V7M3_PIPE] |1184| 
        STR       A2, [SP, #68]         ; [DPU_V7M3_PIPE] |1184| 
        LDRB      A2, [SP, #72]         ; [DPU_V7M3_PIPE] |1184| 
        STRB      A2, [A1, #0]          ; [DPU_V7M3_PIPE] |1184| 
        LDR       A1, [SP, #68]         ; [DPU_V7M3_PIPE] |1184| 
        STR       A1, [SP, #12]         ; [DPU_V7M3_PIPE] |1184| 
	.dwendtag $C$DW$220


$C$DW$223	.dwtag  DW_TAG_lexical_block
	.dwattr $C$DW$223, DW_AT_low_pc(0x00)
	.dwattr $C$DW$223, DW_AT_high_pc(0x00)
$C$DW$224	.dwtag  DW_TAG_variable
	.dwattr $C$DW$224, DW_AT_name("pSysviewPointer")
	.dwattr $C$DW$224, DW_AT_TI_symbol_name("pSysviewPointer")
	.dwattr $C$DW$224, DW_AT_type(*$C$DW$T$21)
	.dwattr $C$DW$224, DW_AT_location[DW_OP_breg13 68]

$C$DW$225	.dwtag  DW_TAG_variable
	.dwattr $C$DW$225, DW_AT_name("SysViewData")
	.dwattr $C$DW$225, DW_AT_TI_symbol_name("SysViewData")
	.dwattr $C$DW$225, DW_AT_type(*$C$DW$T$13)
	.dwattr $C$DW$225, DW_AT_location[DW_OP_breg13 72]

	.dwpsn	file "../thirdparty/SEGGER/SEGGER/SEGGER_SYSVIEW.c",line 1185,column 5,is_stmt,isa 1
        MOVS      A1, #0                ; [DPU_V7M3_PIPE] |1185| 
        LDR       A2, [SP, #12]         ; [DPU_V7M3_PIPE] |1185| 
        STR       A1, [SP, #72]         ; [DPU_V7M3_PIPE] |1185| 
        LDR       A1, [SP, #72]         ; [DPU_V7M3_PIPE] |1185| 
        STR       A2, [SP, #68]         ; [DPU_V7M3_PIPE] |1185| 
        CMP       A1, #127              ; [DPU_V7M3_PIPE] |1185| 
        BLS       ||$C$L116||           ; [DPU_V7M3_PIPE] |1185| 
        ; BRANCHCC OCCURS {||$C$L116||}  ; [] |1185| 
;* --------------------------------------------------------------------------*
;*   BEGIN LOOP ||$C$L115||
;*
;*   Loop source line                : 1185
;*   Loop closing brace source line  : 1185
;*   Known Minimum Trip Count        : 1
;*   Known Maximum Trip Count        : 4294967295
;*   Known Max Trip Count Factor     : 1
;* --------------------------------------------------------------------------*
||$C$L115||:    
        LDR       A2, [SP, #68]         ; [DPU_V7M3_PIPE] |1185| 
        LDR       A1, [SP, #72]         ; [DPU_V7M3_PIPE] |1185| 
        ADDS      A3, A2, #1            ; [DPU_V7M3_PIPE] |1185| 
        STR       A3, [SP, #68]         ; [DPU_V7M3_PIPE] |1185| 
        ORR       A1, A1, #128          ; [DPU_V7M3_PIPE] |1185| 
        STRB      A1, [A2, #0]          ; [DPU_V7M3_PIPE] |1185| 
        LDR       A1, [SP, #72]         ; [DPU_V7M3_PIPE] |1185| 
        LSRS      A1, A1, #7            ; [DPU_V7M3_PIPE] |1185| 
        STR       A1, [SP, #72]         ; [DPU_V7M3_PIPE] |1185| 
        LDR       A1, [SP, #72]         ; [DPU_V7M3_PIPE] |1185| 
        CMP       A1, #127              ; [DPU_V7M3_PIPE] |1185| 
        BHI       ||$C$L115||           ; [DPU_V7M3_PIPE] |1185| 
        ; BRANCHCC OCCURS {||$C$L115||}  ; [] |1185| 
;* --------------------------------------------------------------------------*
||$C$L116||:    
        LDR       A1, [SP, #68]         ; [DPU_V7M3_PIPE] |1185| 
        ADDS      A2, A1, #1            ; [DPU_V7M3_PIPE] |1185| 
        STR       A2, [SP, #68]         ; [DPU_V7M3_PIPE] |1185| 
        LDRB      A2, [SP, #72]         ; [DPU_V7M3_PIPE] |1185| 
        STRB      A2, [A1, #0]          ; [DPU_V7M3_PIPE] |1185| 
        LDR       A1, [SP, #68]         ; [DPU_V7M3_PIPE] |1185| 
        STR       A1, [SP, #12]         ; [DPU_V7M3_PIPE] |1185| 
	.dwendtag $C$DW$223

	.dwpsn	file "../thirdparty/SEGGER/SEGGER/SEGGER_SYSVIEW.c",line 1186,column 5,is_stmt,isa 1
        LDR       A1, [SP, #16]         ; [DPU_V7M3_PIPE] |1186| 
        LDR       A2, [SP, #12]         ; [DPU_V7M3_PIPE] |1186| 
        MOVS      A3, #26               ; [DPU_V7M3_PIPE] |1186| 
$C$DW$226	.dwtag  DW_TAG_TI_branch
	.dwattr $C$DW$226, DW_AT_low_pc(0x00)
	.dwattr $C$DW$226, DW_AT_name("_SendPacket")
	.dwattr $C$DW$226, DW_AT_TI_call

        BL        _SendPacket           ; [DPU_V7M3_PIPE] |1186| 
        ; CALL OCCURS {_SendPacket }     ; [] |1186| 
	.dwendtag $C$DW$219

;* --------------------------------------------------------------------------*
||$C$L117||:    
	.dwpsn	file "../thirdparty/SEGGER/SEGGER/SEGGER_SYSVIEW.c",line 1192,column 3,is_stmt,isa 1
        LDR       A1, [SP, #64]         ; [DPU_V7M3_PIPE] |1192| 
        MSR       BASEPRI, A1           ; [DPU_V7M3_PIPE] |1192| 
	.dwendtag $C$DW$204

	.dwpsn	file "../thirdparty/SEGGER/SEGGER/SEGGER_SYSVIEW.c",line 1194,column 1,is_stmt,isa 1
        ADD       SP, SP, #76           ; [DPU_V7M3_PIPE] 
	.dwcfi	cfa_offset, 4
$C$DW$227	.dwtag  DW_TAG_TI_branch
	.dwattr $C$DW$227, DW_AT_low_pc(0x00)
	.dwattr $C$DW$227, DW_AT_TI_return

        POP       {PC}                  ; [DPU_V7M3_PIPE] 
	.dwcfi	cfa_offset, 0
        ; BRANCH OCCURS                  ; [] 
	.dwattr $C$DW$190, DW_AT_TI_end_file("../thirdparty/SEGGER/SEGGER/SEGGER_SYSVIEW.c")
	.dwattr $C$DW$190, DW_AT_TI_end_line(0x4aa)
	.dwattr $C$DW$190, DW_AT_TI_end_column(0x01)
	.dwendentry
	.dwendtag $C$DW$190

	.sect	".text"
	.clink
	.thumbfunc SEGGER_SYSVIEW_Init
	.thumb
	.global	SEGGER_SYSVIEW_Init

$C$DW$228	.dwtag  DW_TAG_subprogram
	.dwattr $C$DW$228, DW_AT_name("SEGGER_SYSVIEW_Init")
	.dwattr $C$DW$228, DW_AT_low_pc(SEGGER_SYSVIEW_Init)
	.dwattr $C$DW$228, DW_AT_high_pc(0x00)
	.dwattr $C$DW$228, DW_AT_TI_symbol_name("SEGGER_SYSVIEW_Init")
	.dwattr $C$DW$228, DW_AT_external
	.dwattr $C$DW$228, DW_AT_TI_begin_file("../thirdparty/SEGGER/SEGGER/SEGGER_SYSVIEW.c")
	.dwattr $C$DW$228, DW_AT_TI_begin_line(0x4cb)
	.dwattr $C$DW$228, DW_AT_TI_begin_column(0x06)
	.dwattr $C$DW$228, DW_AT_decl_file("../thirdparty/SEGGER/SEGGER/SEGGER_SYSVIEW.c")
	.dwattr $C$DW$228, DW_AT_decl_line(0x4cb)
	.dwattr $C$DW$228, DW_AT_decl_column(0x06)
	.dwattr $C$DW$228, DW_AT_TI_max_frame_size(0x18)
	.dwpsn	file "../thirdparty/SEGGER/SEGGER/SEGGER_SYSVIEW.c",line 1227,column 138,is_stmt,address SEGGER_SYSVIEW_Init,isa 1

	.dwfde $C$DW$CIE, SEGGER_SYSVIEW_Init
$C$DW$229	.dwtag  DW_TAG_formal_parameter
	.dwattr $C$DW$229, DW_AT_name("SysFreq")
	.dwattr $C$DW$229, DW_AT_TI_symbol_name("SysFreq")
	.dwattr $C$DW$229, DW_AT_type(*$C$DW$T$13)
	.dwattr $C$DW$229, DW_AT_location[DW_OP_reg0]

$C$DW$230	.dwtag  DW_TAG_formal_parameter
	.dwattr $C$DW$230, DW_AT_name("CPUFreq")
	.dwattr $C$DW$230, DW_AT_TI_symbol_name("CPUFreq")
	.dwattr $C$DW$230, DW_AT_type(*$C$DW$T$13)
	.dwattr $C$DW$230, DW_AT_location[DW_OP_reg1]

$C$DW$231	.dwtag  DW_TAG_formal_parameter
	.dwattr $C$DW$231, DW_AT_name("pOSAPI")
	.dwattr $C$DW$231, DW_AT_TI_symbol_name("pOSAPI")
	.dwattr $C$DW$231, DW_AT_type(*$C$DW$T$44)
	.dwattr $C$DW$231, DW_AT_location[DW_OP_reg2]

$C$DW$232	.dwtag  DW_TAG_formal_parameter
	.dwattr $C$DW$232, DW_AT_name("pfSendSysDesc")
	.dwattr $C$DW$232, DW_AT_TI_symbol_name("pfSendSysDesc")
	.dwattr $C$DW$232, DW_AT_type(*$C$DW$T$46)
	.dwattr $C$DW$232, DW_AT_location[DW_OP_reg3]


;*****************************************************************************
;* FUNCTION NAME: SEGGER_SYSVIEW_Init                                        *
;*                                                                           *
;*   Regs Modified     : A1,A2,A3,A4,V9,SP,LR,SR,D0,D0_hi,D1,D1_hi,D2,D2_hi, *
;*                           D3,D3_hi,D4,D4_hi,D5,D5_hi,D6,D6_hi,D7,D7_hi,   *
;*                           FPEXC,FPSCR                                     *
;*   Regs Used         : A1,A2,A3,A4,V9,SP,LR,SR,D0,D0_hi,D1,D1_hi,D2,D2_hi, *
;*                           D3,D3_hi,D4,D4_hi,D5,D5_hi,D6,D6_hi,D7,D7_hi,   *
;*                           FPEXC,FPSCR                                     *
;*   Local Frame Size  : 4 Args + 16 Auto + 4 Save = 24 byte                 *
;*****************************************************************************
SEGGER_SYSVIEW_Init:
;* --------------------------------------------------------------------------*
	.dwcfi	cfa_offset, 0
        PUSH      {LR}                  ; [DPU_V7M3_PIPE] 
	.dwcfi	cfa_offset, 4
	.dwcfi	save_reg_to_mem, 14, -4
        SUB       SP, SP, #20           ; [DPU_V7M3_PIPE] 
	.dwcfi	cfa_offset, 24
$C$DW$233	.dwtag  DW_TAG_variable
	.dwattr $C$DW$233, DW_AT_name("SysFreq")
	.dwattr $C$DW$233, DW_AT_TI_symbol_name("SysFreq")
	.dwattr $C$DW$233, DW_AT_type(*$C$DW$T$13)
	.dwattr $C$DW$233, DW_AT_location[DW_OP_breg13 4]

$C$DW$234	.dwtag  DW_TAG_variable
	.dwattr $C$DW$234, DW_AT_name("CPUFreq")
	.dwattr $C$DW$234, DW_AT_TI_symbol_name("CPUFreq")
	.dwattr $C$DW$234, DW_AT_type(*$C$DW$T$13)
	.dwattr $C$DW$234, DW_AT_location[DW_OP_breg13 8]

$C$DW$235	.dwtag  DW_TAG_variable
	.dwattr $C$DW$235, DW_AT_name("pOSAPI")
	.dwattr $C$DW$235, DW_AT_TI_symbol_name("pOSAPI")
	.dwattr $C$DW$235, DW_AT_type(*$C$DW$T$44)
	.dwattr $C$DW$235, DW_AT_location[DW_OP_breg13 12]

$C$DW$236	.dwtag  DW_TAG_variable
	.dwattr $C$DW$236, DW_AT_name("pfSendSysDesc")
	.dwattr $C$DW$236, DW_AT_TI_symbol_name("pfSendSysDesc")
	.dwattr $C$DW$236, DW_AT_type(*$C$DW$T$46)
	.dwattr $C$DW$236, DW_AT_location[DW_OP_breg13 16]

        STR       A4, [SP, #16]         ; [DPU_V7M3_PIPE] |1227| 
        STR       A3, [SP, #12]         ; [DPU_V7M3_PIPE] |1227| 
        STR       A2, [SP, #8]          ; [DPU_V7M3_PIPE] |1227| 
        STR       A1, [SP, #4]          ; [DPU_V7M3_PIPE] |1227| 
	.dwpsn	file "../thirdparty/SEGGER/SEGGER/SEGGER_SYSVIEW.c",line 1250,column 3,is_stmt,isa 1
        LDR       A3, $C$CON12          ; [DPU_V7M3_PIPE] |1250| 
        MOVS      A1, #0                ; [DPU_V7M3_PIPE] |1250| 
        ADR       A2, $C$SL1            ; [DPU_V7M3_PIPE] |1250| 
        MOV       A4, #8192             ; [DPU_V7M3_PIPE] |1250| 
        STR       A1, [SP, #0]          ; [DPU_V7M3_PIPE] |1250| 
        MOVS      A1, #1                ; [DPU_V7M3_PIPE] |1250| 
$C$DW$237	.dwtag  DW_TAG_TI_branch
	.dwattr $C$DW$237, DW_AT_low_pc(0x00)
	.dwattr $C$DW$237, DW_AT_name("SEGGER_RTT_ConfigUpBuffer")
	.dwattr $C$DW$237, DW_AT_TI_call

        BL        SEGGER_RTT_ConfigUpBuffer ; [DPU_V7M3_PIPE] |1250| 
        ; CALL OCCURS {SEGGER_RTT_ConfigUpBuffer }  ; [] |1250| 
	.dwpsn	file "../thirdparty/SEGGER/SEGGER/SEGGER_SYSVIEW.c",line 1251,column 3,is_stmt,isa 1
        MOVS      A1, #0                ; [DPU_V7M3_PIPE] |1251| 
        ADR       A2, $C$SL1            ; [DPU_V7M3_PIPE] |1251| 
        MOVS      A4, #8                ; [DPU_V7M3_PIPE] |1251| 
        LDR       A3, $C$CON13          ; [DPU_V7M3_PIPE] |1251| 
        STR       A1, [SP, #0]          ; [DPU_V7M3_PIPE] |1251| 
        MOVS      A1, #1                ; [DPU_V7M3_PIPE] |1251| 
$C$DW$238	.dwtag  DW_TAG_TI_branch
	.dwattr $C$DW$238, DW_AT_low_pc(0x00)
	.dwattr $C$DW$238, DW_AT_name("SEGGER_RTT_ConfigDownBuffer")
	.dwattr $C$DW$238, DW_AT_TI_call

        BL        SEGGER_RTT_ConfigDownBuffer ; [DPU_V7M3_PIPE] |1251| 
        ; CALL OCCURS {SEGGER_RTT_ConfigDownBuffer }  ; [] |1251| 
	.dwpsn	file "../thirdparty/SEGGER/SEGGER/SEGGER_SYSVIEW.c",line 1260,column 3,is_stmt,isa 1
        LDR       A2, $C$CON14          ; [DPU_V7M3_PIPE] |1260| 
        MOV       A1, #268435456        ; [DPU_V7M3_PIPE] |1260| 
        STR       A1, [A2, #0]          ; [DPU_V7M3_PIPE] |1260| 
	.dwpsn	file "../thirdparty/SEGGER/SEGGER/SEGGER_SYSVIEW.c",line 1261,column 3,is_stmt,isa 1
        LDR       A1, $C$CON19          ; [DPU_V7M3_PIPE] |1261| 
        LDR       A2, $C$CON20          ; [DPU_V7M3_PIPE] |1261| 
        LDR       A1, [A1, #0]          ; [DPU_V7M3_PIPE] |1261| 
        STR       A1, [A2, #0]          ; [DPU_V7M3_PIPE] |1261| 
	.dwpsn	file "../thirdparty/SEGGER/SEGGER/SEGGER_SYSVIEW.c",line 1262,column 3,is_stmt,isa 1
        LDR       A2, $C$CON15          ; [DPU_V7M3_PIPE] |1262| 
        LDR       A1, [SP, #12]         ; [DPU_V7M3_PIPE] |1262| 
        STR       A1, [A2, #0]          ; [DPU_V7M3_PIPE] |1262| 
	.dwpsn	file "../thirdparty/SEGGER/SEGGER/SEGGER_SYSVIEW.c",line 1263,column 3,is_stmt,isa 1
        LDR       A2, $C$CON16          ; [DPU_V7M3_PIPE] |1263| 
        LDR       A1, [SP, #4]          ; [DPU_V7M3_PIPE] |1263| 
        STR       A1, [A2, #0]          ; [DPU_V7M3_PIPE] |1263| 
	.dwpsn	file "../thirdparty/SEGGER/SEGGER/SEGGER_SYSVIEW.c",line 1264,column 3,is_stmt,isa 1
        LDR       A2, $C$CON17          ; [DPU_V7M3_PIPE] |1264| 
        LDR       A1, [SP, #8]          ; [DPU_V7M3_PIPE] |1264| 
        STR       A1, [A2, #0]          ; [DPU_V7M3_PIPE] |1264| 
	.dwpsn	file "../thirdparty/SEGGER/SEGGER/SEGGER_SYSVIEW.c",line 1265,column 3,is_stmt,isa 1
        LDR       A2, $C$CON18          ; [DPU_V7M3_PIPE] |1265| 
        LDR       A1, [SP, #16]         ; [DPU_V7M3_PIPE] |1265| 
        STR       A1, [A2, #0]          ; [DPU_V7M3_PIPE] |1265| 
	.dwpsn	file "../thirdparty/SEGGER/SEGGER/SEGGER_SYSVIEW.c",line 1266,column 3,is_stmt,isa 1
        LDR       A2, $C$CON21          ; [DPU_V7M3_PIPE] |1266| 
        MOVS      A1, #0                ; [DPU_V7M3_PIPE] |1266| 
        STRB      A1, [A2, #0]          ; [DPU_V7M3_PIPE] |1266| 
	.dwpsn	file "../thirdparty/SEGGER/SEGGER/SEGGER_SYSVIEW.c",line 1268,column 1,is_stmt,isa 1
        ADD       SP, SP, #20           ; [DPU_V7M3_PIPE] 
	.dwcfi	cfa_offset, 4
$C$DW$239	.dwtag  DW_TAG_TI_branch
	.dwattr $C$DW$239, DW_AT_low_pc(0x00)
	.dwattr $C$DW$239, DW_AT_TI_return

        POP       {PC}                  ; [DPU_V7M3_PIPE] 
	.dwcfi	cfa_offset, 0
        ; BRANCH OCCURS                  ; [] 
	.dwattr $C$DW$228, DW_AT_TI_end_file("../thirdparty/SEGGER/SEGGER/SEGGER_SYSVIEW.c")
	.dwattr $C$DW$228, DW_AT_TI_end_line(0x4f4)
	.dwattr $C$DW$228, DW_AT_TI_end_column(0x01)
	.dwendentry
	.dwendtag $C$DW$228

	.sect	".text"
	.clink
	.thumbfunc SEGGER_SYSVIEW_SetRAMBase
	.thumb
	.global	SEGGER_SYSVIEW_SetRAMBase

$C$DW$240	.dwtag  DW_TAG_subprogram
	.dwattr $C$DW$240, DW_AT_name("SEGGER_SYSVIEW_SetRAMBase")
	.dwattr $C$DW$240, DW_AT_low_pc(SEGGER_SYSVIEW_SetRAMBase)
	.dwattr $C$DW$240, DW_AT_high_pc(0x00)
	.dwattr $C$DW$240, DW_AT_TI_symbol_name("SEGGER_SYSVIEW_SetRAMBase")
	.dwattr $C$DW$240, DW_AT_external
	.dwattr $C$DW$240, DW_AT_TI_begin_file("../thirdparty/SEGGER/SEGGER/SEGGER_SYSVIEW.c")
	.dwattr $C$DW$240, DW_AT_TI_begin_line(0x501)
	.dwattr $C$DW$240, DW_AT_TI_begin_column(0x06)
	.dwattr $C$DW$240, DW_AT_decl_file("../thirdparty/SEGGER/SEGGER/SEGGER_SYSVIEW.c")
	.dwattr $C$DW$240, DW_AT_decl_line(0x501)
	.dwattr $C$DW$240, DW_AT_decl_column(0x06)
	.dwattr $C$DW$240, DW_AT_TI_max_frame_size(0x08)
	.dwpsn	file "../thirdparty/SEGGER/SEGGER/SEGGER_SYSVIEW.c",line 1281,column 52,is_stmt,address SEGGER_SYSVIEW_SetRAMBase,isa 1

	.dwfde $C$DW$CIE, SEGGER_SYSVIEW_SetRAMBase
$C$DW$241	.dwtag  DW_TAG_formal_parameter
	.dwattr $C$DW$241, DW_AT_name("RAMBaseAddress")
	.dwattr $C$DW$241, DW_AT_TI_symbol_name("RAMBaseAddress")
	.dwattr $C$DW$241, DW_AT_type(*$C$DW$T$13)
	.dwattr $C$DW$241, DW_AT_location[DW_OP_reg0]


;*****************************************************************************
;* FUNCTION NAME: SEGGER_SYSVIEW_SetRAMBase                                  *
;*                                                                           *
;*   Regs Modified     : A1,A2,SP                                            *
;*   Regs Used         : A1,A2,SP,LR                                         *
;*   Local Frame Size  : 0 Args + 4 Auto + 0 Save = 4 byte                   *
;*****************************************************************************
SEGGER_SYSVIEW_SetRAMBase:
;* --------------------------------------------------------------------------*
	.dwcfi	cfa_offset, 0
        SUB       SP, SP, #8            ; [DPU_V7M3_PIPE] 
	.dwcfi	cfa_offset, 8
$C$DW$242	.dwtag  DW_TAG_variable
	.dwattr $C$DW$242, DW_AT_name("RAMBaseAddress")
	.dwattr $C$DW$242, DW_AT_TI_symbol_name("RAMBaseAddress")
	.dwattr $C$DW$242, DW_AT_type(*$C$DW$T$13)
	.dwattr $C$DW$242, DW_AT_location[DW_OP_breg13 0]

        STR       A1, [SP, #0]          ; [DPU_V7M3_PIPE] |1281| 
	.dwpsn	file "../thirdparty/SEGGER/SEGGER/SEGGER_SYSVIEW.c",line 1282,column 3,is_stmt,isa 1
        LDR       A2, $C$CON14          ; [DPU_V7M3_PIPE] |1282| 
        LDR       A1, [SP, #0]          ; [DPU_V7M3_PIPE] |1282| 
        STR       A1, [A2, #0]          ; [DPU_V7M3_PIPE] |1282| 
	.dwpsn	file "../thirdparty/SEGGER/SEGGER/SEGGER_SYSVIEW.c",line 1283,column 1,is_stmt,isa 1
        ADD       SP, SP, #8            ; [DPU_V7M3_PIPE] 
	.dwcfi	cfa_offset, 0
$C$DW$243	.dwtag  DW_TAG_TI_branch
	.dwattr $C$DW$243, DW_AT_low_pc(0x00)
	.dwattr $C$DW$243, DW_AT_TI_return

        BX        LR                    ; [DPU_V7M3_PIPE] 
        ; BRANCH OCCURS                  ; [] 
	.dwattr $C$DW$240, DW_AT_TI_end_file("../thirdparty/SEGGER/SEGGER/SEGGER_SYSVIEW.c")
	.dwattr $C$DW$240, DW_AT_TI_end_line(0x503)
	.dwattr $C$DW$240, DW_AT_TI_end_column(0x01)
	.dwendentry
	.dwendtag $C$DW$240

	.sect	".text"
	.clink
	.thumbfunc SEGGER_SYSVIEW_RecordVoid
	.thumb
	.global	SEGGER_SYSVIEW_RecordVoid

$C$DW$244	.dwtag  DW_TAG_subprogram
	.dwattr $C$DW$244, DW_AT_name("SEGGER_SYSVIEW_RecordVoid")
	.dwattr $C$DW$244, DW_AT_low_pc(SEGGER_SYSVIEW_RecordVoid)
	.dwattr $C$DW$244, DW_AT_high_pc(0x00)
	.dwattr $C$DW$244, DW_AT_TI_symbol_name("SEGGER_SYSVIEW_RecordVoid")
	.dwattr $C$DW$244, DW_AT_external
	.dwattr $C$DW$244, DW_AT_TI_begin_file("../thirdparty/SEGGER/SEGGER/SEGGER_SYSVIEW.c")
	.dwattr $C$DW$244, DW_AT_TI_begin_line(0x50f)
	.dwattr $C$DW$244, DW_AT_TI_begin_column(0x06)
	.dwattr $C$DW$244, DW_AT_decl_file("../thirdparty/SEGGER/SEGGER/SEGGER_SYSVIEW.c")
	.dwattr $C$DW$244, DW_AT_decl_line(0x50f)
	.dwattr $C$DW$244, DW_AT_decl_column(0x06)
	.dwattr $C$DW$244, DW_AT_TI_max_frame_size(0x10)
	.dwpsn	file "../thirdparty/SEGGER/SEGGER/SEGGER_SYSVIEW.c",line 1295,column 54,is_stmt,address SEGGER_SYSVIEW_RecordVoid,isa 1

	.dwfde $C$DW$CIE, SEGGER_SYSVIEW_RecordVoid
$C$DW$245	.dwtag  DW_TAG_formal_parameter
	.dwattr $C$DW$245, DW_AT_name("EventID")
	.dwattr $C$DW$245, DW_AT_TI_symbol_name("EventID")
	.dwattr $C$DW$245, DW_AT_type(*$C$DW$T$11)
	.dwattr $C$DW$245, DW_AT_location[DW_OP_reg0]


;*****************************************************************************
;* FUNCTION NAME: SEGGER_SYSVIEW_RecordVoid                                  *
;*                                                                           *
;*   Regs Modified     : A1,A2,A3,A4,V9,SP,LR,SR,D0,D0_hi,D1,D1_hi,D2,D2_hi, *
;*                           D3,D3_hi,D4,D4_hi,D5,D5_hi,D6,D6_hi,D7,D7_hi,   *
;*                           FPEXC,FPSCR                                     *
;*   Regs Used         : A1,A2,A3,A4,V9,SP,LR,SR,D0,D0_hi,D1,D1_hi,D2,D2_hi, *
;*                           D3,D3_hi,D4,D4_hi,D5,D5_hi,D6,D6_hi,D7,D7_hi,   *
;*                           FPEXC,FPSCR                                     *
;*   Local Frame Size  : 0 Args + 12 Auto + 4 Save = 16 byte                 *
;*****************************************************************************
SEGGER_SYSVIEW_RecordVoid:
;* --------------------------------------------------------------------------*
	.dwcfi	cfa_offset, 0
        PUSH      {A2, A3, A4, LR}      ; [DPU_V7M3_PIPE] 
	.dwcfi	cfa_offset, 16
	.dwcfi	save_reg_to_mem, 14, -4
	.dwcfi	save_reg_to_mem, 3, -8
	.dwcfi	save_reg_to_mem, 2, -12
	.dwcfi	save_reg_to_mem, 1, -16
$C$DW$246	.dwtag  DW_TAG_variable
	.dwattr $C$DW$246, DW_AT_name("EventID")
	.dwattr $C$DW$246, DW_AT_TI_symbol_name("EventID")
	.dwattr $C$DW$246, DW_AT_type(*$C$DW$T$11)
	.dwattr $C$DW$246, DW_AT_location[DW_OP_breg13 0]

$C$DW$247	.dwtag  DW_TAG_variable
	.dwattr $C$DW$247, DW_AT_name("pPayloadStart")
	.dwattr $C$DW$247, DW_AT_TI_symbol_name("pPayloadStart")
	.dwattr $C$DW$247, DW_AT_type(*$C$DW$T$21)
	.dwattr $C$DW$247, DW_AT_location[DW_OP_breg13 4]

        STR       A1, [SP, #0]          ; [DPU_V7M3_PIPE] |1295| 

$C$DW$248	.dwtag  DW_TAG_lexical_block
	.dwattr $C$DW$248, DW_AT_low_pc(0x00)
	.dwattr $C$DW$248, DW_AT_high_pc(0x00)
$C$DW$249	.dwtag  DW_TAG_variable
	.dwattr $C$DW$249, DW_AT_name("LockState")
	.dwattr $C$DW$249, DW_AT_TI_symbol_name("LockState")
	.dwattr $C$DW$249, DW_AT_type(*$C$DW$T$11)
	.dwattr $C$DW$249, DW_AT_location[DW_OP_breg13 8]

	.dwpsn	file "../thirdparty/SEGGER/SEGGER/SEGGER_SYSVIEW.c",line 1297,column 3,is_stmt,isa 1
        MOVS      A1, #32               ; [DPU_V7M3_PIPE] |1297| 
        MRS       A2, BASEPRI           ; [DPU_V7M3_PIPE] |1297| 
        MSR       BASEPRI, A1           ; [DPU_V7M3_PIPE] |1297| 
        LDR       A1, $C$CON22          ; [DPU_V7M3_PIPE] |1297| 
        STR       A2, [SP, #8]          ; [DPU_V7M3_PIPE] |1297| 
$C$DW$250	.dwtag  DW_TAG_TI_branch
	.dwattr $C$DW$250, DW_AT_low_pc(0x00)
	.dwattr $C$DW$250, DW_AT_name("_PreparePacket")
	.dwattr $C$DW$250, DW_AT_TI_call

        BL        _PreparePacket        ; [DPU_V7M3_PIPE] |1297| 
        ; CALL OCCURS {_PreparePacket }  ; [] |1297| 
        STR       A1, [SP, #4]          ; [DPU_V7M3_PIPE] |1297| 
	.dwpsn	file "../thirdparty/SEGGER/SEGGER/SEGGER_SYSVIEW.c",line 1299,column 3,is_stmt,isa 1
        LDR       A3, [SP, #0]          ; [DPU_V7M3_PIPE] |1299| 
        LDR       A2, [SP, #4]          ; [DPU_V7M3_PIPE] |1299| 
        LDR       A1, [SP, #4]          ; [DPU_V7M3_PIPE] |1299| 
$C$DW$251	.dwtag  DW_TAG_TI_branch
	.dwattr $C$DW$251, DW_AT_low_pc(0x00)
	.dwattr $C$DW$251, DW_AT_name("_SendPacket")
	.dwattr $C$DW$251, DW_AT_TI_call

        BL        _SendPacket           ; [DPU_V7M3_PIPE] |1299| 
        ; CALL OCCURS {_SendPacket }     ; [] |1299| 
	.dwpsn	file "../thirdparty/SEGGER/SEGGER/SEGGER_SYSVIEW.c",line 1300,column 3,is_stmt,isa 1
        LDR       A1, [SP, #8]          ; [DPU_V7M3_PIPE] |1300| 
        MSR       BASEPRI, A1           ; [DPU_V7M3_PIPE] |1300| 
	.dwendtag $C$DW$248

	.dwpsn	file "../thirdparty/SEGGER/SEGGER/SEGGER_SYSVIEW.c",line 1301,column 1,is_stmt,isa 1
$C$DW$252	.dwtag  DW_TAG_TI_branch
	.dwattr $C$DW$252, DW_AT_low_pc(0x00)
	.dwattr $C$DW$252, DW_AT_TI_return

        POP       {A2, A3, A4, PC}      ; [DPU_V7M3_PIPE] 
	.dwcfi	cfa_offset, 0
	.dwcfi	restore_reg, 3
	.dwcfi	restore_reg, 2
	.dwcfi	restore_reg, 1
        ; BRANCH OCCURS                  ; [] 
	.dwattr $C$DW$244, DW_AT_TI_end_file("../thirdparty/SEGGER/SEGGER/SEGGER_SYSVIEW.c")
	.dwattr $C$DW$244, DW_AT_TI_end_line(0x515)
	.dwattr $C$DW$244, DW_AT_TI_end_column(0x01)
	.dwendentry
	.dwendtag $C$DW$244

	.sect	".text"
	.clink
	.thumbfunc SEGGER_SYSVIEW_RecordU32
	.thumb
	.global	SEGGER_SYSVIEW_RecordU32

$C$DW$253	.dwtag  DW_TAG_subprogram
	.dwattr $C$DW$253, DW_AT_name("SEGGER_SYSVIEW_RecordU32")
	.dwattr $C$DW$253, DW_AT_low_pc(SEGGER_SYSVIEW_RecordU32)
	.dwattr $C$DW$253, DW_AT_high_pc(0x00)
	.dwattr $C$DW$253, DW_AT_TI_symbol_name("SEGGER_SYSVIEW_RecordU32")
	.dwattr $C$DW$253, DW_AT_external
	.dwattr $C$DW$253, DW_AT_TI_begin_file("../thirdparty/SEGGER/SEGGER/SEGGER_SYSVIEW.c")
	.dwattr $C$DW$253, DW_AT_TI_begin_line(0x523)
	.dwattr $C$DW$253, DW_AT_TI_begin_column(0x06)
	.dwattr $C$DW$253, DW_AT_decl_file("../thirdparty/SEGGER/SEGGER/SEGGER_SYSVIEW.c")
	.dwattr $C$DW$253, DW_AT_decl_line(0x523)
	.dwattr $C$DW$253, DW_AT_decl_column(0x06)
	.dwattr $C$DW$253, DW_AT_TI_max_frame_size(0x20)
	.dwpsn	file "../thirdparty/SEGGER/SEGGER/SEGGER_SYSVIEW.c",line 1315,column 64,is_stmt,address SEGGER_SYSVIEW_RecordU32,isa 1

	.dwfde $C$DW$CIE, SEGGER_SYSVIEW_RecordU32
$C$DW$254	.dwtag  DW_TAG_formal_parameter
	.dwattr $C$DW$254, DW_AT_name("EventID")
	.dwattr $C$DW$254, DW_AT_TI_symbol_name("EventID")
	.dwattr $C$DW$254, DW_AT_type(*$C$DW$T$11)
	.dwattr $C$DW$254, DW_AT_location[DW_OP_reg0]

$C$DW$255	.dwtag  DW_TAG_formal_parameter
	.dwattr $C$DW$255, DW_AT_name("Value")
	.dwattr $C$DW$255, DW_AT_TI_symbol_name("Value")
	.dwattr $C$DW$255, DW_AT_type(*$C$DW$T$13)
	.dwattr $C$DW$255, DW_AT_location[DW_OP_reg1]


;*****************************************************************************
;* FUNCTION NAME: SEGGER_SYSVIEW_RecordU32                                   *
;*                                                                           *
;*   Regs Modified     : A1,A2,A3,A4,V9,SP,LR,SR,D0,D0_hi,D1,D1_hi,D2,D2_hi, *
;*                           D3,D3_hi,D4,D4_hi,D5,D5_hi,D6,D6_hi,D7,D7_hi,   *
;*                           FPEXC,FPSCR                                     *
;*   Regs Used         : A1,A2,A3,A4,V9,SP,LR,SR,D0,D0_hi,D1,D1_hi,D2,D2_hi, *
;*                           D3,D3_hi,D4,D4_hi,D5,D5_hi,D6,D6_hi,D7,D7_hi,   *
;*                           FPEXC,FPSCR                                     *
;*   Local Frame Size  : 0 Args + 28 Auto + 4 Save = 32 byte                 *
;*****************************************************************************
SEGGER_SYSVIEW_RecordU32:
;* --------------------------------------------------------------------------*
	.dwcfi	cfa_offset, 0
        PUSH      {LR}                  ; [DPU_V7M3_PIPE] 
	.dwcfi	cfa_offset, 4
	.dwcfi	save_reg_to_mem, 14, -4
        SUB       SP, SP, #28           ; [DPU_V7M3_PIPE] 
	.dwcfi	cfa_offset, 32
$C$DW$256	.dwtag  DW_TAG_variable
	.dwattr $C$DW$256, DW_AT_name("EventID")
	.dwattr $C$DW$256, DW_AT_TI_symbol_name("EventID")
	.dwattr $C$DW$256, DW_AT_type(*$C$DW$T$11)
	.dwattr $C$DW$256, DW_AT_location[DW_OP_breg13 0]

$C$DW$257	.dwtag  DW_TAG_variable
	.dwattr $C$DW$257, DW_AT_name("Value")
	.dwattr $C$DW$257, DW_AT_TI_symbol_name("Value")
	.dwattr $C$DW$257, DW_AT_type(*$C$DW$T$13)
	.dwattr $C$DW$257, DW_AT_location[DW_OP_breg13 4]

$C$DW$258	.dwtag  DW_TAG_variable
	.dwattr $C$DW$258, DW_AT_name("pPayload")
	.dwattr $C$DW$258, DW_AT_TI_symbol_name("pPayload")
	.dwattr $C$DW$258, DW_AT_type(*$C$DW$T$21)
	.dwattr $C$DW$258, DW_AT_location[DW_OP_breg13 8]

$C$DW$259	.dwtag  DW_TAG_variable
	.dwattr $C$DW$259, DW_AT_name("pPayloadStart")
	.dwattr $C$DW$259, DW_AT_TI_symbol_name("pPayloadStart")
	.dwattr $C$DW$259, DW_AT_type(*$C$DW$T$21)
	.dwattr $C$DW$259, DW_AT_location[DW_OP_breg13 12]

        STR       A2, [SP, #4]          ; [DPU_V7M3_PIPE] |1315| 
        STR       A1, [SP, #0]          ; [DPU_V7M3_PIPE] |1315| 

$C$DW$260	.dwtag  DW_TAG_lexical_block
	.dwattr $C$DW$260, DW_AT_low_pc(0x00)
	.dwattr $C$DW$260, DW_AT_high_pc(0x00)
$C$DW$261	.dwtag  DW_TAG_variable
	.dwattr $C$DW$261, DW_AT_name("LockState")
	.dwattr $C$DW$261, DW_AT_TI_symbol_name("LockState")
	.dwattr $C$DW$261, DW_AT_type(*$C$DW$T$11)
	.dwattr $C$DW$261, DW_AT_location[DW_OP_breg13 16]

	.dwpsn	file "../thirdparty/SEGGER/SEGGER/SEGGER_SYSVIEW.c",line 1318,column 3,is_stmt,isa 1
        MOVS      A1, #32               ; [DPU_V7M3_PIPE] |1318| 
        MRS       A2, BASEPRI           ; [DPU_V7M3_PIPE] |1318| 
        MSR       BASEPRI, A1           ; [DPU_V7M3_PIPE] |1318| 
        LDR       A1, $C$CON22          ; [DPU_V7M3_PIPE] |1318| 
        STR       A2, [SP, #16]         ; [DPU_V7M3_PIPE] |1318| 
$C$DW$262	.dwtag  DW_TAG_TI_branch
	.dwattr $C$DW$262, DW_AT_low_pc(0x00)
	.dwattr $C$DW$262, DW_AT_name("_PreparePacket")
	.dwattr $C$DW$262, DW_AT_TI_call

        BL        _PreparePacket        ; [DPU_V7M3_PIPE] |1318| 
        ; CALL OCCURS {_PreparePacket }  ; [] |1318| 
        STR       A1, [SP, #12]         ; [DPU_V7M3_PIPE] |1318| 
	.dwpsn	file "../thirdparty/SEGGER/SEGGER/SEGGER_SYSVIEW.c",line 1320,column 3,is_stmt,isa 1
        LDR       A1, [SP, #12]         ; [DPU_V7M3_PIPE] |1320| 
        STR       A1, [SP, #8]          ; [DPU_V7M3_PIPE] |1320| 

$C$DW$263	.dwtag  DW_TAG_lexical_block
	.dwattr $C$DW$263, DW_AT_low_pc(0x00)
	.dwattr $C$DW$263, DW_AT_high_pc(0x00)
$C$DW$264	.dwtag  DW_TAG_variable
	.dwattr $C$DW$264, DW_AT_name("pSysviewPointer")
	.dwattr $C$DW$264, DW_AT_TI_symbol_name("pSysviewPointer")
	.dwattr $C$DW$264, DW_AT_type(*$C$DW$T$21)
	.dwattr $C$DW$264, DW_AT_location[DW_OP_breg13 20]

$C$DW$265	.dwtag  DW_TAG_variable
	.dwattr $C$DW$265, DW_AT_name("SysViewData")
	.dwattr $C$DW$265, DW_AT_TI_symbol_name("SysViewData")
	.dwattr $C$DW$265, DW_AT_type(*$C$DW$T$13)
	.dwattr $C$DW$265, DW_AT_location[DW_OP_breg13 24]

	.dwpsn	file "../thirdparty/SEGGER/SEGGER/SEGGER_SYSVIEW.c",line 1321,column 3,is_stmt,isa 1
        LDR       A1, [SP, #4]          ; [DPU_V7M3_PIPE] |1321| 
        LDR       A2, [SP, #8]          ; [DPU_V7M3_PIPE] |1321| 
        STR       A1, [SP, #24]         ; [DPU_V7M3_PIPE] |1321| 
        LDR       A1, [SP, #24]         ; [DPU_V7M3_PIPE] |1321| 
        STR       A2, [SP, #20]         ; [DPU_V7M3_PIPE] |1321| 
        CMP       A1, #127              ; [DPU_V7M3_PIPE] |1321| 
        BLS       ||$C$L119||           ; [DPU_V7M3_PIPE] |1321| 
        ; BRANCHCC OCCURS {||$C$L119||}  ; [] |1321| 
;* --------------------------------------------------------------------------*
;*   BEGIN LOOP ||$C$L118||
;*
;*   Loop source line                : 1321
;*   Loop closing brace source line  : 1321
;*   Known Minimum Trip Count        : 1
;*   Known Maximum Trip Count        : 4294967295
;*   Known Max Trip Count Factor     : 1
;* --------------------------------------------------------------------------*
||$C$L118||:    
        LDR       A2, [SP, #20]         ; [DPU_V7M3_PIPE] |1321| 
        LDR       A1, [SP, #24]         ; [DPU_V7M3_PIPE] |1321| 
        ADDS      A3, A2, #1            ; [DPU_V7M3_PIPE] |1321| 
        STR       A3, [SP, #20]         ; [DPU_V7M3_PIPE] |1321| 
        ORR       A1, A1, #128          ; [DPU_V7M3_PIPE] |1321| 
        STRB      A1, [A2, #0]          ; [DPU_V7M3_PIPE] |1321| 
        LDR       A1, [SP, #24]         ; [DPU_V7M3_PIPE] |1321| 
        LSRS      A1, A1, #7            ; [DPU_V7M3_PIPE] |1321| 
        STR       A1, [SP, #24]         ; [DPU_V7M3_PIPE] |1321| 
        LDR       A1, [SP, #24]         ; [DPU_V7M3_PIPE] |1321| 
        CMP       A1, #127              ; [DPU_V7M3_PIPE] |1321| 
        BHI       ||$C$L118||           ; [DPU_V7M3_PIPE] |1321| 
        ; BRANCHCC OCCURS {||$C$L118||}  ; [] |1321| 
;* --------------------------------------------------------------------------*
||$C$L119||:    
        LDR       A1, [SP, #20]         ; [DPU_V7M3_PIPE] |1321| 
        ADDS      A2, A1, #1            ; [DPU_V7M3_PIPE] |1321| 
        STR       A2, [SP, #20]         ; [DPU_V7M3_PIPE] |1321| 
        LDRB      A2, [SP, #24]         ; [DPU_V7M3_PIPE] |1321| 
        STRB      A2, [A1, #0]          ; [DPU_V7M3_PIPE] |1321| 
        LDR       A1, [SP, #20]         ; [DPU_V7M3_PIPE] |1321| 
        STR       A1, [SP, #8]          ; [DPU_V7M3_PIPE] |1321| 
	.dwendtag $C$DW$263

	.dwpsn	file "../thirdparty/SEGGER/SEGGER/SEGGER_SYSVIEW.c",line 1322,column 3,is_stmt,isa 1
        LDR       A3, [SP, #0]          ; [DPU_V7M3_PIPE] |1322| 
        LDR       A1, [SP, #12]         ; [DPU_V7M3_PIPE] |1322| 
        LDR       A2, [SP, #8]          ; [DPU_V7M3_PIPE] |1322| 
$C$DW$266	.dwtag  DW_TAG_TI_branch
	.dwattr $C$DW$266, DW_AT_low_pc(0x00)
	.dwattr $C$DW$266, DW_AT_name("_SendPacket")
	.dwattr $C$DW$266, DW_AT_TI_call

        BL        _SendPacket           ; [DPU_V7M3_PIPE] |1322| 
        ; CALL OCCURS {_SendPacket }     ; [] |1322| 
	.dwpsn	file "../thirdparty/SEGGER/SEGGER/SEGGER_SYSVIEW.c",line 1323,column 3,is_stmt,isa 1
        LDR       A1, [SP, #16]         ; [DPU_V7M3_PIPE] |1323| 
        MSR       BASEPRI, A1           ; [DPU_V7M3_PIPE] |1323| 
	.dwendtag $C$DW$260

	.dwpsn	file "../thirdparty/SEGGER/SEGGER/SEGGER_SYSVIEW.c",line 1324,column 1,is_stmt,isa 1
        ADD       SP, SP, #28           ; [DPU_V7M3_PIPE] 
	.dwcfi	cfa_offset, 4
$C$DW$267	.dwtag  DW_TAG_TI_branch
	.dwattr $C$DW$267, DW_AT_low_pc(0x00)
	.dwattr $C$DW$267, DW_AT_TI_return

        POP       {PC}                  ; [DPU_V7M3_PIPE] 
	.dwcfi	cfa_offset, 0
        ; BRANCH OCCURS                  ; [] 
	.dwattr $C$DW$253, DW_AT_TI_end_file("../thirdparty/SEGGER/SEGGER/SEGGER_SYSVIEW.c")
	.dwattr $C$DW$253, DW_AT_TI_end_line(0x52c)
	.dwattr $C$DW$253, DW_AT_TI_end_column(0x01)
	.dwendentry
	.dwendtag $C$DW$253

	.sect	".text"
	.clink
	.thumbfunc SEGGER_SYSVIEW_RecordU32x2
	.thumb
	.global	SEGGER_SYSVIEW_RecordU32x2

$C$DW$268	.dwtag  DW_TAG_subprogram
	.dwattr $C$DW$268, DW_AT_name("SEGGER_SYSVIEW_RecordU32x2")
	.dwattr $C$DW$268, DW_AT_low_pc(SEGGER_SYSVIEW_RecordU32x2)
	.dwattr $C$DW$268, DW_AT_high_pc(0x00)
	.dwattr $C$DW$268, DW_AT_TI_symbol_name("SEGGER_SYSVIEW_RecordU32x2")
	.dwattr $C$DW$268, DW_AT_external
	.dwattr $C$DW$268, DW_AT_TI_begin_file("../thirdparty/SEGGER/SEGGER/SEGGER_SYSVIEW.c")
	.dwattr $C$DW$268, DW_AT_TI_begin_line(0x53a)
	.dwattr $C$DW$268, DW_AT_TI_begin_column(0x06)
	.dwattr $C$DW$268, DW_AT_decl_file("../thirdparty/SEGGER/SEGGER/SEGGER_SYSVIEW.c")
	.dwattr $C$DW$268, DW_AT_decl_line(0x53a)
	.dwattr $C$DW$268, DW_AT_decl_column(0x06)
	.dwattr $C$DW$268, DW_AT_TI_max_frame_size(0x28)
	.dwpsn	file "../thirdparty/SEGGER/SEGGER/SEGGER_SYSVIEW.c",line 1338,column 77,is_stmt,address SEGGER_SYSVIEW_RecordU32x2,isa 1

	.dwfde $C$DW$CIE, SEGGER_SYSVIEW_RecordU32x2
$C$DW$269	.dwtag  DW_TAG_formal_parameter
	.dwattr $C$DW$269, DW_AT_name("EventID")
	.dwattr $C$DW$269, DW_AT_TI_symbol_name("EventID")
	.dwattr $C$DW$269, DW_AT_type(*$C$DW$T$11)
	.dwattr $C$DW$269, DW_AT_location[DW_OP_reg0]

$C$DW$270	.dwtag  DW_TAG_formal_parameter
	.dwattr $C$DW$270, DW_AT_name("Para0")
	.dwattr $C$DW$270, DW_AT_TI_symbol_name("Para0")
	.dwattr $C$DW$270, DW_AT_type(*$C$DW$T$13)
	.dwattr $C$DW$270, DW_AT_location[DW_OP_reg1]

$C$DW$271	.dwtag  DW_TAG_formal_parameter
	.dwattr $C$DW$271, DW_AT_name("Para1")
	.dwattr $C$DW$271, DW_AT_TI_symbol_name("Para1")
	.dwattr $C$DW$271, DW_AT_type(*$C$DW$T$13)
	.dwattr $C$DW$271, DW_AT_location[DW_OP_reg2]


;*****************************************************************************
;* FUNCTION NAME: SEGGER_SYSVIEW_RecordU32x2                                 *
;*                                                                           *
;*   Regs Modified     : A1,A2,A3,A4,V9,SP,LR,SR,D0,D0_hi,D1,D1_hi,D2,D2_hi, *
;*                           D3,D3_hi,D4,D4_hi,D5,D5_hi,D6,D6_hi,D7,D7_hi,   *
;*                           FPEXC,FPSCR                                     *
;*   Regs Used         : A1,A2,A3,A4,V9,SP,LR,SR,D0,D0_hi,D1,D1_hi,D2,D2_hi, *
;*                           D3,D3_hi,D4,D4_hi,D5,D5_hi,D6,D6_hi,D7,D7_hi,   *
;*                           FPEXC,FPSCR                                     *
;*   Local Frame Size  : 0 Args + 32 Auto + 4 Save = 36 byte                 *
;*****************************************************************************
SEGGER_SYSVIEW_RecordU32x2:
;* --------------------------------------------------------------------------*
	.dwcfi	cfa_offset, 0
        PUSH      {LR}                  ; [DPU_V7M3_PIPE] 
	.dwcfi	cfa_offset, 4
	.dwcfi	save_reg_to_mem, 14, -4
        SUB       SP, SP, #36           ; [DPU_V7M3_PIPE] 
	.dwcfi	cfa_offset, 40
$C$DW$272	.dwtag  DW_TAG_variable
	.dwattr $C$DW$272, DW_AT_name("EventID")
	.dwattr $C$DW$272, DW_AT_TI_symbol_name("EventID")
	.dwattr $C$DW$272, DW_AT_type(*$C$DW$T$11)
	.dwattr $C$DW$272, DW_AT_location[DW_OP_breg13 0]

$C$DW$273	.dwtag  DW_TAG_variable
	.dwattr $C$DW$273, DW_AT_name("Para0")
	.dwattr $C$DW$273, DW_AT_TI_symbol_name("Para0")
	.dwattr $C$DW$273, DW_AT_type(*$C$DW$T$13)
	.dwattr $C$DW$273, DW_AT_location[DW_OP_breg13 4]

$C$DW$274	.dwtag  DW_TAG_variable
	.dwattr $C$DW$274, DW_AT_name("Para1")
	.dwattr $C$DW$274, DW_AT_TI_symbol_name("Para1")
	.dwattr $C$DW$274, DW_AT_type(*$C$DW$T$13)
	.dwattr $C$DW$274, DW_AT_location[DW_OP_breg13 8]

$C$DW$275	.dwtag  DW_TAG_variable
	.dwattr $C$DW$275, DW_AT_name("pPayload")
	.dwattr $C$DW$275, DW_AT_TI_symbol_name("pPayload")
	.dwattr $C$DW$275, DW_AT_type(*$C$DW$T$21)
	.dwattr $C$DW$275, DW_AT_location[DW_OP_breg13 12]

$C$DW$276	.dwtag  DW_TAG_variable
	.dwattr $C$DW$276, DW_AT_name("pPayloadStart")
	.dwattr $C$DW$276, DW_AT_TI_symbol_name("pPayloadStart")
	.dwattr $C$DW$276, DW_AT_type(*$C$DW$T$21)
	.dwattr $C$DW$276, DW_AT_location[DW_OP_breg13 16]

        STR       A3, [SP, #8]          ; [DPU_V7M3_PIPE] |1338| 
        STR       A2, [SP, #4]          ; [DPU_V7M3_PIPE] |1338| 
        STR       A1, [SP, #0]          ; [DPU_V7M3_PIPE] |1338| 

$C$DW$277	.dwtag  DW_TAG_lexical_block
	.dwattr $C$DW$277, DW_AT_low_pc(0x00)
	.dwattr $C$DW$277, DW_AT_high_pc(0x00)
$C$DW$278	.dwtag  DW_TAG_variable
	.dwattr $C$DW$278, DW_AT_name("LockState")
	.dwattr $C$DW$278, DW_AT_TI_symbol_name("LockState")
	.dwattr $C$DW$278, DW_AT_type(*$C$DW$T$11)
	.dwattr $C$DW$278, DW_AT_location[DW_OP_breg13 20]

	.dwpsn	file "../thirdparty/SEGGER/SEGGER/SEGGER_SYSVIEW.c",line 1341,column 3,is_stmt,isa 1
        MOVS      A1, #32               ; [DPU_V7M3_PIPE] |1341| 
        MRS       A2, BASEPRI           ; [DPU_V7M3_PIPE] |1341| 
        MSR       BASEPRI, A1           ; [DPU_V7M3_PIPE] |1341| 
        LDR       A1, $C$CON22          ; [DPU_V7M3_PIPE] |1341| 
        STR       A2, [SP, #20]         ; [DPU_V7M3_PIPE] |1341| 
$C$DW$279	.dwtag  DW_TAG_TI_branch
	.dwattr $C$DW$279, DW_AT_low_pc(0x00)
	.dwattr $C$DW$279, DW_AT_name("_PreparePacket")
	.dwattr $C$DW$279, DW_AT_TI_call

        BL        _PreparePacket        ; [DPU_V7M3_PIPE] |1341| 
