;******************************************************************************
;* TI ARM G3 C/C++ Codegen                                        Unix v18.12.1.LTS *
;* Date/Time created: Sun Mar 17 17:15:29 2019                                *
;******************************************************************************
	.compiler_opts --abi=eabi --arm_vmrs_si_workaround=off --code_state=16 --diag_wrap=off --embedded_constants=on --endian=little --float_support=FPv4SPD16 --hll_source=on --object_format=elf --silicon_version=7M4 --symdebug:dwarf --symdebug:dwarf_version=3 --unaligned_access=on 
	.thumb

$C$DW$CU	.dwtag  DW_TAG_compile_unit
	.dwattr $C$DW$CU, DW_AT_name("../driverlib/sysctl.c")
	.dwattr $C$DW$CU, DW_AT_producer("TI TI ARM G3 C/C++ Codegen Unix v18.12.1.LTS Copyright (c) 1996-2018 Texas Instruments Incorporated")
	.dwattr $C$DW$CU, DW_AT_TI_version(0x01)
	.dwattr $C$DW$CU, DW_AT_comp_dir("/home/vishal/workspace_v8/My_project/Debug")
	.sect	".const:g_pui32Xtals"
	.align	4
	.elfsym	g_pui32Xtals,SYM_SIZE(108)
g_pui32Xtals:
	.bits		0xf4240,32
			; g_pui32Xtals[0] @ 0
	.bits		0x1c2000,32
			; g_pui32Xtals[1] @ 32
	.bits		0x1e8480,32
			; g_pui32Xtals[2] @ 64
	.bits		0x258000,32
			; g_pui32Xtals[3] @ 96
	.bits		0x369e99,32
			; g_pui32Xtals[4] @ 128
	.bits		0x384000,32
			; g_pui32Xtals[5] @ 160
	.bits		0x3d0900,32
			; g_pui32Xtals[6] @ 192
	.bits		0x3e8000,32
			; g_pui32Xtals[7] @ 224
	.bits		0x4b0000,32
			; g_pui32Xtals[8] @ 256
	.bits		0x4c4b40,32
			; g_pui32Xtals[9] @ 288
	.bits		0x4e2000,32
			; g_pui32Xtals[10] @ 320
	.bits		0x5b8d80,32
			; g_pui32Xtals[11] @ 352
	.bits		0x5dc000,32
			; g_pui32Xtals[12] @ 384
	.bits		0x708000,32
			; g_pui32Xtals[13] @ 416
	.bits		0x7a1200,32
			; g_pui32Xtals[14] @ 448
	.bits		0x7d0000,32
			; g_pui32Xtals[15] @ 480
	.bits		0x989680,32
			; g_pui32Xtals[16] @ 512
	.bits		0xb71b00,32
			; g_pui32Xtals[17] @ 544
	.bits		0xbb8000,32
			; g_pui32Xtals[18] @ 576
	.bits		0xcee8c0,32
			; g_pui32Xtals[19] @ 608
	.bits		0xda7a64,32
			; g_pui32Xtals[20] @ 640
	.bits		0xf42400,32
			; g_pui32Xtals[21] @ 672
	.bits		0xfa0000,32
			; g_pui32Xtals[22] @ 704
	.bits		0x112a880,32
			; g_pui32Xtals[23] @ 736
	.bits		0x1312d00,32
			; g_pui32Xtals[24] @ 768
	.bits		0x16e3600,32
			; g_pui32Xtals[25] @ 800
	.bits		0x17d7840,32
			; g_pui32Xtals[26] @ 832

$C$DW$1	.dwtag  DW_TAG_variable
	.dwattr $C$DW$1, DW_AT_name("g_pui32Xtals")
	.dwattr $C$DW$1, DW_AT_TI_symbol_name("g_pui32Xtals")
	.dwattr $C$DW$1, DW_AT_type(*$C$DW$T$124)
	.dwattr $C$DW$1, DW_AT_location[DW_OP_addr g_pui32Xtals]
	.dwattr $C$DW$1, DW_AT_decl_file("../driverlib/sysctl.c")
	.dwattr $C$DW$1, DW_AT_decl_line(0x51)
	.dwattr $C$DW$1, DW_AT_decl_column(0x17)

	.sect	".const:g_pppui32XTALtoVCO"
	.align	4
	.elfsym	g_pppui32XTALtoVCO,SYM_SIZE(432)
g_pppui32XTALtoVCO:
	.bits		0x40,32
			; g_pppui32XTALtoVCO[0][0][0] @ 0
	.bits		0,32
			; g_pppui32XTALtoVCO[0][0][1] @ 32
	.bits		0x100,32
			; g_pppui32XTALtoVCO[0][0][2] @ 64
	.bits		0x8003e,32
			; g_pppui32XTALtoVCO[0][1][0] @ 96
	.bits		0,32
			; g_pppui32XTALtoVCO[0][1][1] @ 128
	.bits		0x100,32
			; g_pppui32XTALtoVCO[0][1][2] @ 160
	.bits		0xa0,32
			; g_pppui32XTALtoVCO[0][2][0] @ 192
	.bits		0x2,32
			; g_pppui32XTALtoVCO[0][2][1] @ 224
	.bits		0x100,32
			; g_pppui32XTALtoVCO[0][2][2] @ 256
	.bits		0x15434,32
			; g_pppui32XTALtoVCO[0][3][0] @ 288
	.bits		0,32
			; g_pppui32XTALtoVCO[0][3][1] @ 320
	.bits		0x100,32
			; g_pppui32XTALtoVCO[0][3][2] @ 352
	.bits		0x6702b,32
			; g_pppui32XTALtoVCO[0][4][0] @ 384
	.bits		0,32
			; g_pppui32XTALtoVCO[0][4][1] @ 416
	.bits		0x100,32
			; g_pppui32XTALtoVCO[0][4][2] @ 448
	.bits		0x28,32
			; g_pppui32XTALtoVCO[0][5][0] @ 480
	.bits		0,32
			; g_pppui32XTALtoVCO[0][5][1] @ 512
	.bits		0x100,32
			; g_pppui32XTALtoVCO[0][5][2] @ 544
	.bits		0x10027,32
			; g_pppui32XTALtoVCO[0][6][0] @ 576
	.bits		0,32
			; g_pppui32XTALtoVCO[0][6][1] @ 608
	.bits		0x100,32
			; g_pppui32XTALtoVCO[0][6][2] @ 640
	.bits		0x20,32
			; g_pppui32XTALtoVCO[0][7][0] @ 672
	.bits		0,32
			; g_pppui32XTALtoVCO[0][7][1] @ 704
	.bits		0x100,32
			; g_pppui32XTALtoVCO[0][7][2] @ 736
	.bits		0x50,32
			; g_pppui32XTALtoVCO[0][8][0] @ 768
	.bits		0x2,32
			; g_pppui32XTALtoVCO[0][8][1] @ 800
	.bits		0x100,32
			; g_pppui32XTALtoVCO[0][8][2] @ 832
	.bits		0xac1a,32
			; g_pppui32XTALtoVCO[0][9][0] @ 864
	.bits		0,32
			; g_pppui32XTALtoVCO[0][9][1] @ 896
	.bits		0x100,32
			; g_pppui32XTALtoVCO[0][9][2] @ 928
	.bits		0x99417,32
			; g_pppui32XTALtoVCO[0][10][0] @ 960
	.bits		0,32
			; g_pppui32XTALtoVCO[0][10][1] @ 992
	.bits		0x100,32
			; g_pppui32XTALtoVCO[0][10][2] @ 1024
	.bits		0x59816,32
			; g_pppui32XTALtoVCO[0][11][0] @ 1056
	.bits		0,32
			; g_pppui32XTALtoVCO[0][11][1] @ 1088
	.bits		0x100,32
			; g_pppui32XTALtoVCO[0][11][2] @ 1120
	.bits		0x14,32
			; g_pppui32XTALtoVCO[0][12][0] @ 1152
	.bits		0,32
			; g_pppui32XTALtoVCO[0][12][1] @ 1184
	.bits		0x100,32
			; g_pppui32XTALtoVCO[0][12][2] @ 1216
	.bits		0x88013,32
			; g_pppui32XTALtoVCO[0][13][0] @ 1248
	.bits		0,32
			; g_pppui32XTALtoVCO[0][13][1] @ 1280
	.bits		0x100,32
			; g_pppui32XTALtoVCO[0][13][2] @ 1312
	.bits		0xa0,32
			; g_pppui32XTALtoVCO[0][14][0] @ 1344
	.bits		0x8,32
			; g_pppui32XTALtoVCO[0][14][1] @ 1376
	.bits		0x100,32
			; g_pppui32XTALtoVCO[0][14][2] @ 1408
	.bits		0x10,32
			; g_pppui32XTALtoVCO[0][15][0] @ 1440
	.bits		0,32
			; g_pppui32XTALtoVCO[0][15][1] @ 1472
	.bits		0x100,32
			; g_pppui32XTALtoVCO[0][15][2] @ 1504
	.bits		0x28,32
			; g_pppui32XTALtoVCO[0][16][0] @ 1536
	.bits		0x2,32
			; g_pppui32XTALtoVCO[0][16][1] @ 1568
	.bits		0x100,32
			; g_pppui32XTALtoVCO[0][16][2] @ 1600
	.bits		0x40,32
			; g_pppui32XTALtoVCO[0][17][0] @ 1632
	.bits		0x4,32
			; g_pppui32XTALtoVCO[0][17][1] @ 1664
	.bits		0x100,32
			; g_pppui32XTALtoVCO[0][17][2] @ 1696
	.bits		0x60,32
			; g_pppui32XTALtoVCO[1][0][0] @ 1728
	.bits		0,32
			; g_pppui32XTALtoVCO[1][0][1] @ 1760
	.bits		0x100,32
			; g_pppui32XTALtoVCO[1][0][2] @ 1792
	.bits		0xc005d,32
			; g_pppui32XTALtoVCO[1][1][0] @ 1824
	.bits		0,32
			; g_pppui32XTALtoVCO[1][1][1] @ 1856
	.bits		0x100,32
			; g_pppui32XTALtoVCO[1][1][2] @ 1888
	.bits		0x50,32
			; g_pppui32XTALtoVCO[1][2][0] @ 1920
	.bits		0,32
			; g_pppui32XTALtoVCO[1][2][1] @ 1952
	.bits		0x100,32
			; g_pppui32XTALtoVCO[1][2][2] @ 1984
	.bits		0x2004e,32
			; g_pppui32XTALtoVCO[1][3][0] @ 2016
	.bits		0,32
			; g_pppui32XTALtoVCO[1][3][1] @ 2048
	.bits		0x100,32
			; g_pppui32XTALtoVCO[1][3][2] @ 2080
	.bits		0x1ac41,32
			; g_pppui32XTALtoVCO[1][4][0] @ 2112
	.bits		0,32
			; g_pppui32XTALtoVCO[1][4][1] @ 2144
	.bits		0x100,32
			; g_pppui32XTALtoVCO[1][4][2] @ 2176
	.bits		0x3c,32
			; g_pppui32XTALtoVCO[1][5][0] @ 2208
	.bits		0,32
			; g_pppui32XTALtoVCO[1][5][1] @ 2240
	.bits		0x100,32
			; g_pppui32XTALtoVCO[1][5][2] @ 2272
	.bits		0x9803a,32
			; g_pppui32XTALtoVCO[1][6][0] @ 2304
	.bits		0,32
			; g_pppui32XTALtoVCO[1][6][1] @ 2336
	.bits		0x100,32
			; g_pppui32XTALtoVCO[1][6][2] @ 2368
	.bits		0x30,32
			; g_pppui32XTALtoVCO[1][7][0] @ 2400
	.bits		0,32
			; g_pppui32XTALtoVCO[1][7][1] @ 2432
	.bits		0x100,32
			; g_pppui32XTALtoVCO[1][7][2] @ 2464
	.bits		0x28,32
			; g_pppui32XTALtoVCO[1][8][0] @ 2496
	.bits		0,32
			; g_pppui32XTALtoVCO[1][8][1] @ 2528
	.bits		0x100,32
			; g_pppui32XTALtoVCO[1][8][2] @ 2560
	.bits		0x10027,32
			; g_pppui32XTALtoVCO[1][9][0] @ 2592
	.bits		0,32
			; g_pppui32XTALtoVCO[1][9][1] @ 2624
	.bits		0x100,32
			; g_pppui32XTALtoVCO[1][9][2] @ 2656
	.bits		0x66023,32
			; g_pppui32XTALtoVCO[1][10][0] @ 2688
	.bits		0,32
			; g_pppui32XTALtoVCO[1][10][1] @ 2720
	.bits		0x100,32
			; g_pppui32XTALtoVCO[1][10][2] @ 2752
	.bits		0x86021,32
			; g_pppui32XTALtoVCO[1][11][0] @ 2784
	.bits		0,32
			; g_pppui32XTALtoVCO[1][11][1] @ 2816
	.bits		0x100,32
			; g_pppui32XTALtoVCO[1][11][2] @ 2848
	.bits		0x1e,32
			; g_pppui32XTALtoVCO[1][12][0] @ 2880
	.bits		0,32
			; g_pppui32XTALtoVCO[1][12][1] @ 2912
	.bits		0x100,32
			; g_pppui32XTALtoVCO[1][12][2] @ 2944
	.bits		0x4c01d,32
			; g_pppui32XTALtoVCO[1][13][0] @ 2976
	.bits		0,32
			; g_pppui32XTALtoVCO[1][13][1] @ 3008
	.bits		0x100,32
			; g_pppui32XTALtoVCO[1][13][2] @ 3040
	.bits		0x50,32
			; g_pppui32XTALtoVCO[1][14][0] @ 3072
	.bits		0x2,32
			; g_pppui32XTALtoVCO[1][14][1] @ 3104
	.bits		0x100,32
			; g_pppui32XTALtoVCO[1][14][2] @ 3136
	.bits		0x18,32
			; g_pppui32XTALtoVCO[1][15][0] @ 3168
	.bits		0,32
			; g_pppui32XTALtoVCO[1][15][1] @ 3200
	.bits		0x100,32
			; g_pppui32XTALtoVCO[1][15][2] @ 3232
	.bits		0x14,32
			; g_pppui32XTALtoVCO[1][16][0] @ 3264
	.bits		0,32
			; g_pppui32XTALtoVCO[1][16][1] @ 3296
	.bits		0x100,32
			; g_pppui32XTALtoVCO[1][16][2] @ 3328
	.bits		0x60,32
			; g_pppui32XTALtoVCO[1][17][0] @ 3360
	.bits		0x4,32
			; g_pppui32XTALtoVCO[1][17][1] @ 3392
	.bits		0x100,32
			; g_pppui32XTALtoVCO[1][17][2] @ 3424

$C$DW$2	.dwtag  DW_TAG_variable
	.dwattr $C$DW$2, DW_AT_name("g_pppui32XTALtoVCO")
	.dwattr $C$DW$2, DW_AT_TI_symbol_name("g_pppui32XTALtoVCO")
	.dwattr $C$DW$2, DW_AT_type(*$C$DW$T$127)
	.dwattr $C$DW$2, DW_AT_location[DW_OP_addr g_pppui32XTALtoVCO]
	.dwattr $C$DW$2, DW_AT_decl_file("../driverlib/sysctl.c")
	.dwattr $C$DW$2, DW_AT_decl_line(0x8b)
	.dwattr $C$DW$2, DW_AT_decl_column(0x17)

	.sect	".const:g_sXTALtoMEMTIM"
	.align	4
	.elfsym	g_sXTALtoMEMTIM,SYM_SIZE(48)
g_sXTALtoMEMTIM:
	.bits		0xf42400,32
			; g_sXTALtoMEMTIM[0].ui32Frequency @ 0
	.bits		0x300030,32
			; g_sXTALtoMEMTIM[0].ui32MemTiming @ 32
	.bits		0x2625a00,32
			; g_sXTALtoMEMTIM[1].ui32Frequency @ 64
	.bits		0x910091,32
			; g_sXTALtoMEMTIM[1].ui32MemTiming @ 96
	.bits		0x3938700,32
			; g_sXTALtoMEMTIM[2].ui32Frequency @ 128
	.bits		0xd200d2,32
			; g_sXTALtoMEMTIM[2].ui32MemTiming @ 160
	.bits		0x4c4b400,32
			; g_sXTALtoMEMTIM[3].ui32Frequency @ 192
	.bits		0x1130113,32
			; g_sXTALtoMEMTIM[3].ui32MemTiming @ 224
	.bits		0x5f5e100,32
			; g_sXTALtoMEMTIM[4].ui32Frequency @ 256
	.bits		0x1540154,32
			; g_sXTALtoMEMTIM[4].ui32MemTiming @ 288
	.bits		0x7270e00,32
			; g_sXTALtoMEMTIM[5].ui32Frequency @ 320
	.bits		0x1950195,32
			; g_sXTALtoMEMTIM[5].ui32MemTiming @ 352

$C$DW$3	.dwtag  DW_TAG_variable
	.dwattr $C$DW$3, DW_AT_name("g_sXTALtoMEMTIM")
	.dwattr $C$DW$3, DW_AT_TI_symbol_name("g_sXTALtoMEMTIM")
	.dwattr $C$DW$3, DW_AT_type(*$C$DW$T$27)
	.dwattr $C$DW$3, DW_AT_location[DW_OP_addr g_sXTALtoMEMTIM]
	.dwattr $C$DW$3, DW_AT_decl_file("../driverlib/sysctl.c")
	.dwattr $C$DW$3, DW_AT_decl_line(0xc7)
	.dwattr $C$DW$3, DW_AT_decl_column(0x01)

	.sect	".const:g_pui32VCOFrequencies"
	.align	4
	.elfsym	g_pui32VCOFrequencies,SYM_SIZE(8)
g_pui32VCOFrequencies:
	.bits		0x9896800,32
			; g_pui32VCOFrequencies[0] @ 0
	.bits		0xe4e1c00,32
			; g_pui32VCOFrequencies[1] @ 32

$C$DW$4	.dwtag  DW_TAG_variable
	.dwattr $C$DW$4, DW_AT_name("g_pui32VCOFrequencies")
	.dwattr $C$DW$4, DW_AT_TI_symbol_name("g_pui32VCOFrequencies")
	.dwattr $C$DW$4, DW_AT_type(*$C$DW$T$130)
	.dwattr $C$DW$4, DW_AT_location[DW_OP_addr g_pui32VCOFrequencies]
	.dwattr $C$DW$4, DW_AT_decl_file("../driverlib/sysctl.c")
	.dwattr $C$DW$4, DW_AT_decl_line(0x14c)
	.dwattr $C$DW$4, DW_AT_decl_column(0x17)


$C$DW$5	.dwtag  DW_TAG_subprogram
	.dwattr $C$DW$5, DW_AT_name("IntRegister")
	.dwattr $C$DW$5, DW_AT_TI_symbol_name("IntRegister")
	.dwattr $C$DW$5, DW_AT_declaration
	.dwattr $C$DW$5, DW_AT_external
	.dwattr $C$DW$5, DW_AT_decl_file("/home/vishal/workspace_v8/My_project/driverlib/interrupt.h")
	.dwattr $C$DW$5, DW_AT_decl_line(0x45)
	.dwattr $C$DW$5, DW_AT_decl_column(0x0d)
$C$DW$6	.dwtag  DW_TAG_formal_parameter
	.dwattr $C$DW$6, DW_AT_type(*$C$DW$T$22)

$C$DW$7	.dwtag  DW_TAG_formal_parameter
	.dwattr $C$DW$7, DW_AT_type(*$C$DW$T$31)

	.dwendtag $C$DW$5


$C$DW$8	.dwtag  DW_TAG_subprogram
	.dwattr $C$DW$8, DW_AT_name("IntEnable")
	.dwattr $C$DW$8, DW_AT_TI_symbol_name("IntEnable")
	.dwattr $C$DW$8, DW_AT_declaration
	.dwattr $C$DW$8, DW_AT_external
	.dwattr $C$DW$8, DW_AT_decl_file("/home/vishal/workspace_v8/My_project/driverlib/interrupt.h")
	.dwattr $C$DW$8, DW_AT_decl_line(0x4c)
	.dwattr $C$DW$8, DW_AT_decl_column(0x0d)
$C$DW$9	.dwtag  DW_TAG_formal_parameter
	.dwattr $C$DW$9, DW_AT_type(*$C$DW$T$22)

	.dwendtag $C$DW$8


$C$DW$10	.dwtag  DW_TAG_subprogram
	.dwattr $C$DW$10, DW_AT_name("IntDisable")
	.dwattr $C$DW$10, DW_AT_TI_symbol_name("IntDisable")
	.dwattr $C$DW$10, DW_AT_declaration
	.dwattr $C$DW$10, DW_AT_external
	.dwattr $C$DW$10, DW_AT_decl_file("/home/vishal/workspace_v8/My_project/driverlib/interrupt.h")
	.dwattr $C$DW$10, DW_AT_decl_line(0x4d)
	.dwattr $C$DW$10, DW_AT_decl_column(0x0d)
$C$DW$11	.dwtag  DW_TAG_formal_parameter
	.dwattr $C$DW$11, DW_AT_type(*$C$DW$T$22)

	.dwendtag $C$DW$10


$C$DW$12	.dwtag  DW_TAG_subprogram
	.dwattr $C$DW$12, DW_AT_name("IntUnregister")
	.dwattr $C$DW$12, DW_AT_TI_symbol_name("IntUnregister")
	.dwattr $C$DW$12, DW_AT_declaration
	.dwattr $C$DW$12, DW_AT_external
	.dwattr $C$DW$12, DW_AT_decl_file("/home/vishal/workspace_v8/My_project/driverlib/interrupt.h")
	.dwattr $C$DW$12, DW_AT_decl_line(0x46)
	.dwattr $C$DW$12, DW_AT_decl_column(0x0d)
$C$DW$13	.dwtag  DW_TAG_formal_parameter
	.dwattr $C$DW$13, DW_AT_type(*$C$DW$T$22)

	.dwendtag $C$DW$12


$C$DW$14	.dwtag  DW_TAG_subprogram
	.dwattr $C$DW$14, DW_AT_name("CPUwfi")
	.dwattr $C$DW$14, DW_AT_TI_symbol_name("CPUwfi")
	.dwattr $C$DW$14, DW_AT_declaration
	.dwattr $C$DW$14, DW_AT_external
	.dwattr $C$DW$14, DW_AT_decl_file("/home/vishal/workspace_v8/My_project/driverlib/cpu.h")
	.dwattr $C$DW$14, DW_AT_decl_line(0x3e)
	.dwattr $C$DW$14, DW_AT_decl_column(0x0d)
	.dwendtag $C$DW$14


$C$DW$15	.dwtag  DW_TAG_subprogram
	.dwattr $C$DW$15, DW_AT_name("SysCtlDelay")
	.dwattr $C$DW$15, DW_AT_TI_symbol_name("SysCtlDelay")
	.dwattr $C$DW$15, DW_AT_declaration
	.dwattr $C$DW$15, DW_AT_external
	.dwattr $C$DW$15, DW_AT_decl_file("/home/vishal/workspace_v8/My_project/driverlib/sysctl.h")
	.dwattr $C$DW$15, DW_AT_decl_line(0x268)
	.dwattr $C$DW$15, DW_AT_decl_column(0x0d)
$C$DW$16	.dwtag  DW_TAG_formal_parameter
	.dwattr $C$DW$16, DW_AT_type(*$C$DW$T$22)

	.dwendtag $C$DW$15

;	/home/vishal/ti/ccsv8/tools/compiler/ti-cgt-arm_18.12.1.LTS/bin/armacpia -@/tmp/TI4TJF0oYdG 
	.sect	".text"
    .sect ".text:SysCtlDelay"
    .clink
    .thumbfunc SysCtlDelay
    .thumb
    .global SysCtlDelay
SysCtlDelay:
    subs r0, #1
    bne.n SysCtlDelay
    bx lr
	.sect	".text"
	.clink
	.thumbfunc _SysCtlMemTimingGet
	.thumb

$C$DW$17	.dwtag  DW_TAG_subprogram
	.dwattr $C$DW$17, DW_AT_name("_SysCtlMemTimingGet")
	.dwattr $C$DW$17, DW_AT_low_pc(_SysCtlMemTimingGet)
	.dwattr $C$DW$17, DW_AT_high_pc(0x00)
	.dwattr $C$DW$17, DW_AT_TI_symbol_name("_SysCtlMemTimingGet")
	.dwattr $C$DW$17, DW_AT_type(*$C$DW$T$22)
	.dwattr $C$DW$17, DW_AT_TI_begin_file("../driverlib/sysctl.c")
	.dwattr $C$DW$17, DW_AT_TI_begin_line(0xe5)
	.dwattr $C$DW$17, DW_AT_TI_begin_column(0x01)
	.dwattr $C$DW$17, DW_AT_decl_file("../driverlib/sysctl.c")
	.dwattr $C$DW$17, DW_AT_decl_line(0xe5)
	.dwattr $C$DW$17, DW_AT_decl_column(0x01)
	.dwattr $C$DW$17, DW_AT_TI_max_frame_size(0x08)
	.dwpsn	file "../driverlib/sysctl.c",line 230,column 1,is_stmt,address _SysCtlMemTimingGet,isa 1

	.dwfde $C$DW$CIE, _SysCtlMemTimingGet
$C$DW$18	.dwtag  DW_TAG_formal_parameter
	.dwattr $C$DW$18, DW_AT_name("ui32SysClock")
	.dwattr $C$DW$18, DW_AT_TI_symbol_name("ui32SysClock")
	.dwattr $C$DW$18, DW_AT_type(*$C$DW$T$22)
	.dwattr $C$DW$18, DW_AT_location[DW_OP_reg0]


;*****************************************************************************
;* FUNCTION NAME: _SysCtlMemTimingGet                                        *
;*                                                                           *
;*   Regs Modified     : A1,A2,A3,SP,SR                                      *
;*   Regs Used         : A1,A2,A3,SP,LR,SR                                   *
;*   Local Frame Size  : 0 Args + 8 Auto + 0 Save = 8 byte                   *
;*****************************************************************************
_SysCtlMemTimingGet:
;* --------------------------------------------------------------------------*
	.dwcfi	cfa_offset, 0
        SUB       SP, SP, #8            ; [DPU_V7M3_PIPE] 
	.dwcfi	cfa_offset, 8
$C$DW$19	.dwtag  DW_TAG_variable
	.dwattr $C$DW$19, DW_AT_name("ui32SysClock")
	.dwattr $C$DW$19, DW_AT_TI_symbol_name("ui32SysClock")
	.dwattr $C$DW$19, DW_AT_type(*$C$DW$T$22)
	.dwattr $C$DW$19, DW_AT_location[DW_OP_breg13 0]

$C$DW$20	.dwtag  DW_TAG_variable
	.dwattr $C$DW$20, DW_AT_name("ui8Idx")
	.dwattr $C$DW$20, DW_AT_TI_symbol_name("ui8Idx")
	.dwattr $C$DW$20, DW_AT_type(*$C$DW$T$106)
	.dwattr $C$DW$20, DW_AT_location[DW_OP_breg13 4]

        STR       A1, [SP, #0]          ; [DPU_V7M3_PIPE] |230| 
	.dwpsn	file "../driverlib/sysctl.c",line 236,column 9,is_stmt,isa 1
        MOVS      A1, #0                ; [DPU_V7M3_PIPE] |236| 
        STR       A1, [SP, #4]          ; [DPU_V7M3_PIPE] |236| 
	.dwpsn	file "../driverlib/sysctl.c",line 237,column 9,is_stmt,isa 1
        LDR       A1, [SP, #4]          ; [DPU_V7M3_PIPE] |237| 
        CMP       A1, #6                ; [DPU_V7M3_PIPE] |237| 
        BCS       ||$C$L3||             ; [DPU_V7M3_PIPE] |237| 
        ; BRANCHCC OCCURS {||$C$L3||}    ; [] |237| 
;* --------------------------------------------------------------------------*
;*   BEGIN LOOP ||$C$L1||
;*
;*   Loop source line                : 236
;*   Loop closing brace source line  : 252
;*   Known Minimum Trip Count        : 1
;*   Known Maximum Trip Count        : 4294967295
;*   Known Max Trip Count Factor     : 1
;* --------------------------------------------------------------------------*
||$C$L1||:    
	.dwpsn	file "../driverlib/sysctl.c",line 244,column 9,is_stmt,isa 1
        LDR       A1, [SP, #4]          ; [DPU_V7M3_PIPE] |244| 
        LDR       A3, $C$CON1           ; [DPU_V7M3_PIPE] |244| 
        LDR       A2, [SP, #0]          ; [DPU_V7M3_PIPE] |244| 
        LDR       A1, [A3, +A1, LSL #3] ; [DPU_V7M3_PIPE] |244| 
        CMP       A1, A2                ; [DPU_V7M3_PIPE] |244| 
        BCC       ||$C$L2||             ; [DPU_V7M3_PIPE] |244| 
        ; BRANCHCC OCCURS {||$C$L2||}    ; [] |244| 
;* --------------------------------------------------------------------------*
	.dwpsn	file "../driverlib/sysctl.c",line 250,column 13,is_stmt,isa 1
        LDR       A1, [SP, #4]          ; [DPU_V7M3_PIPE] |250| 
        LDR       A2, $C$CON2           ; [DPU_V7M3_PIPE] |250| 
        LDR       A1, [A2, +A1, LSL #3] ; [DPU_V7M3_PIPE] |250| 
        B         ||$C$L4||             ; [DPU_V7M3_PIPE] |250| 
        ; BRANCH OCCURS {||$C$L4||}      ; [] |250| 
;* --------------------------------------------------------------------------*
||$C$L2||:    
	.dwpsn	file "../driverlib/sysctl.c",line 238,column 9,is_stmt,isa 1
        LDR       A1, [SP, #4]          ; [DPU_V7M3_PIPE] |238| 
        ADDS      A1, A1, #1            ; [DPU_V7M3_PIPE] |238| 
        STR       A1, [SP, #4]          ; [DPU_V7M3_PIPE] |238| 
	.dwpsn	file "../driverlib/sysctl.c",line 237,column 9,is_stmt,isa 1
        LDR       A1, [SP, #4]          ; [DPU_V7M3_PIPE] |237| 
        CMP       A1, #6                ; [DPU_V7M3_PIPE] |237| 
        BCC       ||$C$L1||             ; [DPU_V7M3_PIPE] |237| 
        ; BRANCHCC OCCURS {||$C$L1||}    ; [] |237| 
;* --------------------------------------------------------------------------*
||$C$L3||:    
	.dwpsn	file "../driverlib/sysctl.c",line 258,column 5,is_stmt,isa 1
        MOVS      A1, #0                ; [DPU_V7M3_PIPE] |258| 
;* --------------------------------------------------------------------------*
||$C$L4||:    
	.dwpsn	file "../driverlib/sysctl.c",line 259,column 1,is_stmt,isa 1
        ADD       SP, SP, #8            ; [DPU_V7M3_PIPE] 
	.dwcfi	cfa_offset, 0
$C$DW$21	.dwtag  DW_TAG_TI_branch
	.dwattr $C$DW$21, DW_AT_low_pc(0x00)
	.dwattr $C$DW$21, DW_AT_TI_return

        BX        LR                    ; [DPU_V7M3_PIPE] 
        ; BRANCH OCCURS                  ; [] 
	.dwattr $C$DW$17, DW_AT_TI_end_file("../driverlib/sysctl.c")
	.dwattr $C$DW$17, DW_AT_TI_end_line(0x103)
	.dwattr $C$DW$17, DW_AT_TI_end_column(0x01)
	.dwendentry
	.dwendtag $C$DW$17

	.sect	".text"
	.clink
	.thumbfunc _SysCtlFrequencyGet
	.thumb

$C$DW$22	.dwtag  DW_TAG_subprogram
	.dwattr $C$DW$22, DW_AT_name("_SysCtlFrequencyGet")
	.dwattr $C$DW$22, DW_AT_low_pc(_SysCtlFrequencyGet)
	.dwattr $C$DW$22, DW_AT_high_pc(0x00)
	.dwattr $C$DW$22, DW_AT_TI_symbol_name("_SysCtlFrequencyGet")
	.dwattr $C$DW$22, DW_AT_type(*$C$DW$T$22)
	.dwattr $C$DW$22, DW_AT_TI_begin_file("../driverlib/sysctl.c")
	.dwattr $C$DW$22, DW_AT_TI_begin_line(0x10c)
	.dwattr $C$DW$22, DW_AT_TI_begin_column(0x01)
	.dwattr $C$DW$22, DW_AT_decl_file("../driverlib/sysctl.c")
	.dwattr $C$DW$22, DW_AT_decl_line(0x10c)
	.dwattr $C$DW$22, DW_AT_decl_column(0x01)
	.dwattr $C$DW$22, DW_AT_TI_max_frame_size(0x20)
	.dwpsn	file "../driverlib/sysctl.c",line 269,column 1,is_stmt,address _SysCtlFrequencyGet,isa 1

	.dwfde $C$DW$CIE, _SysCtlFrequencyGet
$C$DW$23	.dwtag  DW_TAG_formal_parameter
	.dwattr $C$DW$23, DW_AT_name("ui32Xtal")
	.dwattr $C$DW$23, DW_AT_TI_symbol_name("ui32Xtal")
	.dwattr $C$DW$23, DW_AT_type(*$C$DW$T$22)
	.dwattr $C$DW$23, DW_AT_location[DW_OP_reg0]


;*****************************************************************************
;* FUNCTION NAME: _SysCtlFrequencyGet                                        *
;*                                                                           *
;*   Regs Modified     : A1,A2,A3,SP,SR                                      *
;*   Regs Used         : A1,A2,A3,SP,LR,SR                                   *
;*   Local Frame Size  : 0 Args + 32 Auto + 0 Save = 32 byte                 *
;*****************************************************************************
_SysCtlFrequencyGet:
;* --------------------------------------------------------------------------*
	.dwcfi	cfa_offset, 0
        SUB       SP, SP, #32           ; [DPU_V7M3_PIPE] 
	.dwcfi	cfa_offset, 32
$C$DW$24	.dwtag  DW_TAG_variable
	.dwattr $C$DW$24, DW_AT_name("ui32Xtal")
	.dwattr $C$DW$24, DW_AT_TI_symbol_name("ui32Xtal")
	.dwattr $C$DW$24, DW_AT_type(*$C$DW$T$22)
	.dwattr $C$DW$24, DW_AT_location[DW_OP_breg13 0]

$C$DW$25	.dwtag  DW_TAG_variable
	.dwattr $C$DW$25, DW_AT_name("ui32Result")
	.dwattr $C$DW$25, DW_AT_TI_symbol_name("ui32Result")
	.dwattr $C$DW$25, DW_AT_type(*$C$DW$T$22)
	.dwattr $C$DW$25, DW_AT_location[DW_OP_breg13 4]

$C$DW$26	.dwtag  DW_TAG_variable
	.dwattr $C$DW$26, DW_AT_name("ui16F1")
	.dwattr $C$DW$26, DW_AT_TI_symbol_name("ui16F1")
	.dwattr $C$DW$26, DW_AT_type(*$C$DW$T$102)
	.dwattr $C$DW$26, DW_AT_location[DW_OP_breg13 8]

$C$DW$27	.dwtag  DW_TAG_variable
	.dwattr $C$DW$27, DW_AT_name("ui16F2")
	.dwattr $C$DW$27, DW_AT_TI_symbol_name("ui16F2")
	.dwattr $C$DW$27, DW_AT_type(*$C$DW$T$102)
	.dwattr $C$DW$27, DW_AT_location[DW_OP_breg13 12]

$C$DW$28	.dwtag  DW_TAG_variable
	.dwattr $C$DW$28, DW_AT_name("ui16PInt")
	.dwattr $C$DW$28, DW_AT_TI_symbol_name("ui16PInt")
	.dwattr $C$DW$28, DW_AT_type(*$C$DW$T$102)
	.dwattr $C$DW$28, DW_AT_location[DW_OP_breg13 16]

$C$DW$29	.dwtag  DW_TAG_variable
	.dwattr $C$DW$29, DW_AT_name("ui16PFract")
	.dwattr $C$DW$29, DW_AT_TI_symbol_name("ui16PFract")
	.dwattr $C$DW$29, DW_AT_type(*$C$DW$T$102)
	.dwattr $C$DW$29, DW_AT_location[DW_OP_breg13 20]

$C$DW$30	.dwtag  DW_TAG_variable
	.dwattr $C$DW$30, DW_AT_name("ui8Q")
	.dwattr $C$DW$30, DW_AT_TI_symbol_name("ui8Q")
	.dwattr $C$DW$30, DW_AT_type(*$C$DW$T$106)
	.dwattr $C$DW$30, DW_AT_location[DW_OP_breg13 24]

$C$DW$31	.dwtag  DW_TAG_variable
	.dwattr $C$DW$31, DW_AT_name("ui8N")
	.dwattr $C$DW$31, DW_AT_TI_symbol_name("ui8N")
	.dwattr $C$DW$31, DW_AT_type(*$C$DW$T$106)
	.dwattr $C$DW$31, DW_AT_location[DW_OP_breg13 28]

        STR       A1, [SP, #0]          ; [DPU_V7M3_PIPE] |269| 
	.dwpsn	file "../driverlib/sysctl.c",line 278,column 5,is_stmt,isa 1
        LDR       A1, $C$CON3           ; [DPU_V7M3_PIPE] |278| 
        LDR       A1, [A1, #0]          ; [DPU_V7M3_PIPE] |278| 
        UBFX      A1, A1, #10, #10      ; [DPU_V7M3_PIPE] |278| 
        UBFX      A1, A1, #0, #22       ; [DPU_V7M3_PIPE] |278| 
        STR       A1, [SP, #20]         ; [DPU_V7M3_PIPE] |278| 
	.dwpsn	file "../driverlib/sysctl.c",line 280,column 5,is_stmt,isa 1
        LDR       A1, $C$CON3           ; [DPU_V7M3_PIPE] |280| 
        LDR       A1, [A1, #0]          ; [DPU_V7M3_PIPE] |280| 
        BFC       A1, #10, #22          ; [DPU_V7M3_PIPE] |280| 
        STR       A1, [SP, #16]         ; [DPU_V7M3_PIPE] |280| 
	.dwpsn	file "../driverlib/sysctl.c",line 281,column 5,is_stmt,isa 1
        LDR       A1, $C$CON4           ; [DPU_V7M3_PIPE] |281| 
        LDR       A1, [A1, #0]          ; [DPU_V7M3_PIPE] |281| 
        AND       A1, A1, #7936         ; [DPU_V7M3_PIPE] |281| 
        LSRS      A1, A1, #8            ; [DPU_V7M3_PIPE] |281| 
        ADDS      A1, A1, #1            ; [DPU_V7M3_PIPE] |281| 
        STR       A1, [SP, #24]         ; [DPU_V7M3_PIPE] |281| 
	.dwpsn	file "../driverlib/sysctl.c",line 283,column 5,is_stmt,isa 1
        LDR       A1, $C$CON4           ; [DPU_V7M3_PIPE] |283| 
        LDR       A1, [A1, #0]          ; [DPU_V7M3_PIPE] |283| 
        AND       A1, A1, #31           ; [DPU_V7M3_PIPE] |283| 
        ADDS      A1, A1, #1            ; [DPU_V7M3_PIPE] |283| 
        STR       A1, [SP, #28]         ; [DPU_V7M3_PIPE] |283| 
	.dwpsn	file "../driverlib/sysctl.c",line 289,column 5,is_stmt,isa 1
        LDR       A2, [SP, #0]          ; [DPU_V7M3_PIPE] |289| 
        LDR       A1, [SP, #28]         ; [DPU_V7M3_PIPE] |289| 
        UDIV      A1, A2, A1            ; [DPU_V7M3_PIPE] |289| 
        STR       A1, [SP, #0]          ; [DPU_V7M3_PIPE] |289| 
	.dwpsn	file "../driverlib/sysctl.c",line 294,column 5,is_stmt,isa 1
        LDR       A1, [SP, #20]         ; [DPU_V7M3_PIPE] |294| 
        LSRS      A1, A1, #5            ; [DPU_V7M3_PIPE] |294| 
        STR       A1, [SP, #8]          ; [DPU_V7M3_PIPE] |294| 
	.dwpsn	file "../driverlib/sysctl.c",line 299,column 5,is_stmt,isa 1
        LDR       A1, [SP, #20]         ; [DPU_V7M3_PIPE] |299| 
        LDR       A2, [SP, #8]          ; [DPU_V7M3_PIPE] |299| 
        SUB       A1, A1, A2, LSL #5    ; [DPU_V7M3_PIPE] |299| 
        STR       A1, [SP, #12]         ; [DPU_V7M3_PIPE] |299| 
	.dwpsn	file "../driverlib/sysctl.c",line 304,column 5,is_stmt,isa 1
        LDR       A1, [SP, #16]         ; [DPU_V7M3_PIPE] |304| 
        LDR       A2, [SP, #0]          ; [DPU_V7M3_PIPE] |304| 
        MULS      A1, A1, A2            ; [DPU_V7M3_PIPE] |304| 
        STR       A1, [SP, #4]          ; [DPU_V7M3_PIPE] |304| 
	.dwpsn	file "../driverlib/sysctl.c",line 309,column 5,is_stmt,isa 1
        LDR       A1, [SP, #8]          ; [DPU_V7M3_PIPE] |309| 
        LDR       A3, [SP, #0]          ; [DPU_V7M3_PIPE] |309| 
        LDR       A2, [SP, #4]          ; [DPU_V7M3_PIPE] |309| 
        MULS      A1, A1, A3            ; [DPU_V7M3_PIPE] |309| 
        ADD       A2, A2, A1, LSR #5    ; [DPU_V7M3_PIPE] |309| 
        STR       A2, [SP, #4]          ; [DPU_V7M3_PIPE] |309| 
	.dwpsn	file "../driverlib/sysctl.c",line 314,column 5,is_stmt,isa 1
        LDR       A1, [SP, #12]         ; [DPU_V7M3_PIPE] |314| 
        LDR       A3, [SP, #0]          ; [DPU_V7M3_PIPE] |314| 
        LDR       A2, [SP, #4]          ; [DPU_V7M3_PIPE] |314| 
        MULS      A1, A1, A3            ; [DPU_V7M3_PIPE] |314| 
        ADD       A2, A2, A1, LSR #10   ; [DPU_V7M3_PIPE] |314| 
        STR       A2, [SP, #4]          ; [DPU_V7M3_PIPE] |314| 
	.dwpsn	file "../driverlib/sysctl.c",line 319,column 5,is_stmt,isa 1
        LDR       A1, [SP, #24]         ; [DPU_V7M3_PIPE] |319| 
        LDR       A2, [SP, #4]          ; [DPU_V7M3_PIPE] |319| 
        UDIV      A1, A2, A1            ; [DPU_V7M3_PIPE] |319| 
        STR       A1, [SP, #4]          ; [DPU_V7M3_PIPE] |319| 
	.dwpsn	file "../driverlib/sysctl.c",line 324,column 5,is_stmt,isa 1
        LDR       A1, [SP, #4]          ; [DPU_V7M3_PIPE] |324| 
	.dwpsn	file "../driverlib/sysctl.c",line 325,column 1,is_stmt,isa 1
        ADD       SP, SP, #32           ; [DPU_V7M3_PIPE] 
	.dwcfi	cfa_offset, 0
$C$DW$32	.dwtag  DW_TAG_TI_branch
	.dwattr $C$DW$32, DW_AT_low_pc(0x00)
	.dwattr $C$DW$32, DW_AT_TI_return

        BX        LR                    ; [DPU_V7M3_PIPE] 
        ; BRANCH OCCURS                  ; [] 
	.dwattr $C$DW$22, DW_AT_TI_end_file("../driverlib/sysctl.c")
	.dwattr $C$DW$22, DW_AT_TI_end_line(0x145)
	.dwattr $C$DW$22, DW_AT_TI_end_column(0x01)
	.dwendentry
	.dwendtag $C$DW$22

	.sect	".text"
	.clink
	.thumbfunc SysCtlSRAMSizeGet
	.thumb
	.global	SysCtlSRAMSizeGet

$C$DW$33	.dwtag  DW_TAG_subprogram
	.dwattr $C$DW$33, DW_AT_name("SysCtlSRAMSizeGet")
	.dwattr $C$DW$33, DW_AT_low_pc(SysCtlSRAMSizeGet)
	.dwattr $C$DW$33, DW_AT_high_pc(0x00)
	.dwattr $C$DW$33, DW_AT_TI_symbol_name("SysCtlSRAMSizeGet")
	.dwattr $C$DW$33, DW_AT_external
	.dwattr $C$DW$33, DW_AT_type(*$C$DW$T$22)
	.dwattr $C$DW$33, DW_AT_TI_begin_file("../driverlib/sysctl.c")
	.dwattr $C$DW$33, DW_AT_TI_begin_line(0x1c8)
	.dwattr $C$DW$33, DW_AT_TI_begin_column(0x01)
	.dwattr $C$DW$33, DW_AT_decl_file("../driverlib/sysctl.c")
	.dwattr $C$DW$33, DW_AT_decl_line(0x1c8)
	.dwattr $C$DW$33, DW_AT_decl_column(0x01)
	.dwattr $C$DW$33, DW_AT_TI_max_frame_size(0x00)
	.dwpsn	file "../driverlib/sysctl.c",line 457,column 1,is_stmt,address SysCtlSRAMSizeGet,isa 1

	.dwfde $C$DW$CIE, SysCtlSRAMSizeGet

;*****************************************************************************
;* FUNCTION NAME: SysCtlSRAMSizeGet                                          *
;*                                                                           *
;*   Regs Modified     : A1,SR                                               *
;*   Regs Used         : A1,LR,SR                                            *
;*   Local Frame Size  : 0 Args + 0 Auto + 0 Save = 0 byte                   *
;*****************************************************************************
SysCtlSRAMSizeGet:
;* --------------------------------------------------------------------------*
	.dwcfi	cfa_offset, 0
	.dwpsn	file "../driverlib/sysctl.c",line 458,column 5,is_stmt,isa 1
        LDR       A1, $C$CON5           ; [DPU_V7M3_PIPE] |458| 
        LDR       A1, [A1, #0]          ; [DPU_V7M3_PIPE] |458| 
        ADDS      A1, A1, #1            ; [DPU_V7M3_PIPE] |458| 
        LSLS      A1, A1, #8            ; [DPU_V7M3_PIPE] |458| 
	.dwpsn	file "../driverlib/sysctl.c",line 459,column 1,is_stmt,isa 1
$C$DW$34	.dwtag  DW_TAG_TI_branch
	.dwattr $C$DW$34, DW_AT_low_pc(0x00)
	.dwattr $C$DW$34, DW_AT_TI_return

        BX        LR                    ; [DPU_V7M3_PIPE] 
        ; BRANCH OCCURS                  ; [] 
	.dwattr $C$DW$33, DW_AT_TI_end_file("../driverlib/sysctl.c")
	.dwattr $C$DW$33, DW_AT_TI_end_line(0x1cb)
	.dwattr $C$DW$33, DW_AT_TI_end_column(0x01)
	.dwendentry
	.dwendtag $C$DW$33

	.sect	".text"
	.clink
	.thumbfunc SysCtlFlashSizeGet
	.thumb
	.global	SysCtlFlashSizeGet

$C$DW$35	.dwtag  DW_TAG_subprogram
	.dwattr $C$DW$35, DW_AT_name("SysCtlFlashSizeGet")
	.dwattr $C$DW$35, DW_AT_low_pc(SysCtlFlashSizeGet)
	.dwattr $C$DW$35, DW_AT_high_pc(0x00)
	.dwattr $C$DW$35, DW_AT_TI_symbol_name("SysCtlFlashSizeGet")
	.dwattr $C$DW$35, DW_AT_external
	.dwattr $C$DW$35, DW_AT_type(*$C$DW$T$22)
	.dwattr $C$DW$35, DW_AT_TI_begin_file("../driverlib/sysctl.c")
	.dwattr $C$DW$35, DW_AT_TI_begin_line(0x1d7)
	.dwattr $C$DW$35, DW_AT_TI_begin_column(0x01)
	.dwattr $C$DW$35, DW_AT_decl_file("../driverlib/sysctl.c")
	.dwattr $C$DW$35, DW_AT_decl_line(0x1d7)
	.dwattr $C$DW$35, DW_AT_decl_column(0x01)
	.dwattr $C$DW$35, DW_AT_TI_max_frame_size(0x00)
	.dwpsn	file "../driverlib/sysctl.c",line 472,column 1,is_stmt,address SysCtlFlashSizeGet,isa 1

	.dwfde $C$DW$CIE, SysCtlFlashSizeGet

;*****************************************************************************
;* FUNCTION NAME: SysCtlFlashSizeGet                                         *
;*                                                                           *
;*   Regs Modified     : A1,A2,A3,SR                                         *
;*   Regs Used         : A1,A2,A3,LR,SR                                      *
;*   Local Frame Size  : 0 Args + 0 Auto + 0 Save = 0 byte                   *
;*****************************************************************************
SysCtlFlashSizeGet:
;* --------------------------------------------------------------------------*
	.dwcfi	cfa_offset, 0
	.dwpsn	file "../driverlib/sysctl.c",line 477,column 5,is_stmt,isa 1
        LDR       A2, $C$CON7           ; [DPU_V7M3_PIPE] |477| 
        LDR       A1, $C$CON6           ; [DPU_V7M3_PIPE] |477| 
        LDR       A3, [A2, #0]          ; [DPU_V7M3_PIPE] |477| 
        LDR       A2, $C$CON8           ; [DPU_V7M3_PIPE] |477| 
        ANDS      A1, A1, A3            ; [DPU_V7M3_PIPE] |477| 
        CMP       A2, A1                ; [DPU_V7M3_PIPE] |477| 
        BNE       ||$C$L5||             ; [DPU_V7M3_PIPE] |477| 
        ; BRANCHCC OCCURS {||$C$L5||}    ; [] |477| 
;* --------------------------------------------------------------------------*
	.dwpsn	file "../driverlib/sysctl.c",line 482,column 9,is_stmt,isa 1
        LDR       A1, $C$CON9           ; [DPU_V7M3_PIPE] |482| 
        LDR       A1, [A1, #0]          ; [DPU_V7M3_PIPE] |482| 
        BFC       A1, #16, #16          ; [DPU_V7M3_PIPE] |482| 
        LSLS      A1, A1, #11           ; [DPU_V7M3_PIPE] |482| 
        ADD       A1, A1, #2048         ; [DPU_V7M3_PIPE] |482| 
        B         ||$C$L6||             ; [DPU_V7M3_PIPE] |482| 
        ; BRANCH OCCURS {||$C$L6||}      ; [] |482| 
;* --------------------------------------------------------------------------*
;* --------------------------------------------------------------------------*
||$C$L5||:    
	.dwpsn	file "../driverlib/sysctl.c",line 489,column 9,is_stmt,isa 1
        LDR       A1, $C$CON10          ; [DPU_V7M3_PIPE] |489| 
        LDR       A1, [A1, #0]          ; [DPU_V7M3_PIPE] |489| 
        BFC       A1, #16, #16          ; [DPU_V7M3_PIPE] |489| 
        ADDS      A1, A1, #1            ; [DPU_V7M3_PIPE] |489| 
        LSLS      A1, A1, #11           ; [DPU_V7M3_PIPE] |489| 
;* --------------------------------------------------------------------------*
||$C$L6||:    
	.dwpsn	file "../driverlib/sysctl.c",line 491,column 1,is_stmt,isa 1
$C$DW$36	.dwtag  DW_TAG_TI_branch
	.dwattr $C$DW$36, DW_AT_low_pc(0x00)
	.dwattr $C$DW$36, DW_AT_TI_return

        BX        LR                    ; [DPU_V7M3_PIPE] 
        ; BRANCH OCCURS                  ; [] 
	.dwattr $C$DW$35, DW_AT_TI_end_file("../driverlib/sysctl.c")
	.dwattr $C$DW$35, DW_AT_TI_end_line(0x1eb)
	.dwattr $C$DW$35, DW_AT_TI_end_column(0x01)
	.dwendentry
	.dwendtag $C$DW$35

	.sect	".text"
	.clink
	.thumbfunc SysCtlFlashSectorSizeGet
	.thumb
	.global	SysCtlFlashSectorSizeGet

$C$DW$37	.dwtag  DW_TAG_subprogram
	.dwattr $C$DW$37, DW_AT_name("SysCtlFlashSectorSizeGet")
	.dwattr $C$DW$37, DW_AT_low_pc(SysCtlFlashSectorSizeGet)
	.dwattr $C$DW$37, DW_AT_high_pc(0x00)
	.dwattr $C$DW$37, DW_AT_TI_symbol_name("SysCtlFlashSectorSizeGet")
	.dwattr $C$DW$37, DW_AT_external
	.dwattr $C$DW$37, DW_AT_type(*$C$DW$T$22)
	.dwattr $C$DW$37, DW_AT_TI_begin_file("../driverlib/sysctl.c")
	.dwattr $C$DW$37, DW_AT_TI_begin_line(0x1f8)
	.dwattr $C$DW$37, DW_AT_TI_begin_column(0x01)
	.dwattr $C$DW$37, DW_AT_decl_file("../driverlib/sysctl.c")
	.dwattr $C$DW$37, DW_AT_decl_line(0x1f8)
	.dwattr $C$DW$37, DW_AT_decl_column(0x01)
	.dwattr $C$DW$37, DW_AT_TI_max_frame_size(0x00)
	.dwpsn	file "../driverlib/sysctl.c",line 505,column 1,is_stmt,address SysCtlFlashSectorSizeGet,isa 1

	.dwfde $C$DW$CIE, SysCtlFlashSectorSizeGet

;*****************************************************************************
;* FUNCTION NAME: SysCtlFlashSectorSizeGet                                   *
;*                                                                           *
;*   Regs Modified     : A1,A2,A3,SR                                         *
;*   Regs Used         : A1,A2,A3,LR,SR                                      *
;*   Local Frame Size  : 0 Args + 0 Auto + 0 Save = 0 byte                   *
;*****************************************************************************
SysCtlFlashSectorSizeGet:
;* --------------------------------------------------------------------------*
	.dwcfi	cfa_offset, 0
	.dwpsn	file "../driverlib/sysctl.c",line 509,column 5,is_stmt,isa 1
        LDR       A2, $C$CON7           ; [DPU_V7M3_PIPE] |509| 
        LDR       A1, $C$CON6           ; [DPU_V7M3_PIPE] |509| 
        LDR       A3, [A2, #0]          ; [DPU_V7M3_PIPE] |509| 
        LDR       A2, $C$CON11          ; [DPU_V7M3_PIPE] |509| 
        ANDS      A1, A1, A3            ; [DPU_V7M3_PIPE] |509| 
        CMP       A2, A1                ; [DPU_V7M3_PIPE] |509| 
        BNE       ||$C$L7||             ; [DPU_V7M3_PIPE] |509| 
        ; BRANCHCC OCCURS {||$C$L7||}    ; [] |509| 
;* --------------------------------------------------------------------------*
	.dwpsn	file "../driverlib/sysctl.c",line 514,column 9,is_stmt,isa 1
        LDR       A1, $C$CON10          ; [DPU_V7M3_PIPE] |514| 
        LDR       A1, [A1, #0]          ; [DPU_V7M3_PIPE] |514| 
        AND       A1, A1, #458752       ; [DPU_V7M3_PIPE] |514| 
        LSRS      A2, A1, #16           ; [DPU_V7M3_PIPE] |514| 
        MOVS      A1, #1                ; [DPU_V7M3_PIPE] |514| 
        ADDS      A2, A2, #10           ; [DPU_V7M3_PIPE] |514| 
        LSLS      A1, A1, A2            ; [DPU_V7M3_PIPE] |514| 
        B         ||$C$L8||             ; [DPU_V7M3_PIPE] |514| 
        ; BRANCH OCCURS {||$C$L8||}      ; [] |514| 
;* --------------------------------------------------------------------------*
;* --------------------------------------------------------------------------*
||$C$L7||:    
	.dwpsn	file "../driverlib/sysctl.c",line 523,column 9,is_stmt,isa 1
        MOV       A1, #1024             ; [DPU_V7M3_PIPE] |523| 
;* --------------------------------------------------------------------------*
||$C$L8||:    
	.dwpsn	file "../driverlib/sysctl.c",line 525,column 1,is_stmt,isa 1
$C$DW$38	.dwtag  DW_TAG_TI_branch
	.dwattr $C$DW$38, DW_AT_low_pc(0x00)
	.dwattr $C$DW$38, DW_AT_TI_return

        BX        LR                    ; [DPU_V7M3_PIPE] 
        ; BRANCH OCCURS                  ; [] 
	.dwattr $C$DW$37, DW_AT_TI_end_file("../driverlib/sysctl.c")
	.dwattr $C$DW$37, DW_AT_TI_end_line(0x20d)
	.dwattr $C$DW$37, DW_AT_TI_end_column(0x01)
	.dwendentry
	.dwendtag $C$DW$37

	.sect	".text"
	.clink
	.thumbfunc SysCtlPeripheralPresent
	.thumb
	.global	SysCtlPeripheralPresent

$C$DW$39	.dwtag  DW_TAG_subprogram
	.dwattr $C$DW$39, DW_AT_name("SysCtlPeripheralPresent")
	.dwattr $C$DW$39, DW_AT_low_pc(SysCtlPeripheralPresent)
	.dwattr $C$DW$39, DW_AT_high_pc(0x00)
	.dwattr $C$DW$39, DW_AT_TI_symbol_name("SysCtlPeripheralPresent")
	.dwattr $C$DW$39, DW_AT_external
	.dwattr $C$DW$39, DW_AT_type(*$C$DW$T$36)
	.dwattr $C$DW$39, DW_AT_TI_begin_file("../driverlib/sysctl.c")
	.dwattr $C$DW$39, DW_AT_TI_begin_line(0x23c)
	.dwattr $C$DW$39, DW_AT_TI_begin_column(0x01)
	.dwattr $C$DW$39, DW_AT_decl_file("../driverlib/sysctl.c")
	.dwattr $C$DW$39, DW_AT_decl_line(0x23c)
	.dwattr $C$DW$39, DW_AT_decl_column(0x01)
	.dwattr $C$DW$39, DW_AT_TI_max_frame_size(0x10)
	.dwpsn	file "../driverlib/sysctl.c",line 573,column 1,is_stmt,address SysCtlPeripheralPresent,isa 1

	.dwfde $C$DW$CIE, SysCtlPeripheralPresent
$C$DW$40	.dwtag  DW_TAG_formal_parameter
	.dwattr $C$DW$40, DW_AT_name("ui32Peripheral")
	.dwattr $C$DW$40, DW_AT_TI_symbol_name("ui32Peripheral")
	.dwattr $C$DW$40, DW_AT_type(*$C$DW$T$22)
	.dwattr $C$DW$40, DW_AT_location[DW_OP_reg0]


;*****************************************************************************
;* FUNCTION NAME: SysCtlPeripheralPresent                                    *
;*                                                                           *
;*   Regs Modified     : A1,A2,A3,A4,V1,SP,SR                                *
;*   Regs Used         : A1,A2,A3,A4,V1,SP,LR,SR                             *
;*   Local Frame Size  : 0 Args + 4 Auto + 8 Save = 12 byte                  *
;*****************************************************************************
SysCtlPeripheralPresent:
;* --------------------------------------------------------------------------*
	.dwcfi	cfa_offset, 0
        PUSH      {A3, A4, V1, LR}      ; [DPU_V7M3_PIPE] 
	.dwcfi	cfa_offset, 16
	.dwcfi	save_reg_to_mem, 14, -4
	.dwcfi	save_reg_to_mem, 4, -8
	.dwcfi	save_reg_to_mem, 3, -12
	.dwcfi	save_reg_to_mem, 2, -16
$C$DW$41	.dwtag  DW_TAG_variable
	.dwattr $C$DW$41, DW_AT_name("ui32Peripheral")
	.dwattr $C$DW$41, DW_AT_TI_symbol_name("ui32Peripheral")
	.dwattr $C$DW$41, DW_AT_type(*$C$DW$T$22)
	.dwattr $C$DW$41, DW_AT_location[DW_OP_breg13 0]

        STR       A1, [SP, #0]          ; [DPU_V7M3_PIPE] |573| 
	.dwpsn	file "../driverlib/sysctl.c",line 582,column 5,is_stmt,isa 1
        LDR       A2, $C$CON12          ; [DPU_V7M3_PIPE] |582| 
        LDR       A1, $C$CON12          ; [DPU_V7M3_PIPE] |582| 
        LDR       V1, [SP, #0]          ; [DPU_V7M3_PIPE] |582| 
        LDR       A4, [SP, #0]          ; [DPU_V7M3_PIPE] |582| 
        LDR       A3, [SP, #0]          ; [DPU_V7M3_PIPE] |582| 
        AND       V1, V1, #65280        ; [DPU_V7M3_PIPE] |582| 
        AND       A4, A4, #65280        ; [DPU_V7M3_PIPE] |582| 
        AND       A3, A3, #255          ; [DPU_V7M3_PIPE] |582| 
        ADD       A2, A2, V1, LSR #8    ; [DPU_V7M3_PIPE] |582| 
        ADD       A1, A1, A4, LSR #8    ; [DPU_V7M3_PIPE] |582| 
        AND       A2, A2, #-268435456   ; [DPU_V7M3_PIPE] |582| 
        BFC       A1, #20, #12          ; [DPU_V7M3_PIPE] |582| 
        ORR       A2, A2, A1, LSL #5    ; [DPU_V7M3_PIPE] |582| 
        ORR       A2, A2, A3, LSL #2    ; [DPU_V7M3_PIPE] |582| 
        ORR       A1, A2, #33554432     ; [DPU_V7M3_PIPE] |582| 
        LDR       A2, [A1, #0]          ; [DPU_V7M3_PIPE] |582| 
        MOVS      A1, #0                ; [DPU_V7M3_PIPE] |582| 
        CBZ       A2, ||$C$L9||         ; [] 
        ; BRANCHCC OCCURS {||$C$L9||}    ; [] |582| 
;* --------------------------------------------------------------------------*
        MOVS      A1, #1                ; [DPU_V7M3_PIPE] |582| 
;* --------------------------------------------------------------------------*
||$C$L9||:    
	.dwpsn	file "../driverlib/sysctl.c",line 584,column 1,is_stmt,isa 1
$C$DW$42	.dwtag  DW_TAG_TI_branch
	.dwattr $C$DW$42, DW_AT_low_pc(0x00)
	.dwattr $C$DW$42, DW_AT_TI_return

        POP       {A3, A4, V1, PC}      ; [DPU_V7M3_PIPE] 
	.dwcfi	cfa_offset, 0
	.dwcfi	restore_reg, 4
	.dwcfi	restore_reg, 3
	.dwcfi	restore_reg, 2
        ; BRANCH OCCURS                  ; [] 
	.dwattr $C$DW$39, DW_AT_TI_end_file("../driverlib/sysctl.c")
	.dwattr $C$DW$39, DW_AT_TI_end_line(0x248)
	.dwattr $C$DW$39, DW_AT_TI_end_column(0x01)
	.dwendentry
	.dwendtag $C$DW$39

	.sect	".text"
	.clink
	.thumbfunc SysCtlPeripheralReady
	.thumb
	.global	SysCtlPeripheralReady

$C$DW$43	.dwtag  DW_TAG_subprogram
	.dwattr $C$DW$43, DW_AT_name("SysCtlPeripheralReady")
	.dwattr $C$DW$43, DW_AT_low_pc(SysCtlPeripheralReady)
	.dwattr $C$DW$43, DW_AT_high_pc(0x00)
	.dwattr $C$DW$43, DW_AT_TI_symbol_name("SysCtlPeripheralReady")
	.dwattr $C$DW$43, DW_AT_external
	.dwattr $C$DW$43, DW_AT_type(*$C$DW$T$36)
	.dwattr $C$DW$43, DW_AT_TI_begin_file("../driverlib/sysctl.c")
	.dwattr $C$DW$43, DW_AT_TI_begin_line(0x27c)
	.dwattr $C$DW$43, DW_AT_TI_begin_column(0x01)
	.dwattr $C$DW$43, DW_AT_decl_file("../driverlib/sysctl.c")
	.dwattr $C$DW$43, DW_AT_decl_line(0x27c)
	.dwattr $C$DW$43, DW_AT_decl_column(0x01)
	.dwattr $C$DW$43, DW_AT_TI_max_frame_size(0x10)
	.dwpsn	file "../driverlib/sysctl.c",line 637,column 1,is_stmt,address SysCtlPeripheralReady,isa 1

	.dwfde $C$DW$CIE, SysCtlPeripheralReady
$C$DW$44	.dwtag  DW_TAG_formal_parameter
	.dwattr $C$DW$44, DW_AT_name("ui32Peripheral")
	.dwattr $C$DW$44, DW_AT_TI_symbol_name("ui32Peripheral")
	.dwattr $C$DW$44, DW_AT_type(*$C$DW$T$22)
	.dwattr $C$DW$44, DW_AT_location[DW_OP_reg0]


;*****************************************************************************
;* FUNCTION NAME: SysCtlPeripheralReady                                      *
;*                                                                           *
;*   Regs Modified     : A1,A2,A3,A4,V1,SP,SR                                *
;*   Regs Used         : A1,A2,A3,A4,V1,SP,LR,SR                             *
;*   Local Frame Size  : 0 Args + 4 Auto + 8 Save = 12 byte                  *
;*****************************************************************************
SysCtlPeripheralReady:
;* --------------------------------------------------------------------------*
	.dwcfi	cfa_offset, 0
        PUSH      {A3, A4, V1, LR}      ; [DPU_V7M3_PIPE] 
	.dwcfi	cfa_offset, 16
	.dwcfi	save_reg_to_mem, 14, -4
	.dwcfi	save_reg_to_mem, 4, -8
	.dwcfi	save_reg_to_mem, 3, -12
	.dwcfi	save_reg_to_mem, 2, -16
$C$DW$45	.dwtag  DW_TAG_variable
	.dwattr $C$DW$45, DW_AT_name("ui32Peripheral")
	.dwattr $C$DW$45, DW_AT_TI_symbol_name("ui32Peripheral")
	.dwattr $C$DW$45, DW_AT_type(*$C$DW$T$22)
	.dwattr $C$DW$45, DW_AT_location[DW_OP_breg13 0]

        STR       A1, [SP, #0]          ; [DPU_V7M3_PIPE] |637| 
	.dwpsn	file "../driverlib/sysctl.c",line 646,column 5,is_stmt,isa 1
        LDR       A2, $C$CON13          ; [DPU_V7M3_PIPE] |646| 
        LDR       A1, $C$CON13          ; [DPU_V7M3_PIPE] |646| 
        LDR       V1, [SP, #0]          ; [DPU_V7M3_PIPE] |646| 
        LDR       A4, [SP, #0]          ; [DPU_V7M3_PIPE] |646| 
        LDR       A3, [SP, #0]          ; [DPU_V7M3_PIPE] |646| 
        AND       V1, V1, #65280        ; [DPU_V7M3_PIPE] |646| 
        AND       A4, A4, #65280        ; [DPU_V7M3_PIPE] |646| 
        AND       A3, A3, #255          ; [DPU_V7M3_PIPE] |646| 
        ADD       A2, A2, V1, LSR #8    ; [DPU_V7M3_PIPE] |646| 
        ADD       A1, A1, A4, LSR #8    ; [DPU_V7M3_PIPE] |646| 
        AND       A2, A2, #-268435456   ; [DPU_V7M3_PIPE] |646| 
        BFC       A1, #20, #12          ; [DPU_V7M3_PIPE] |646| 
        ORR       A2, A2, A1, LSL #5    ; [DPU_V7M3_PIPE] |646| 
        ORR       A2, A2, A3, LSL #2    ; [DPU_V7M3_PIPE] |646| 
        ORR       A1, A2, #33554432     ; [DPU_V7M3_PIPE] |646| 
        LDR       A2, [A1, #0]          ; [DPU_V7M3_PIPE] |646| 
        MOVS      A1, #0                ; [DPU_V7M3_PIPE] |646| 
        CBZ       A2, ||$C$L10||        ; [] 
        ; BRANCHCC OCCURS {||$C$L10||}   ; [] |646| 
;* --------------------------------------------------------------------------*
        MOVS      A1, #1                ; [DPU_V7M3_PIPE] |646| 
;* --------------------------------------------------------------------------*
||$C$L10||:    
	.dwpsn	file "../driverlib/sysctl.c",line 648,column 1,is_stmt,isa 1
$C$DW$46	.dwtag  DW_TAG_TI_branch
	.dwattr $C$DW$46, DW_AT_low_pc(0x00)
	.dwattr $C$DW$46, DW_AT_TI_return

        POP       {A3, A4, V1, PC}      ; [DPU_V7M3_PIPE] 
	.dwcfi	cfa_offset, 0
	.dwcfi	restore_reg, 4
	.dwcfi	restore_reg, 3
	.dwcfi	restore_reg, 2
        ; BRANCH OCCURS                  ; [] 
	.dwattr $C$DW$43, DW_AT_TI_end_file("../driverlib/sysctl.c")
	.dwattr $C$DW$43, DW_AT_TI_end_line(0x288)
	.dwattr $C$DW$43, DW_AT_TI_end_column(0x01)
	.dwendentry
	.dwendtag $C$DW$43

	.sect	".text"
	.clink
	.thumbfunc SysCtlPeripheralPowerOn
	.thumb
	.global	SysCtlPeripheralPowerOn

$C$DW$47	.dwtag  DW_TAG_subprogram
	.dwattr $C$DW$47, DW_AT_name("SysCtlPeripheralPowerOn")
	.dwattr $C$DW$47, DW_AT_low_pc(SysCtlPeripheralPowerOn)
	.dwattr $C$DW$47, DW_AT_high_pc(0x00)
	.dwattr $C$DW$47, DW_AT_TI_symbol_name("SysCtlPeripheralPowerOn")
	.dwattr $C$DW$47, DW_AT_external
	.dwattr $C$DW$47, DW_AT_TI_begin_file("../driverlib/sysctl.c")
	.dwattr $C$DW$47, DW_AT_TI_begin_line(0x29f)
	.dwattr $C$DW$47, DW_AT_TI_begin_column(0x01)
	.dwattr $C$DW$47, DW_AT_decl_file("../driverlib/sysctl.c")
	.dwattr $C$DW$47, DW_AT_decl_line(0x29f)
	.dwattr $C$DW$47, DW_AT_decl_column(0x01)
	.dwattr $C$DW$47, DW_AT_TI_max_frame_size(0x10)
	.dwpsn	file "../driverlib/sysctl.c",line 672,column 1,is_stmt,address SysCtlPeripheralPowerOn,isa 1

	.dwfde $C$DW$CIE, SysCtlPeripheralPowerOn
$C$DW$48	.dwtag  DW_TAG_formal_parameter
	.dwattr $C$DW$48, DW_AT_name("ui32Peripheral")
	.dwattr $C$DW$48, DW_AT_TI_symbol_name("ui32Peripheral")
	.dwattr $C$DW$48, DW_AT_type(*$C$DW$T$22)
	.dwattr $C$DW$48, DW_AT_location[DW_OP_reg0]


;*****************************************************************************
;* FUNCTION NAME: SysCtlPeripheralPowerOn                                    *
;*                                                                           *
;*   Regs Modified     : A1,A2,A3,A4,V1,SP,SR                                *
;*   Regs Used         : A1,A2,A3,A4,V1,SP,LR,SR                             *
;*   Local Frame Size  : 0 Args + 4 Auto + 8 Save = 12 byte                  *
;*****************************************************************************
SysCtlPeripheralPowerOn:
;* --------------------------------------------------------------------------*
	.dwcfi	cfa_offset, 0
        PUSH      {A3, A4, V1, LR}      ; [DPU_V7M3_PIPE] 
	.dwcfi	cfa_offset, 16
	.dwcfi	save_reg_to_mem, 14, -4
	.dwcfi	save_reg_to_mem, 4, -8
	.dwcfi	save_reg_to_mem, 3, -12
	.dwcfi	save_reg_to_mem, 2, -16
$C$DW$49	.dwtag  DW_TAG_variable
	.dwattr $C$DW$49, DW_AT_name("ui32Peripheral")
	.dwattr $C$DW$49, DW_AT_TI_symbol_name("ui32Peripheral")
	.dwattr $C$DW$49, DW_AT_type(*$C$DW$T$22)
	.dwattr $C$DW$49, DW_AT_location[DW_OP_breg13 0]

        STR       A1, [SP, #0]          ; [DPU_V7M3_PIPE] |672| 
	.dwpsn	file "../driverlib/sysctl.c",line 681,column 5,is_stmt,isa 1
        LDR       A2, $C$CON14          ; [DPU_V7M3_PIPE] |681| 
        LDR       A1, $C$CON14          ; [DPU_V7M3_PIPE] |681| 
        LDR       V1, [SP, #0]          ; [DPU_V7M3_PIPE] |681| 
        LDR       A4, [SP, #0]          ; [DPU_V7M3_PIPE] |681| 
        LDR       A3, [SP, #0]          ; [DPU_V7M3_PIPE] |681| 
        AND       V1, V1, #65280        ; [DPU_V7M3_PIPE] |681| 
        AND       A4, A4, #65280        ; [DPU_V7M3_PIPE] |681| 
        AND       A3, A3, #255          ; [DPU_V7M3_PIPE] |681| 
        ADD       A2, A2, V1, LSR #8    ; [DPU_V7M3_PIPE] |681| 
        ADD       A1, A1, A4, LSR #8    ; [DPU_V7M3_PIPE] |681| 
        AND       A2, A2, #-268435456   ; [DPU_V7M3_PIPE] |681| 
        BFC       A1, #20, #12          ; [DPU_V7M3_PIPE] |681| 
        ORR       A2, A2, A1, LSL #5    ; [DPU_V7M3_PIPE] |681| 
        ORR       A2, A2, A3, LSL #2    ; [DPU_V7M3_PIPE] |681| 
        MOVS      A3, #1                ; [DPU_V7M3_PIPE] |681| 
        ORR       A1, A2, #33554432     ; [DPU_V7M3_PIPE] |681| 
        STR       A3, [A1, #0]          ; [DPU_V7M3_PIPE] |681| 
	.dwpsn	file "../driverlib/sysctl.c",line 683,column 1,is_stmt,isa 1
$C$DW$50	.dwtag  DW_TAG_TI_branch
	.dwattr $C$DW$50, DW_AT_low_pc(0x00)
	.dwattr $C$DW$50, DW_AT_TI_return

        POP       {A3, A4, V1, PC}      ; [DPU_V7M3_PIPE] 
	.dwcfi	cfa_offset, 0
	.dwcfi	restore_reg, 4
	.dwcfi	restore_reg, 3
	.dwcfi	restore_reg, 2
        ; BRANCH OCCURS                  ; [] 
	.dwattr $C$DW$47, DW_AT_TI_end_file("../driverlib/sysctl.c")
	.dwattr $C$DW$47, DW_AT_TI_end_line(0x2ab)
	.dwattr $C$DW$47, DW_AT_TI_end_column(0x01)
	.dwendentry
	.dwendtag $C$DW$47

	.sect	".text"
	.clink
	.thumbfunc SysCtlPeripheralPowerOff
	.thumb
	.global	SysCtlPeripheralPowerOff

$C$DW$51	.dwtag  DW_TAG_subprogram
	.dwattr $C$DW$51, DW_AT_name("SysCtlPeripheralPowerOff")
	.dwattr $C$DW$51, DW_AT_low_pc(SysCtlPeripheralPowerOff)
	.dwattr $C$DW$51, DW_AT_high_pc(0x00)
	.dwattr $C$DW$51, DW_AT_TI_symbol_name("SysCtlPeripheralPowerOff")
	.dwattr $C$DW$51, DW_AT_external
	.dwattr $C$DW$51, DW_AT_TI_begin_file("../driverlib/sysctl.c")
	.dwattr $C$DW$51, DW_AT_TI_begin_line(0x2c3)
	.dwattr $C$DW$51, DW_AT_TI_begin_column(0x01)
	.dwattr $C$DW$51, DW_AT_decl_file("../driverlib/sysctl.c")
	.dwattr $C$DW$51, DW_AT_decl_line(0x2c3)
	.dwattr $C$DW$51, DW_AT_decl_column(0x01)
	.dwattr $C$DW$51, DW_AT_TI_max_frame_size(0x10)
	.dwpsn	file "../driverlib/sysctl.c",line 708,column 1,is_stmt,address SysCtlPeripheralPowerOff,isa 1

	.dwfde $C$DW$CIE, SysCtlPeripheralPowerOff
$C$DW$52	.dwtag  DW_TAG_formal_parameter
	.dwattr $C$DW$52, DW_AT_name("ui32Peripheral")
	.dwattr $C$DW$52, DW_AT_TI_symbol_name("ui32Peripheral")
	.dwattr $C$DW$52, DW_AT_type(*$C$DW$T$22)
	.dwattr $C$DW$52, DW_AT_location[DW_OP_reg0]


;*****************************************************************************
;* FUNCTION NAME: SysCtlPeripheralPowerOff                                   *
;*                                                                           *
;*   Regs Modified     : A1,A2,A3,A4,V1,SP,SR                                *
;*   Regs Used         : A1,A2,A3,A4,V1,SP,LR,SR                             *
;*   Local Frame Size  : 0 Args + 4 Auto + 8 Save = 12 byte                  *
;*****************************************************************************
SysCtlPeripheralPowerOff:
;* --------------------------------------------------------------------------*
	.dwcfi	cfa_offset, 0
        PUSH      {A3, A4, V1, LR}      ; [DPU_V7M3_PIPE] 
	.dwcfi	cfa_offset, 16
	.dwcfi	save_reg_to_mem, 14, -4
	.dwcfi	save_reg_to_mem, 4, -8
	.dwcfi	save_reg_to_mem, 3, -12
	.dwcfi	save_reg_to_mem, 2, -16
$C$DW$53	.dwtag  DW_TAG_variable
	.dwattr $C$DW$53, DW_AT_name("ui32Peripheral")
	.dwattr $C$DW$53, DW_AT_TI_symbol_name("ui32Peripheral")
	.dwattr $C$DW$53, DW_AT_type(*$C$DW$T$22)
	.dwattr $C$DW$53, DW_AT_location[DW_OP_breg13 0]

        STR       A1, [SP, #0]          ; [DPU_V7M3_PIPE] |708| 
	.dwpsn	file "../driverlib/sysctl.c",line 717,column 5,is_stmt,isa 1
        LDR       A2, $C$CON14          ; [DPU_V7M3_PIPE] |717| 
        LDR       A1, $C$CON14          ; [DPU_V7M3_PIPE] |717| 
        LDR       V1, [SP, #0]          ; [DPU_V7M3_PIPE] |717| 
        LDR       A4, [SP, #0]          ; [DPU_V7M3_PIPE] |717| 
        LDR       A3, [SP, #0]          ; [DPU_V7M3_PIPE] |717| 
        AND       V1, V1, #65280        ; [DPU_V7M3_PIPE] |717| 
        AND       A4, A4, #65280        ; [DPU_V7M3_PIPE] |717| 
        AND       A3, A3, #255          ; [DPU_V7M3_PIPE] |717| 
        ADD       A2, A2, V1, LSR #8    ; [DPU_V7M3_PIPE] |717| 
        ADD       A1, A1, A4, LSR #8    ; [DPU_V7M3_PIPE] |717| 
        AND       A2, A2, #-268435456   ; [DPU_V7M3_PIPE] |717| 
        BFC       A1, #20, #12          ; [DPU_V7M3_PIPE] |717| 
        ORR       A2, A2, A1, LSL #5    ; [DPU_V7M3_PIPE] |717| 
        ORR       A2, A2, A3, LSL #2    ; [DPU_V7M3_PIPE] |717| 
        MOVS      A3, #0                ; [DPU_V7M3_PIPE] |717| 
        ORR       A1, A2, #33554432     ; [DPU_V7M3_PIPE] |717| 
        STR       A3, [A1, #0]          ; [DPU_V7M3_PIPE] |717| 
	.dwpsn	file "../driverlib/sysctl.c",line 719,column 1,is_stmt,isa 1
$C$DW$54	.dwtag  DW_TAG_TI_branch
	.dwattr $C$DW$54, DW_AT_low_pc(0x00)
	.dwattr $C$DW$54, DW_AT_TI_return

        POP       {A3, A4, V1, PC}      ; [DPU_V7M3_PIPE] 
	.dwcfi	cfa_offset, 0
	.dwcfi	restore_reg, 4
	.dwcfi	restore_reg, 3
	.dwcfi	restore_reg, 2
        ; BRANCH OCCURS                  ; [] 
	.dwattr $C$DW$51, DW_AT_TI_end_file("../driverlib/sysctl.c")
	.dwattr $C$DW$51, DW_AT_TI_end_line(0x2cf)
	.dwattr $C$DW$51, DW_AT_TI_end_column(0x01)
	.dwendentry
	.dwendtag $C$DW$51

	.sect	".text"
	.clink
	.thumbfunc SysCtlPeripheralReset
	.thumb
	.global	SysCtlPeripheralReset

$C$DW$55	.dwtag  DW_TAG_subprogram
	.dwattr $C$DW$55, DW_AT_name("SysCtlPeripheralReset")
	.dwattr $C$DW$55, DW_AT_low_pc(SysCtlPeripheralReset)
	.dwattr $C$DW$55, DW_AT_high_pc(0x00)
	.dwattr $C$DW$55, DW_AT_TI_symbol_name("SysCtlPeripheralReset")
	.dwattr $C$DW$55, DW_AT_external
	.dwattr $C$DW$55, DW_AT_TI_begin_file("../driverlib/sysctl.c")
	.dwattr $C$DW$55, DW_AT_TI_begin_line(0x2fe)
	.dwattr $C$DW$55, DW_AT_TI_begin_column(0x01)
	.dwattr $C$DW$55, DW_AT_decl_file("../driverlib/sysctl.c")
	.dwattr $C$DW$55, DW_AT_decl_line(0x2fe)
	.dwattr $C$DW$55, DW_AT_decl_column(0x01)
	.dwattr $C$DW$55, DW_AT_TI_max_frame_size(0x10)
	.dwpsn	file "../driverlib/sysctl.c",line 767,column 1,is_stmt,address SysCtlPeripheralReset,isa 1

	.dwfde $C$DW$CIE, SysCtlPeripheralReset
$C$DW$56	.dwtag  DW_TAG_formal_parameter
	.dwattr $C$DW$56, DW_AT_name("ui32Peripheral")
	.dwattr $C$DW$56, DW_AT_TI_symbol_name("ui32Peripheral")
	.dwattr $C$DW$56, DW_AT_type(*$C$DW$T$22)
	.dwattr $C$DW$56, DW_AT_location[DW_OP_reg0]


;*****************************************************************************
;* FUNCTION NAME: SysCtlPeripheralReset                                      *
;*                                                                           *
;*   Regs Modified     : A1,A2,A3,A4,V1,SP,SR                                *
;*   Regs Used         : A1,A2,A3,A4,V1,SP,LR,SR                             *
;*   Local Frame Size  : 0 Args + 8 Auto + 8 Save = 16 byte                  *
;*****************************************************************************
SysCtlPeripheralReset:
;* --------------------------------------------------------------------------*
	.dwcfi	cfa_offset, 0
        PUSH      {A3, A4, V1, LR}      ; [DPU_V7M3_PIPE] 
	.dwcfi	cfa_offset, 16
	.dwcfi	save_reg_to_mem, 14, -4
	.dwcfi	save_reg_to_mem, 4, -8
	.dwcfi	save_reg_to_mem, 3, -12
	.dwcfi	save_reg_to_mem, 2, -16
$C$DW$57	.dwtag  DW_TAG_variable
	.dwattr $C$DW$57, DW_AT_name("ui32Peripheral")
	.dwattr $C$DW$57, DW_AT_TI_symbol_name("ui32Peripheral")
	.dwattr $C$DW$57, DW_AT_type(*$C$DW$T$22)
	.dwattr $C$DW$57, DW_AT_location[DW_OP_breg13 0]

$C$DW$58	.dwtag  DW_TAG_variable
	.dwattr $C$DW$58, DW_AT_name("ui8Delay")
	.dwattr $C$DW$58, DW_AT_TI_symbol_name("ui8Delay")
	.dwattr $C$DW$58, DW_AT_type(*$C$DW$T$107)
	.dwattr $C$DW$58, DW_AT_location[DW_OP_breg13 4]

        STR       A1, [SP, #0]          ; [DPU_V7M3_PIPE] |767| 
	.dwpsn	file "../driverlib/sysctl.c",line 778,column 5,is_stmt,isa 1
        LDR       A2, $C$CON15          ; [DPU_V7M3_PIPE] |778| 
        LDR       A1, $C$CON15          ; [DPU_V7M3_PIPE] |778| 
        LDR       V1, [SP, #0]          ; [DPU_V7M3_PIPE] |778| 
        LDR       A4, [SP, #0]          ; [DPU_V7M3_PIPE] |778| 
        LDR       A3, [SP, #0]          ; [DPU_V7M3_PIPE] |778| 
        AND       V1, V1, #65280        ; [DPU_V7M3_PIPE] |778| 
        AND       A4, A4, #65280        ; [DPU_V7M3_PIPE] |778| 
        AND       A3, A3, #255          ; [DPU_V7M3_PIPE] |778| 
        ADD       A2, A2, V1, LSR #8    ; [DPU_V7M3_PIPE] |778| 
        ADD       A1, A1, A4, LSR #8    ; [DPU_V7M3_PIPE] |778| 
        AND       A2, A2, #-268435456   ; [DPU_V7M3_PIPE] |778| 
        BFC       A1, #20, #12          ; [DPU_V7M3_PIPE] |778| 
        ORR       A2, A2, A1, LSL #5    ; [DPU_V7M3_PIPE] |778| 
        ORR       A2, A2, A3, LSL #2    ; [DPU_V7M3_PIPE] |778| 
        MOVS      A3, #1                ; [DPU_V7M3_PIPE] |778| 
        ORR       A1, A2, #33554432     ; [DPU_V7M3_PIPE] |778| 
        STR       A3, [A1, #0]          ; [DPU_V7M3_PIPE] |778| 
	.dwpsn	file "../driverlib/sysctl.c",line 784,column 9,is_stmt,isa 1
        MOVS      A1, #0                ; [DPU_V7M3_PIPE] |784| 
        STR       A1, [SP, #4]          ; [DPU_V7M3_PIPE] |784| 
	.dwpsn	file "../driverlib/sysctl.c",line 784,column 23,is_stmt,isa 1
        LDR       A1, [SP, #4]          ; [DPU_V7M3_PIPE] |784| 
        CMP       A1, #16               ; [DPU_V7M3_PIPE] |784| 
        BCS       ||$C$L12||            ; [DPU_V7M3_PIPE] |784| 
        ; BRANCHCC OCCURS {||$C$L12||}   ; [] |784| 
;* --------------------------------------------------------------------------*
;*   BEGIN LOOP ||$C$L11||
;*
;*   Loop source line                : 784
;*   Loop closing brace source line  : 786
;*   Known Minimum Trip Count        : 1
;*   Known Maximum Trip Count        : 4294967295
;*   Known Max Trip Count Factor     : 1
;* --------------------------------------------------------------------------*
||$C$L11||:    
	.dwpsn	file "../driverlib/sysctl.c",line 784,column 38,is_stmt,isa 1
        LDR       A1, [SP, #4]          ; [DPU_V7M3_PIPE] |784| 
        ADDS      A1, A1, #1            ; [DPU_V7M3_PIPE] |784| 
        STR       A1, [SP, #4]          ; [DPU_V7M3_PIPE] |784| 
	.dwpsn	file "../driverlib/sysctl.c",line 784,column 23,is_stmt,isa 1
        LDR       A1, [SP, #4]          ; [DPU_V7M3_PIPE] |784| 
        CMP       A1, #16               ; [DPU_V7M3_PIPE] |784| 
        BCC       ||$C$L11||            ; [DPU_V7M3_PIPE] |784| 
        ; BRANCHCC OCCURS {||$C$L11||}   ; [] |784| 
;* --------------------------------------------------------------------------*
||$C$L12||:    
	.dwpsn	file "../driverlib/sysctl.c",line 791,column 5,is_stmt,isa 1
        LDR       V1, [SP, #0]          ; [DPU_V7M3_PIPE] |791| 
        LDR       A4, [SP, #0]          ; [DPU_V7M3_PIPE] |791| 
        LDR       A3, [SP, #0]          ; [DPU_V7M3_PIPE] |791| 
        LDR       A2, $C$CON15          ; [DPU_V7M3_PIPE] |791| 
        LDR       A1, $C$CON15          ; [DPU_V7M3_PIPE] |791| 
        AND       V1, V1, #65280        ; [DPU_V7M3_PIPE] |791| 
        AND       A4, A4, #65280        ; [DPU_V7M3_PIPE] |791| 
        AND       A3, A3, #255          ; [DPU_V7M3_PIPE] |791| 
        ADD       A2, A2, V1, LSR #8    ; [DPU_V7M3_PIPE] |791| 
        ADD       A1, A1, A4, LSR #8    ; [DPU_V7M3_PIPE] |791| 
        AND       A2, A2, #-268435456   ; [DPU_V7M3_PIPE] |791| 
        BFC       A1, #20, #12          ; [DPU_V7M3_PIPE] |791| 
        ORR       A2, A2, A1, LSL #5    ; [DPU_V7M3_PIPE] |791| 
        ORR       A2, A2, A3, LSL #2    ; [DPU_V7M3_PIPE] |791| 
        MOVS      A3, #0                ; [DPU_V7M3_PIPE] |791| 
        ORR       A1, A2, #33554432     ; [DPU_V7M3_PIPE] |791| 
        STR       A3, [A1, #0]          ; [DPU_V7M3_PIPE] |791| 
	.dwpsn	file "../driverlib/sysctl.c",line 793,column 1,is_stmt,isa 1
$C$DW$59	.dwtag  DW_TAG_TI_branch
	.dwattr $C$DW$59, DW_AT_low_pc(0x00)
	.dwattr $C$DW$59, DW_AT_TI_return

        POP       {A3, A4, V1, PC}      ; [DPU_V7M3_PIPE] 
	.dwcfi	cfa_offset, 0
	.dwcfi	restore_reg, 4
	.dwcfi	restore_reg, 3
	.dwcfi	restore_reg, 2
        ; BRANCH OCCURS                  ; [] 
	.dwattr $C$DW$55, DW_AT_TI_end_file("../driverlib/sysctl.c")
	.dwattr $C$DW$55, DW_AT_TI_end_line(0x319)
	.dwattr $C$DW$55, DW_AT_TI_end_column(0x01)
	.dwendentry
	.dwendtag $C$DW$55

	.sect	".text"
	.clink
	.thumbfunc SysCtlPeripheralEnable
	.thumb
	.global	SysCtlPeripheralEnable

$C$DW$60	.dwtag  DW_TAG_subprogram
	.dwattr $C$DW$60, DW_AT_name("SysCtlPeripheralEnable")
	.dwattr $C$DW$60, DW_AT_low_pc(SysCtlPeripheralEnable)
	.dwattr $C$DW$60, DW_AT_high_pc(0x00)
	.dwattr $C$DW$60, DW_AT_TI_symbol_name("SysCtlPeripheralEnable")
	.dwattr $C$DW$60, DW_AT_external
	.dwattr $C$DW$60, DW_AT_TI_begin_file("../driverlib/sysctl.c")
	.dwattr $C$DW$60, DW_AT_TI_begin_line(0x34d)
	.dwattr $C$DW$60, DW_AT_TI_begin_column(0x01)
	.dwattr $C$DW$60, DW_AT_decl_file("../driverlib/sysctl.c")
	.dwattr $C$DW$60, DW_AT_decl_line(0x34d)
	.dwattr $C$DW$60, DW_AT_decl_column(0x01)
	.dwattr $C$DW$60, DW_AT_TI_max_frame_size(0x10)
	.dwpsn	file "../driverlib/sysctl.c",line 846,column 1,is_stmt,address SysCtlPeripheralEnable,isa 1

	.dwfde $C$DW$CIE, SysCtlPeripheralEnable
$C$DW$61	.dwtag  DW_TAG_formal_parameter
	.dwattr $C$DW$61, DW_AT_name("ui32Peripheral")
	.dwattr $C$DW$61, DW_AT_TI_symbol_name("ui32Peripheral")
	.dwattr $C$DW$61, DW_AT_type(*$C$DW$T$22)
	.dwattr $C$DW$61, DW_AT_location[DW_OP_reg0]


;*****************************************************************************
;* FUNCTION NAME: SysCtlPeripheralEnable                                     *
;*                                                                           *
;*   Regs Modified     : A1,A2,A3,A4,V1,SP,SR                                *
;*   Regs Used         : A1,A2,A3,A4,V1,SP,LR,SR                             *
;*   Local Frame Size  : 0 Args + 4 Auto + 8 Save = 12 byte                  *
;*****************************************************************************
SysCtlPeripheralEnable:
;* --------------------------------------------------------------------------*
	.dwcfi	cfa_offset, 0
        PUSH      {A3, A4, V1, LR}      ; [DPU_V7M3_PIPE] 
	.dwcfi	cfa_offset, 16
	.dwcfi	save_reg_to_mem, 14, -4
	.dwcfi	save_reg_to_mem, 4, -8
	.dwcfi	save_reg_to_mem, 3, -12
	.dwcfi	save_reg_to_mem, 2, -16
$C$DW$62	.dwtag  DW_TAG_variable
	.dwattr $C$DW$62, DW_AT_name("ui32Peripheral")
	.dwattr $C$DW$62, DW_AT_TI_symbol_name("ui32Peripheral")
	.dwattr $C$DW$62, DW_AT_type(*$C$DW$T$22)
	.dwattr $C$DW$62, DW_AT_location[DW_OP_breg13 0]

        STR       A1, [SP, #0]          ; [DPU_V7M3_PIPE] |846| 
	.dwpsn	file "../driverlib/sysctl.c",line 855,column 5,is_stmt,isa 1
        LDR       A2, $C$CON16          ; [DPU_V7M3_PIPE] |855| 
        LDR       A1, $C$CON16          ; [DPU_V7M3_PIPE] |855| 
        LDR       V1, [SP, #0]          ; [DPU_V7M3_PIPE] |855| 
        LDR       A4, [SP, #0]          ; [DPU_V7M3_PIPE] |855| 
        LDR       A3, [SP, #0]          ; [DPU_V7M3_PIPE] |855| 
        AND       V1, V1, #65280        ; [DPU_V7M3_PIPE] |855| 
        AND       A4, A4, #65280        ; [DPU_V7M3_PIPE] |855| 
        AND       A3, A3, #255          ; [DPU_V7M3_PIPE] |855| 
        ADD       A2, A2, V1, LSR #8    ; [DPU_V7M3_PIPE] |855| 
        ADD       A1, A1, A4, LSR #8    ; [DPU_V7M3_PIPE] |855| 
        AND       A2, A2, #-268435456   ; [DPU_V7M3_PIPE] |855| 
        BFC       A1, #20, #12          ; [DPU_V7M3_PIPE] |855| 
        ORR       A2, A2, A1, LSL #5    ; [DPU_V7M3_PIPE] |855| 
        ORR       A2, A2, A3, LSL #2    ; [DPU_V7M3_PIPE] |855| 
        MOVS      A3, #1                ; [DPU_V7M3_PIPE] |855| 
        ORR       A1, A2, #33554432     ; [DPU_V7M3_PIPE] |855| 
        STR       A3, [A1, #0]          ; [DPU_V7M3_PIPE] |855| 
	.dwpsn	file "../driverlib/sysctl.c",line 857,column 1,is_stmt,isa 1
$C$DW$63	.dwtag  DW_TAG_TI_branch
	.dwattr $C$DW$63, DW_AT_low_pc(0x00)
	.dwattr $C$DW$63, DW_AT_TI_return

        POP       {A3, A4, V1, PC}      ; [DPU_V7M3_PIPE] 
	.dwcfi	cfa_offset, 0
	.dwcfi	restore_reg, 4
	.dwcfi	restore_reg, 3
	.dwcfi	restore_reg, 2
        ; BRANCH OCCURS                  ; [] 
	.dwattr $C$DW$60, DW_AT_TI_end_file("../driverlib/sysctl.c")
	.dwattr $C$DW$60, DW_AT_TI_end_line(0x359)
	.dwattr $C$DW$60, DW_AT_TI_end_column(0x01)
	.dwendentry
	.dwendtag $C$DW$60

	.sect	".text"
	.clink
	.thumbfunc SysCtlPeripheralDisable
	.thumb
	.global	SysCtlPeripheralDisable

$C$DW$64	.dwtag  DW_TAG_subprogram
	.dwattr $C$DW$64, DW_AT_name("SysCtlPeripheralDisable")
	.dwattr $C$DW$64, DW_AT_low_pc(SysCtlPeripheralDisable)
	.dwattr $C$DW$64, DW_AT_high_pc(0x00)
	.dwattr $C$DW$64, DW_AT_TI_symbol_name("SysCtlPeripheralDisable")
	.dwattr $C$DW$64, DW_AT_external
	.dwattr $C$DW$64, DW_AT_TI_begin_file("../driverlib/sysctl.c")
	.dwattr $C$DW$64, DW_AT_TI_begin_line(0x386)
	.dwattr $C$DW$64, DW_AT_TI_begin_column(0x01)
	.dwattr $C$DW$64, DW_AT_decl_file("../driverlib/sysctl.c")
	.dwattr $C$DW$64, DW_AT_decl_line(0x386)
	.dwattr $C$DW$64, DW_AT_decl_column(0x01)
	.dwattr $C$DW$64, DW_AT_TI_max_frame_size(0x10)
	.dwpsn	file "../driverlib/sysctl.c",line 903,column 1,is_stmt,address SysCtlPeripheralDisable,isa 1

	.dwfde $C$DW$CIE, SysCtlPeripheralDisable
$C$DW$65	.dwtag  DW_TAG_formal_parameter
	.dwattr $C$DW$65, DW_AT_name("ui32Peripheral")
	.dwattr $C$DW$65, DW_AT_TI_symbol_name("ui32Peripheral")
	.dwattr $C$DW$65, DW_AT_type(*$C$DW$T$22)
	.dwattr $C$DW$65, DW_AT_location[DW_OP_reg0]


;*****************************************************************************
;* FUNCTION NAME: SysCtlPeripheralDisable                                    *
;*                                                                           *
;*   Regs Modified     : A1,A2,A3,A4,V1,SP,SR                                *
;*   Regs Used         : A1,A2,A3,A4,V1,SP,LR,SR                             *
;*   Local Frame Size  : 0 Args + 4 Auto + 8 Save = 12 byte                  *
;*****************************************************************************
SysCtlPeripheralDisable:
;* --------------------------------------------------------------------------*
	.dwcfi	cfa_offset, 0
        PUSH      {A3, A4, V1, LR}      ; [DPU_V7M3_PIPE] 
	.dwcfi	cfa_offset, 16
	.dwcfi	save_reg_to_mem, 14, -4
	.dwcfi	save_reg_to_mem, 4, -8
	.dwcfi	save_reg_to_mem, 3, -12
	.dwcfi	save_reg_to_mem, 2, -16
$C$DW$66	.dwtag  DW_TAG_variable
	.dwattr $C$DW$66, DW_AT_name("ui32Peripheral")
	.dwattr $C$DW$66, DW_AT_TI_symbol_name("ui32Peripheral")
	.dwattr $C$DW$66, DW_AT_type(*$C$DW$T$22)
	.dwattr $C$DW$66, DW_AT_location[DW_OP_breg13 0]

        STR       A1, [SP, #0]          ; [DPU_V7M3_PIPE] |903| 
	.dwpsn	file "../driverlib/sysctl.c",line 912,column 5,is_stmt,isa 1
        LDR       A2, $C$CON16          ; [DPU_V7M3_PIPE] |912| 
        LDR       A1, $C$CON16          ; [DPU_V7M3_PIPE] |912| 
        LDR       V1, [SP, #0]          ; [DPU_V7M3_PIPE] |912| 
        LDR       A4, [SP, #0]          ; [DPU_V7M3_PIPE] |912| 
        LDR       A3, [SP, #0]          ; [DPU_V7M3_PIPE] |912| 
        AND       V1, V1, #65280        ; [DPU_V7M3_PIPE] |912| 
        AND       A4, A4, #65280        ; [DPU_V7M3_PIPE] |912| 
        AND       A3, A3, #255          ; [DPU_V7M3_PIPE] |912| 
        ADD       A2, A2, V1, LSR #8    ; [DPU_V7M3_PIPE] |912| 
        ADD       A1, A1, A4, LSR #8    ; [DPU_V7M3_PIPE] |912| 
        AND       A2, A2, #-268435456   ; [DPU_V7M3_PIPE] |912| 
        BFC       A1, #20, #12          ; [DPU_V7M3_PIPE] |912| 
        ORR       A2, A2, A1, LSL #5    ; [DPU_V7M3_PIPE] |912| 
        ORR       A2, A2, A3, LSL #2    ; [DPU_V7M3_PIPE] |912| 
        MOVS      A3, #0                ; [DPU_V7M3_PIPE] |912| 
        ORR       A1, A2, #33554432     ; [DPU_V7M3_PIPE] |912| 
        STR       A3, [A1, #0]          ; [DPU_V7M3_PIPE] |912| 
	.dwpsn	file "../driverlib/sysctl.c",line 914,column 1,is_stmt,isa 1
$C$DW$67	.dwtag  DW_TAG_TI_branch
	.dwattr $C$DW$67, DW_AT_low_pc(0x00)
	.dwattr $C$DW$67, DW_AT_TI_return

        POP       {A3, A4, V1, PC}      ; [DPU_V7M3_PIPE] 
	.dwcfi	cfa_offset, 0
	.dwcfi	restore_reg, 4
	.dwcfi	restore_reg, 3
	.dwcfi	restore_reg, 2
        ; BRANCH OCCURS                  ; [] 
	.dwattr $C$DW$64, DW_AT_TI_end_file("../driverlib/sysctl.c")
	.dwattr $C$DW$64, DW_AT_TI_end_line(0x392)
	.dwattr $C$DW$64, DW_AT_TI_end_column(0x01)
	.dwendentry
	.dwendtag $C$DW$64

;******************************************************************************
;* CONSTANT TABLE                                                             *
;******************************************************************************
	.sect	".text"
	.align	4
||$C$CON1||:	.bits	g_sXTALtoMEMTIM,32
	.align	4
||$C$CON2||:	.bits	g_sXTALtoMEMTIM+4,32
	.sect	".text"
	.clink
	.thumbfunc SysCtlPeripheralSleepEnable
	.thumb
	.global	SysCtlPeripheralSleepEnable

$C$DW$68	.dwtag  DW_TAG_subprogram
	.dwattr $C$DW$68, DW_AT_name("SysCtlPeripheralSleepEnable")
	.dwattr $C$DW$68, DW_AT_low_pc(SysCtlPeripheralSleepEnable)
	.dwattr $C$DW$68, DW_AT_high_pc(0x00)
	.dwattr $C$DW$68, DW_AT_TI_symbol_name("SysCtlPeripheralSleepEnable")
	.dwattr $C$DW$68, DW_AT_external
	.dwattr $C$DW$68, DW_AT_TI_begin_file("../driverlib/sysctl.c")
	.dwattr $C$DW$68, DW_AT_TI_begin_line(0x3c6)
	.dwattr $C$DW$68, DW_AT_TI_begin_column(0x01)
	.dwattr $C$DW$68, DW_AT_decl_file("../driverlib/sysctl.c")
	.dwattr $C$DW$68, DW_AT_decl_line(0x3c6)
	.dwattr $C$DW$68, DW_AT_decl_column(0x01)
	.dwattr $C$DW$68, DW_AT_TI_max_frame_size(0x10)
	.dwpsn	file "../driverlib/sysctl.c",line 967,column 1,is_stmt,address SysCtlPeripheralSleepEnable,isa 1

	.dwfde $C$DW$CIE, SysCtlPeripheralSleepEnable
$C$DW$69	.dwtag  DW_TAG_formal_parameter
	.dwattr $C$DW$69, DW_AT_name("ui32Peripheral")
	.dwattr $C$DW$69, DW_AT_TI_symbol_name("ui32Peripheral")
	.dwattr $C$DW$69, DW_AT_type(*$C$DW$T$22)
	.dwattr $C$DW$69, DW_AT_location[DW_OP_reg0]


;*****************************************************************************
;* FUNCTION NAME: SysCtlPeripheralSleepEnable                                *
;*                                                                           *
;*   Regs Modified     : A1,A2,A3,A4,V1,SP,SR                                *
;*   Regs Used         : A1,A2,A3,A4,V1,SP,LR,SR                             *
;*   Local Frame Size  : 0 Args + 4 Auto + 8 Save = 12 byte                  *
;*****************************************************************************
SysCtlPeripheralSleepEnable:
;* --------------------------------------------------------------------------*
	.dwcfi	cfa_offset, 0
        PUSH      {A3, A4, V1, LR}      ; [DPU_V7M3_PIPE] 
	.dwcfi	cfa_offset, 16
	.dwcfi	save_reg_to_mem, 14, -4
	.dwcfi	save_reg_to_mem, 4, -8
	.dwcfi	save_reg_to_mem, 3, -12
	.dwcfi	save_reg_to_mem, 2, -16
$C$DW$70	.dwtag  DW_TAG_variable
	.dwattr $C$DW$70, DW_AT_name("ui32Peripheral")
	.dwattr $C$DW$70, DW_AT_TI_symbol_name("ui32Peripheral")
	.dwattr $C$DW$70, DW_AT_type(*$C$DW$T$22)
	.dwattr $C$DW$70, DW_AT_location[DW_OP_breg13 0]

        STR       A1, [SP, #0]          ; [DPU_V7M3_PIPE] |967| 
	.dwpsn	file "../driverlib/sysctl.c",line 976,column 5,is_stmt,isa 1
        LDR       A2, $C$CON17          ; [DPU_V7M3_PIPE] |976| 
        LDR       A1, $C$CON17          ; [DPU_V7M3_PIPE] |976| 
        LDR       V1, [SP, #0]          ; [DPU_V7M3_PIPE] |976| 
        LDR       A4, [SP, #0]          ; [DPU_V7M3_PIPE] |976| 
        LDR       A3, [SP, #0]          ; [DPU_V7M3_PIPE] |976| 
        AND       V1, V1, #65280        ; [DPU_V7M3_PIPE] |976| 
        AND       A4, A4, #65280        ; [DPU_V7M3_PIPE] |976| 
        AND       A3, A3, #255          ; [DPU_V7M3_PIPE] |976| 
        ADD       A2, A2, V1, LSR #8    ; [DPU_V7M3_PIPE] |976| 
        ADD       A1, A1, A4, LSR #8    ; [DPU_V7M3_PIPE] |976| 
        AND       A2, A2, #-268435456   ; [DPU_V7M3_PIPE] |976| 
        BFC       A1, #20, #12          ; [DPU_V7M3_PIPE] |976| 
        ORR       A2, A2, A1, LSL #5    ; [DPU_V7M3_PIPE] |976| 
        ORR       A2, A2, A3, LSL #2    ; [DPU_V7M3_PIPE] |976| 
        MOVS      A3, #1                ; [DPU_V7M3_PIPE] |976| 
        ORR       A1, A2, #33554432     ; [DPU_V7M3_PIPE] |976| 
        STR       A3, [A1, #0]          ; [DPU_V7M3_PIPE] |976| 
	.dwpsn	file "../driverlib/sysctl.c",line 978,column 1,is_stmt,isa 1
$C$DW$71	.dwtag  DW_TAG_TI_branch
	.dwattr $C$DW$71, DW_AT_low_pc(0x00)
	.dwattr $C$DW$71, DW_AT_TI_return

        POP       {A3, A4, V1, PC}      ; [DPU_V7M3_PIPE] 
	.dwcfi	cfa_offset, 0
	.dwcfi	restore_reg, 4
	.dwcfi	restore_reg, 3
	.dwcfi	restore_reg, 2
        ; BRANCH OCCURS                  ; [] 
	.dwattr $C$DW$68, DW_AT_TI_end_file("../driverlib/sysctl.c")
	.dwattr $C$DW$68, DW_AT_TI_end_line(0x3d2)
	.dwattr $C$DW$68, DW_AT_TI_end_column(0x01)
	.dwendentry
	.dwendtag $C$DW$68

;******************************************************************************
;* CONSTANT TABLE                                                             *
;******************************************************************************
	.sect	".text"
	.align	4
||$C$CON3||:	.bits		0x400fe160,32

	.align	4
||$C$CON4||:	.bits		0x400fe164,32

	.sect	".text"
	.clink
	.thumbfunc SysCtlPeripheralSleepDisable
	.thumb
	.global	SysCtlPeripheralSleepDisable

$C$DW$72	.dwtag  DW_TAG_subprogram
	.dwattr $C$DW$72, DW_AT_name("SysCtlPeripheralSleepDisable")
	.dwattr $C$DW$72, DW_AT_low_pc(SysCtlPeripheralSleepDisable)
	.dwattr $C$DW$72, DW_AT_high_pc(0x00)
	.dwattr $C$DW$72, DW_AT_TI_symbol_name("SysCtlPeripheralSleepDisable")
	.dwattr $C$DW$72, DW_AT_external
	.dwattr $C$DW$72, DW_AT_TI_begin_file("../driverlib/sysctl.c")
	.dwattr $C$DW$72, DW_AT_TI_begin_line(0x407)
	.dwattr $C$DW$72, DW_AT_TI_begin_column(0x01)
	.dwattr $C$DW$72, DW_AT_decl_file("../driverlib/sysctl.c")
	.dwattr $C$DW$72, DW_AT_decl_line(0x407)
	.dwattr $C$DW$72, DW_AT_decl_column(0x01)
	.dwattr $C$DW$72, DW_AT_TI_max_frame_size(0x10)
	.dwpsn	file "../driverlib/sysctl.c",line 1032,column 1,is_stmt,address SysCtlPeripheralSleepDisable,isa 1

	.dwfde $C$DW$CIE, SysCtlPeripheralSleepDisable
$C$DW$73	.dwtag  DW_TAG_formal_parameter
	.dwattr $C$DW$73, DW_AT_name("ui32Peripheral")
	.dwattr $C$DW$73, DW_AT_TI_symbol_name("ui32Peripheral")
	.dwattr $C$DW$73, DW_AT_type(*$C$DW$T$22)
	.dwattr $C$DW$73, DW_AT_location[DW_OP_reg0]


;*****************************************************************************
;* FUNCTION NAME: SysCtlPeripheralSleepDisable                               *
;*                                                                           *
;*   Regs Modified     : A1,A2,A3,A4,V1,SP,SR                                *
;*   Regs Used         : A1,A2,A3,A4,V1,SP,LR,SR                             *
;*   Local Frame Size  : 0 Args + 4 Auto + 8 Save = 12 byte                  *
;*****************************************************************************
SysCtlPeripheralSleepDisable:
;* --------------------------------------------------------------------------*
	.dwcfi	cfa_offset, 0
        PUSH      {A3, A4, V1, LR}      ; [DPU_V7M3_PIPE] 
	.dwcfi	cfa_offset, 16
	.dwcfi	save_reg_to_mem, 14, -4
	.dwcfi	save_reg_to_mem, 4, -8
	.dwcfi	save_reg_to_mem, 3, -12
	.dwcfi	save_reg_to_mem, 2, -16
$C$DW$74	.dwtag  DW_TAG_variable
	.dwattr $C$DW$74, DW_AT_name("ui32Peripheral")
	.dwattr $C$DW$74, DW_AT_TI_symbol_name("ui32Peripheral")
	.dwattr $C$DW$74, DW_AT_type(*$C$DW$T$22)
	.dwattr $C$DW$74, DW_AT_location[DW_OP_breg13 0]

        STR       A1, [SP, #0]          ; [DPU_V7M3_PIPE] |1032| 
	.dwpsn	file "../driverlib/sysctl.c",line 1041,column 5,is_stmt,isa 1
        LDR       A2, $C$CON17          ; [DPU_V7M3_PIPE] |1041| 
        LDR       A1, $C$CON17          ; [DPU_V7M3_PIPE] |1041| 
        LDR       V1, [SP, #0]          ; [DPU_V7M3_PIPE] |1041| 
        LDR       A4, [SP, #0]          ; [DPU_V7M3_PIPE] |1041| 
        LDR       A3, [SP, #0]          ; [DPU_V7M3_PIPE] |1041| 
        AND       V1, V1, #65280        ; [DPU_V7M3_PIPE] |1041| 
        AND       A4, A4, #65280        ; [DPU_V7M3_PIPE] |1041| 
        AND       A3, A3, #255          ; [DPU_V7M3_PIPE] |1041| 
        ADD       A2, A2, V1, LSR #8    ; [DPU_V7M3_PIPE] |1041| 
        ADD       A1, A1, A4, LSR #8    ; [DPU_V7M3_PIPE] |1041| 
        AND       A2, A2, #-268435456   ; [DPU_V7M3_PIPE] |1041| 
        BFC       A1, #20, #12          ; [DPU_V7M3_PIPE] |1041| 
        ORR       A2, A2, A1, LSL #5    ; [DPU_V7M3_PIPE] |1041| 
        ORR       A2, A2, A3, LSL #2    ; [DPU_V7M3_PIPE] |1041| 
        MOVS      A3, #0                ; [DPU_V7M3_PIPE] |1041| 
        ORR       A1, A2, #33554432     ; [DPU_V7M3_PIPE] |1041| 
        STR       A3, [A1, #0]          ; [DPU_V7M3_PIPE] |1041| 
	.dwpsn	file "../driverlib/sysctl.c",line 1043,column 1,is_stmt,isa 1
$C$DW$75	.dwtag  DW_TAG_TI_branch
	.dwattr $C$DW$75, DW_AT_low_pc(0x00)
	.dwattr $C$DW$75, DW_AT_TI_return

        POP       {A3, A4, V1, PC}      ; [DPU_V7M3_PIPE] 
	.dwcfi	cfa_offset, 0
	.dwcfi	restore_reg, 4
	.dwcfi	restore_reg, 3
	.dwcfi	restore_reg, 2
        ; BRANCH OCCURS                  ; [] 
	.dwattr $C$DW$72, DW_AT_TI_end_file("../driverlib/sysctl.c")
	.dwattr $C$DW$72, DW_AT_TI_end_line(0x413)
	.dwattr $C$DW$72, DW_AT_TI_end_column(0x01)
	.dwendentry
	.dwendtag $C$DW$72

	.sect	".text"
	.clink
	.thumbfunc SysCtlPeripheralDeepSleepEnable
	.thumb
	.global	SysCtlPeripheralDeepSleepEnable

$C$DW$76	.dwtag  DW_TAG_subprogram
	.dwattr $C$DW$76, DW_AT_name("SysCtlPeripheralDeepSleepEnable")
	.dwattr $C$DW$76, DW_AT_low_pc(SysCtlPeripheralDeepSleepEnable)
	.dwattr $C$DW$76, DW_AT_high_pc(0x00)
	.dwattr $C$DW$76, DW_AT_TI_symbol_name("SysCtlPeripheralDeepSleepEnable")
	.dwattr $C$DW$76, DW_AT_external
	.dwattr $C$DW$76, DW_AT_TI_begin_file("../driverlib/sysctl.c")
	.dwattr $C$DW$76, DW_AT_TI_begin_line(0x449)
	.dwattr $C$DW$76, DW_AT_TI_begin_column(0x01)
	.dwattr $C$DW$76, DW_AT_decl_file("../driverlib/sysctl.c")
	.dwattr $C$DW$76, DW_AT_decl_line(0x449)
	.dwattr $C$DW$76, DW_AT_decl_column(0x01)
	.dwattr $C$DW$76, DW_AT_TI_max_frame_size(0x10)
	.dwpsn	file "../driverlib/sysctl.c",line 1098,column 1,is_stmt,address SysCtlPeripheralDeepSleepEnable,isa 1

	.dwfde $C$DW$CIE, SysCtlPeripheralDeepSleepEnable
$C$DW$77	.dwtag  DW_TAG_formal_parameter
	.dwattr $C$DW$77, DW_AT_name("ui32Peripheral")
	.dwattr $C$DW$77, DW_AT_TI_symbol_name("ui32Peripheral")
	.dwattr $C$DW$77, DW_AT_type(*$C$DW$T$22)
	.dwattr $C$DW$77, DW_AT_location[DW_OP_reg0]


;*****************************************************************************
;* FUNCTION NAME: SysCtlPeripheralDeepSleepEnable                            *
;*                                                                           *
;*   Regs Modified     : A1,A2,A3,A4,V1,SP,SR                                *
;*   Regs Used         : A1,A2,A3,A4,V1,SP,LR,SR                             *
;*   Local Frame Size  : 0 Args + 4 Auto + 8 Save = 12 byte                  *
;*****************************************************************************
SysCtlPeripheralDeepSleepEnable:
;* --------------------------------------------------------------------------*
	.dwcfi	cfa_offset, 0
        PUSH      {A3, A4, V1, LR}      ; [DPU_V7M3_PIPE] 
	.dwcfi	cfa_offset, 16
	.dwcfi	save_reg_to_mem, 14, -4
	.dwcfi	save_reg_to_mem, 4, -8
	.dwcfi	save_reg_to_mem, 3, -12
	.dwcfi	save_reg_to_mem, 2, -16
$C$DW$78	.dwtag  DW_TAG_variable
	.dwattr $C$DW$78, DW_AT_name("ui32Peripheral")
	.dwattr $C$DW$78, DW_AT_TI_symbol_name("ui32Peripheral")
	.dwattr $C$DW$78, DW_AT_type(*$C$DW$T$22)
	.dwattr $C$DW$78, DW_AT_location[DW_OP_breg13 0]

        STR       A1, [SP, #0]          ; [DPU_V7M3_PIPE] |1098| 
	.dwpsn	file "../driverlib/sysctl.c",line 1107,column 5,is_stmt,isa 1
        LDR       A2, $C$CON18          ; [DPU_V7M3_PIPE] |1107| 
        LDR       A1, $C$CON18          ; [DPU_V7M3_PIPE] |1107| 
        LDR       V1, [SP, #0]          ; [DPU_V7M3_PIPE] |1107| 
        LDR       A4, [SP, #0]          ; [DPU_V7M3_PIPE] |1107| 
        LDR       A3, [SP, #0]          ; [DPU_V7M3_PIPE] |1107| 
        AND       V1, V1, #65280        ; [DPU_V7M3_PIPE] |1107| 
        AND       A4, A4, #65280        ; [DPU_V7M3_PIPE] |1107| 
        AND       A3, A3, #255          ; [DPU_V7M3_PIPE] |1107| 
        ADD       A2, A2, V1, LSR #8    ; [DPU_V7M3_PIPE] |1107| 
        ADD       A1, A1, A4, LSR #8    ; [DPU_V7M3_PIPE] |1107| 
        AND       A2, A2, #-268435456   ; [DPU_V7M3_PIPE] |1107| 
        BFC       A1, #20, #12          ; [DPU_V7M3_PIPE] |1107| 
        ORR       A2, A2, A1, LSL #5    ; [DPU_V7M3_PIPE] |1107| 
        ORR       A2, A2, A3, LSL #2    ; [DPU_V7M3_PIPE] |1107| 
        MOVS      A3, #1                ; [DPU_V7M3_PIPE] |1107| 
        ORR       A1, A2, #33554432     ; [DPU_V7M3_PIPE] |1107| 
        STR       A3, [A1, #0]          ; [DPU_V7M3_PIPE] |1107| 
	.dwpsn	file "../driverlib/sysctl.c",line 1109,column 1,is_stmt,isa 1
$C$DW$79	.dwtag  DW_TAG_TI_branch
	.dwattr $C$DW$79, DW_AT_low_pc(0x00)
	.dwattr $C$DW$79, DW_AT_TI_return

        POP       {A3, A4, V1, PC}      ; [DPU_V7M3_PIPE] 
	.dwcfi	cfa_offset, 0
	.dwcfi	restore_reg, 4
	.dwcfi	restore_reg, 3
	.dwcfi	restore_reg, 2
        ; BRANCH OCCURS                  ; [] 
	.dwattr $C$DW$76, DW_AT_TI_end_file("../driverlib/sysctl.c")
	.dwattr $C$DW$76, DW_AT_TI_end_line(0x455)
	.dwattr $C$DW$76, DW_AT_TI_end_column(0x01)
	.dwendentry
	.dwendtag $C$DW$76

;******************************************************************************
;* CONSTANT TABLE                                                             *
;******************************************************************************
	.sect	".text"
	.align	4
||$C$CON5||:	.bits		0x400fdfc4,32

	.align	4
||$C$CON6||:	.bits		0x70ff0000,32

	.align	4
||$C$CON7||:	.bits		0x400fe000,32

	.align	4
||$C$CON8||:	.bits		0x10050000,32

	.align	4
||$C$CON9||:	.bits		0x400fe008,32

	.sect	".text"
	.clink
	.thumbfunc SysCtlPeripheralDeepSleepDisable
	.thumb
	.global	SysCtlPeripheralDeepSleepDisable

$C$DW$80	.dwtag  DW_TAG_subprogram
	.dwattr $C$DW$80, DW_AT_name("SysCtlPeripheralDeepSleepDisable")
	.dwattr $C$DW$80, DW_AT_low_pc(SysCtlPeripheralDeepSleepDisable)
	.dwattr $C$DW$80, DW_AT_high_pc(0x00)
	.dwattr $C$DW$80, DW_AT_TI_symbol_name("SysCtlPeripheralDeepSleepDisable")
	.dwattr $C$DW$80, DW_AT_external
	.dwattr $C$DW$80, DW_AT_TI_begin_file("../driverlib/sysctl.c")
	.dwattr $C$DW$80, DW_AT_TI_begin_line(0x48d)
	.dwattr $C$DW$80, DW_AT_TI_begin_column(0x01)
	.dwattr $C$DW$80, DW_AT_decl_file("../driverlib/sysctl.c")
	.dwattr $C$DW$80, DW_AT_decl_line(0x48d)
	.dwattr $C$DW$80, DW_AT_decl_column(0x01)
	.dwattr $C$DW$80, DW_AT_TI_max_frame_size(0x10)
	.dwpsn	file "../driverlib/sysctl.c",line 1166,column 1,is_stmt,address SysCtlPeripheralDeepSleepDisable,isa 1

	.dwfde $C$DW$CIE, SysCtlPeripheralDeepSleepDisable
$C$DW$81	.dwtag  DW_TAG_formal_parameter
	.dwattr $C$DW$81, DW_AT_name("ui32Peripheral")
	.dwattr $C$DW$81, DW_AT_TI_symbol_name("ui32Peripheral")
	.dwattr $C$DW$81, DW_AT_type(*$C$DW$T$22)
	.dwattr $C$DW$81, DW_AT_location[DW_OP_reg0]


;*****************************************************************************
;* FUNCTION NAME: SysCtlPeripheralDeepSleepDisable                           *
;*                                                                           *
;*   Regs Modified     : A1,A2,A3,A4,V1,SP,SR                                *
;*   Regs Used         : A1,A2,A3,A4,V1,SP,LR,SR                             *
;*   Local Frame Size  : 0 Args + 4 Auto + 8 Save = 12 byte                  *
;*****************************************************************************
SysCtlPeripheralDeepSleepDisable:
;* --------------------------------------------------------------------------*
	.dwcfi	cfa_offset, 0
        PUSH      {A3, A4, V1, LR}      ; [DPU_V7M3_PIPE] 
	.dwcfi	cfa_offset, 16
	.dwcfi	save_reg_to_mem, 14, -4
	.dwcfi	save_reg_to_mem, 4, -8
	.dwcfi	save_reg_to_mem, 3, -12
	.dwcfi	save_reg_to_mem, 2, -16
$C$DW$82	.dwtag  DW_TAG_variable
	.dwattr $C$DW$82, DW_AT_name("ui32Peripheral")
	.dwattr $C$DW$82, DW_AT_TI_symbol_name("ui32Peripheral")
	.dwattr $C$DW$82, DW_AT_type(*$C$DW$T$22)
	.dwattr $C$DW$82, DW_AT_location[DW_OP_breg13 0]

        STR       A1, [SP, #0]          ; [DPU_V7M3_PIPE] |1166| 
	.dwpsn	file "../driverlib/sysctl.c",line 1175,column 5,is_stmt,isa 1
        LDR       A2, $C$CON18          ; [DPU_V7M3_PIPE] |1175| 
        LDR       A1, $C$CON18          ; [DPU_V7M3_PIPE] |1175| 
        LDR       V1, [SP, #0]          ; [DPU_V7M3_PIPE] |1175| 
        LDR       A4, [SP, #0]          ; [DPU_V7M3_PIPE] |1175| 
        LDR       A3, [SP, #0]          ; [DPU_V7M3_PIPE] |1175| 
        AND       V1, V1, #65280        ; [DPU_V7M3_PIPE] |1175| 
        AND       A4, A4, #65280        ; [DPU_V7M3_PIPE] |1175| 
        AND       A3, A3, #255          ; [DPU_V7M3_PIPE] |1175| 
        ADD       A2, A2, V1, LSR #8    ; [DPU_V7M3_PIPE] |1175| 
        ADD       A1, A1, A4, LSR #8    ; [DPU_V7M3_PIPE] |1175| 
        AND       A2, A2, #-268435456   ; [DPU_V7M3_PIPE] |1175| 
        BFC       A1, #20, #12          ; [DPU_V7M3_PIPE] |1175| 
        ORR       A2, A2, A1, LSL #5    ; [DPU_V7M3_PIPE] |1175| 
        ORR       A2, A2, A3, LSL #2    ; [DPU_V7M3_PIPE] |1175| 
        MOVS      A3, #0                ; [DPU_V7M3_PIPE] |1175| 
        ORR       A1, A2, #33554432     ; [DPU_V7M3_PIPE] |1175| 
        STR       A3, [A1, #0]          ; [DPU_V7M3_PIPE] |1175| 
	.dwpsn	file "../driverlib/sysctl.c",line 1177,column 1,is_stmt,isa 1
$C$DW$83	.dwtag  DW_TAG_TI_branch
	.dwattr $C$DW$83, DW_AT_low_pc(0x00)
	.dwattr $C$DW$83, DW_AT_TI_return

        POP       {A3, A4, V1, PC}      ; [DPU_V7M3_PIPE] 
	.dwcfi	cfa_offset, 0
	.dwcfi	restore_reg, 4
	.dwcfi	restore_reg, 3
	.dwcfi	restore_reg, 2
        ; BRANCH OCCURS                  ; [] 
	.dwattr $C$DW$80, DW_AT_TI_end_file("../driverlib/sysctl.c")
	.dwattr $C$DW$80, DW_AT_TI_end_line(0x499)
	.dwattr $C$DW$80, DW_AT_TI_end_column(0x01)
	.dwendentry
	.dwendtag $C$DW$80

;******************************************************************************
;* CONSTANT TABLE                                                             *
;******************************************************************************
	.sect	".text"
	.align	4
||$C$CON10||:	.bits		0x400fdfc0,32

	.align	4
||$C$CON11||:	.bits		0x100a0000,32

	.align	4
||$C$CON12||:	.bits		0x400fe300,32

	.sect	".text"
	.clink
	.thumbfunc SysCtlPeripheralClockGating
	.thumb
	.global	SysCtlPeripheralClockGating

$C$DW$84	.dwtag  DW_TAG_subprogram
	.dwattr $C$DW$84, DW_AT_name("SysCtlPeripheralClockGating")
	.dwattr $C$DW$84, DW_AT_low_pc(SysCtlPeripheralClockGating)
	.dwattr $C$DW$84, DW_AT_high_pc(0x00)
	.dwattr $C$DW$84, DW_AT_TI_symbol_name("SysCtlPeripheralClockGating")
	.dwattr $C$DW$84, DW_AT_external
	.dwattr $C$DW$84, DW_AT_TI_begin_file("../driverlib/sysctl.c")
	.dwattr $C$DW$84, DW_AT_TI_begin_line(0x4ad)
	.dwattr $C$DW$84, DW_AT_TI_begin_column(0x01)
	.dwattr $C$DW$84, DW_AT_decl_file("../driverlib/sysctl.c")
	.dwattr $C$DW$84, DW_AT_decl_line(0x4ad)
	.dwattr $C$DW$84, DW_AT_decl_column(0x01)
	.dwattr $C$DW$84, DW_AT_TI_max_frame_size(0x08)
	.dwpsn	file "../driverlib/sysctl.c",line 1198,column 1,is_stmt,address SysCtlPeripheralClockGating,isa 1

	.dwfde $C$DW$CIE, SysCtlPeripheralClockGating
$C$DW$85	.dwtag  DW_TAG_formal_parameter
	.dwattr $C$DW$85, DW_AT_name("bEnable")
	.dwattr $C$DW$85, DW_AT_TI_symbol_name("bEnable")
	.dwattr $C$DW$85, DW_AT_type(*$C$DW$T$10)
	.dwattr $C$DW$85, DW_AT_location[DW_OP_reg0]


;*****************************************************************************
;* FUNCTION NAME: SysCtlPeripheralClockGating                                *
;*                                                                           *
;*   Regs Modified     : A1,A2,A3,SP,SR                                      *
;*   Regs Used         : A1,A2,A3,SP,LR,SR                                   *
;*   Local Frame Size  : 0 Args + 4 Auto + 0 Save = 4 byte                   *
;*****************************************************************************
SysCtlPeripheralClockGating:
;* --------------------------------------------------------------------------*
	.dwcfi	cfa_offset, 0
        SUB       SP, SP, #8            ; [DPU_V7M3_PIPE] 
	.dwcfi	cfa_offset, 8
$C$DW$86	.dwtag  DW_TAG_variable
	.dwattr $C$DW$86, DW_AT_name("bEnable")
	.dwattr $C$DW$86, DW_AT_TI_symbol_name("bEnable")
	.dwattr $C$DW$86, DW_AT_type(*$C$DW$T$36)
	.dwattr $C$DW$86, DW_AT_location[DW_OP_breg13 0]

        STRB      A1, [SP, #0]          ; [DPU_V7M3_PIPE] |1198| 
	.dwpsn	file "../driverlib/sysctl.c",line 1199,column 5,is_stmt,isa 1
        LDR       A2, $C$CON21          ; [DPU_V7M3_PIPE] |1199| 
        LDR       A1, $C$CON22          ; [DPU_V7M3_PIPE] |1199| 
        LDR       A3, [A2, #0]          ; [DPU_V7M3_PIPE] |1199| 
        LDR       A2, $C$CON23          ; [DPU_V7M3_PIPE] |1199| 
        ANDS      A1, A1, A3            ; [DPU_V7M3_PIPE] |1199| 
        CMP       A2, A1                ; [DPU_V7M3_PIPE] |1199| 
        BNE       ||$C$L14||            ; [DPU_V7M3_PIPE] |1199| 
        ; BRANCHCC OCCURS {||$C$L14||}   ; [] |1199| 
;* --------------------------------------------------------------------------*
	.dwpsn	file "../driverlib/sysctl.c",line 1204,column 9,is_stmt,isa 1
        LDRB      A1, [SP, #0]          ; [DPU_V7M3_PIPE] |1204| 
        CBZ       A1, ||$C$L13||        ; [] 
        ; BRANCHCC OCCURS {||$C$L13||}   ; [] |1204| 
;* --------------------------------------------------------------------------*
	.dwpsn	file "../driverlib/sysctl.c",line 1206,column 13,is_stmt,isa 1
        LDR       A2, $C$CON19          ; [DPU_V7M3_PIPE] |1206| 
        LDR       A1, [A2, #0]          ; [DPU_V7M3_PIPE] |1206| 
        ORR       A1, A1, #134217728    ; [DPU_V7M3_PIPE] |1206| 
        STR       A1, [A2, #0]          ; [DPU_V7M3_PIPE] |1206| 
	.dwpsn	file "../driverlib/sysctl.c",line 1207,column 9,is_stmt,isa 1
        B         ||$C$L16||            ; [DPU_V7M3_PIPE] |1207| 
        ; BRANCH OCCURS {||$C$L16||}     ; [] |1207| 
;* --------------------------------------------------------------------------*
||$C$L13||:    
	.dwpsn	file "../driverlib/sysctl.c",line 1210,column 13,is_stmt,isa 1
        LDR       A2, $C$CON19          ; [DPU_V7M3_PIPE] |1210| 
        LDR       A1, [A2, #0]          ; [DPU_V7M3_PIPE] |1210| 
        BIC       A1, A1, #134217728    ; [DPU_V7M3_PIPE] |1210| 
        STR       A1, [A2, #0]          ; [DPU_V7M3_PIPE] |1210| 
	.dwpsn	file "../driverlib/sysctl.c",line 1212,column 5,is_stmt,isa 1
        B         ||$C$L16||            ; [DPU_V7M3_PIPE] |1212| 
        ; BRANCH OCCURS {||$C$L16||}     ; [] |1212| 
;* --------------------------------------------------------------------------*
||$C$L14||:    
	.dwpsn	file "../driverlib/sysctl.c",line 1218,column 9,is_stmt,isa 1
        LDRB      A1, [SP, #0]          ; [DPU_V7M3_PIPE] |1218| 
        CBZ       A1, ||$C$L15||        ; [] 
        ; BRANCHCC OCCURS {||$C$L15||}   ; [] |1218| 
;* --------------------------------------------------------------------------*
	.dwpsn	file "../driverlib/sysctl.c",line 1220,column 13,is_stmt,isa 1
        LDR       A2, $C$CON20          ; [DPU_V7M3_PIPE] |1220| 
        LDR       A1, [A2, #0]          ; [DPU_V7M3_PIPE] |1220| 
        ORR       A1, A1, #536870912    ; [DPU_V7M3_PIPE] |1220| 
        STR       A1, [A2, #0]          ; [DPU_V7M3_PIPE] |1220| 
	.dwpsn	file "../driverlib/sysctl.c",line 1221,column 9,is_stmt,isa 1
        B         ||$C$L16||            ; [DPU_V7M3_PIPE] |1221| 
        ; BRANCH OCCURS {||$C$L16||}     ; [] |1221| 
;* --------------------------------------------------------------------------*
||$C$L15||:    
	.dwpsn	file "../driverlib/sysctl.c",line 1224,column 13,is_stmt,isa 1
        LDR       A2, $C$CON20          ; [DPU_V7M3_PIPE] |1224| 
        LDR       A1, [A2, #0]          ; [DPU_V7M3_PIPE] |1224| 
        BIC       A1, A1, #536870912    ; [DPU_V7M3_PIPE] |1224| 
        STR       A1, [A2, #0]          ; [DPU_V7M3_PIPE] |1224| 
	.dwpsn	file "../driverlib/sysctl.c",line 1227,column 1,is_stmt,isa 1
;* --------------------------------------------------------------------------*
||$C$L16||:    
        ADD       SP, SP, #8            ; [DPU_V7M3_PIPE] 
	.dwcfi	cfa_offset, 0
$C$DW$87	.dwtag  DW_TAG_TI_branch
	.dwattr $C$DW$87, DW_AT_low_pc(0x00)
	.dwattr $C$DW$87, DW_AT_TI_return

        BX        LR                    ; [DPU_V7M3_PIPE] 
        ; BRANCH OCCURS                  ; [] 
	.dwattr $C$DW$84, DW_AT_TI_end_file("../driverlib/sysctl.c")
	.dwattr $C$DW$84, DW_AT_TI_end_line(0x4cb)
	.dwattr $C$DW$84, DW_AT_TI_end_column(0x01)
	.dwendentry
	.dwendtag $C$DW$84

	.sect	".text"
	.clink
	.thumbfunc SysCtlIntRegister
	.thumb
	.global	SysCtlIntRegister

$C$DW$88	.dwtag  DW_TAG_subprogram
	.dwattr $C$DW$88, DW_AT_name("SysCtlIntRegister")
	.dwattr $C$DW$88, DW_AT_low_pc(SysCtlIntRegister)
	.dwattr $C$DW$88, DW_AT_high_pc(0x00)
	.dwattr $C$DW$88, DW_AT_TI_symbol_name("SysCtlIntRegister")
	.dwattr $C$DW$88, DW_AT_external
	.dwattr $C$DW$88, DW_AT_TI_begin_file("../driverlib/sysctl.c")
	.dwattr $C$DW$88, DW_AT_TI_begin_line(0x4ea)
	.dwattr $C$DW$88, DW_AT_TI_begin_column(0x01)
	.dwattr $C$DW$88, DW_AT_decl_file("../driverlib/sysctl.c")
	.dwattr $C$DW$88, DW_AT_decl_line(0x4ea)
	.dwattr $C$DW$88, DW_AT_decl_column(0x01)
	.dwattr $C$DW$88, DW_AT_TI_max_frame_size(0x08)
	.dwpsn	file "../driverlib/sysctl.c",line 1259,column 1,is_stmt,address SysCtlIntRegister,isa 1

	.dwfde $C$DW$CIE, SysCtlIntRegister
$C$DW$89	.dwtag  DW_TAG_formal_parameter
	.dwattr $C$DW$89, DW_AT_name("pfnHandler")
	.dwattr $C$DW$89, DW_AT_TI_symbol_name("pfnHandler")
	.dwattr $C$DW$89, DW_AT_type(*$C$DW$T$31)
	.dwattr $C$DW$89, DW_AT_location[DW_OP_reg0]


;*****************************************************************************
;* FUNCTION NAME: SysCtlIntRegister                                          *
;*                                                                           *
;*   Regs Modified     : A1,A2,A3,A4,V9,SP,LR,SR,D0,D0_hi,D1,D1_hi,D2,D2_hi, *
;*                           D3,D3_hi,D4,D4_hi,D5,D5_hi,D6,D6_hi,D7,D7_hi,   *
;*                           FPEXC,FPSCR                                     *
;*   Regs Used         : A1,A2,A3,A4,V9,SP,LR,SR,D0,D0_hi,D1,D1_hi,D2,D2_hi, *
;*                           D3,D3_hi,D4,D4_hi,D5,D5_hi,D6,D6_hi,D7,D7_hi,   *
;*                           FPEXC,FPSCR                                     *
;*   Local Frame Size  : 0 Args + 4 Auto + 4 Save = 8 byte                   *
;*****************************************************************************
SysCtlIntRegister:
;* --------------------------------------------------------------------------*
	.dwcfi	cfa_offset, 0
        PUSH      {A4, LR}              ; [DPU_V7M3_PIPE] 
	.dwcfi	cfa_offset, 8
	.dwcfi	save_reg_to_mem, 14, -4
	.dwcfi	save_reg_to_mem, 3, -8
$C$DW$90	.dwtag  DW_TAG_variable
	.dwattr $C$DW$90, DW_AT_name("pfnHandler")
	.dwattr $C$DW$90, DW_AT_TI_symbol_name("pfnHandler")
	.dwattr $C$DW$90, DW_AT_type(*$C$DW$T$31)
	.dwattr $C$DW$90, DW_AT_location[DW_OP_breg13 0]

        STR       A1, [SP, #0]          ; [DPU_V7M3_PIPE] |1259| 
	.dwpsn	file "../driverlib/sysctl.c",line 1263,column 5,is_stmt,isa 1
        LDR       A2, [SP, #0]          ; [DPU_V7M3_PIPE] |1263| 
        MOVS      A1, #44               ; [DPU_V7M3_PIPE] |1263| 
$C$DW$91	.dwtag  DW_TAG_TI_branch
	.dwattr $C$DW$91, DW_AT_low_pc(0x00)
	.dwattr $C$DW$91, DW_AT_name("IntRegister")
	.dwattr $C$DW$91, DW_AT_TI_call

        BL        IntRegister           ; [DPU_V7M3_PIPE] |1263| 
        ; CALL OCCURS {IntRegister }     ; [] |1263| 
	.dwpsn	file "../driverlib/sysctl.c",line 1268,column 5,is_stmt,isa 1
        MOVS      A1, #44               ; [DPU_V7M3_PIPE] |1268| 
$C$DW$92	.dwtag  DW_TAG_TI_branch
	.dwattr $C$DW$92, DW_AT_low_pc(0x00)
	.dwattr $C$DW$92, DW_AT_name("IntEnable")
	.dwattr $C$DW$92, DW_AT_TI_call

        BL        IntEnable             ; [DPU_V7M3_PIPE] |1268| 
        ; CALL OCCURS {IntEnable }       ; [] |1268| 
	.dwpsn	file "../driverlib/sysctl.c",line 1269,column 1,is_stmt,isa 1
$C$DW$93	.dwtag  DW_TAG_TI_branch
	.dwattr $C$DW$93, DW_AT_low_pc(0x00)
	.dwattr $C$DW$93, DW_AT_TI_return

        POP       {A4, PC}              ; [DPU_V7M3_PIPE] 
	.dwcfi	cfa_offset, 0
	.dwcfi	restore_reg, 3
        ; BRANCH OCCURS                  ; [] 
	.dwattr $C$DW$88, DW_AT_TI_end_file("../driverlib/sysctl.c")
	.dwattr $C$DW$88, DW_AT_TI_end_line(0x4f5)
	.dwattr $C$DW$88, DW_AT_TI_end_column(0x01)
	.dwendentry
	.dwendtag $C$DW$88

;******************************************************************************
;* CONSTANT TABLE                                                             *
;******************************************************************************
	.sect	".text"
	.align	4
||$C$CON13||:	.bits		0x400fea00,32

	.sect	".text"
	.clink
	.thumbfunc SysCtlIntUnregister
	.thumb
	.global	SysCtlIntUnregister

$C$DW$94	.dwtag  DW_TAG_subprogram
	.dwattr $C$DW$94, DW_AT_name("SysCtlIntUnregister")
	.dwattr $C$DW$94, DW_AT_low_pc(SysCtlIntUnregister)
	.dwattr $C$DW$94, DW_AT_high_pc(0x00)
	.dwattr $C$DW$94, DW_AT_TI_symbol_name("SysCtlIntUnregister")
	.dwattr $C$DW$94, DW_AT_external
	.dwattr $C$DW$94, DW_AT_TI_begin_file("../driverlib/sysctl.c")
	.dwattr $C$DW$94, DW_AT_TI_begin_line(0x506)
	.dwattr $C$DW$94, DW_AT_TI_begin_column(0x01)
	.dwattr $C$DW$94, DW_AT_decl_file("../driverlib/sysctl.c")
	.dwattr $C$DW$94, DW_AT_decl_line(0x506)
	.dwattr $C$DW$94, DW_AT_decl_column(0x01)
	.dwattr $C$DW$94, DW_AT_TI_max_frame_size(0x08)
	.dwpsn	file "../driverlib/sysctl.c",line 1287,column 1,is_stmt,address SysCtlIntUnregister,isa 1

	.dwfde $C$DW$CIE, SysCtlIntUnregister

;*****************************************************************************
;* FUNCTION NAME: SysCtlIntUnregister                                        *
;*                                                                           *
;*   Regs Modified     : A1,A2,A3,A4,V9,SP,LR,SR,D0,D0_hi,D1,D1_hi,D2,D2_hi, *
;*                           D3,D3_hi,D4,D4_hi,D5,D5_hi,D6,D6_hi,D7,D7_hi,   *
;*                           FPEXC,FPSCR                                     *
;*   Regs Used         : A1,A2,A3,A4,V9,SP,LR,SR,D0,D0_hi,D1,D1_hi,D2,D2_hi, *
;*                           D3,D3_hi,D4,D4_hi,D5,D5_hi,D6,D6_hi,D7,D7_hi,   *
;*                           FPEXC,FPSCR                                     *
;*   Local Frame Size  : 0 Args + 0 Auto + 4 Save = 4 byte                   *
;*****************************************************************************
SysCtlIntUnregister:
;* --------------------------------------------------------------------------*
	.dwcfi	cfa_offset, 0
        PUSH      {A4, LR}              ; [DPU_V7M3_PIPE] 
	.dwcfi	cfa_offset, 8
	.dwcfi	save_reg_to_mem, 14, -4
	.dwcfi	save_reg_to_mem, 3, -8
	.dwpsn	file "../driverlib/sysctl.c",line 1291,column 5,is_stmt,isa 1
        MOVS      A1, #44               ; [DPU_V7M3_PIPE] |1291| 
$C$DW$95	.dwtag  DW_TAG_TI_branch
	.dwattr $C$DW$95, DW_AT_low_pc(0x00)
	.dwattr $C$DW$95, DW_AT_name("IntDisable")
	.dwattr $C$DW$95, DW_AT_TI_call

        BL        IntDisable            ; [DPU_V7M3_PIPE] |1291| 
        ; CALL OCCURS {IntDisable }      ; [] |1291| 
	.dwpsn	file "../driverlib/sysctl.c",line 1296,column 5,is_stmt,isa 1
        MOVS      A1, #44               ; [DPU_V7M3_PIPE] |1296| 
$C$DW$96	.dwtag  DW_TAG_TI_branch
	.dwattr $C$DW$96, DW_AT_low_pc(0x00)
	.dwattr $C$DW$96, DW_AT_name("IntUnregister")
	.dwattr $C$DW$96, DW_AT_TI_call

        BL        IntUnregister         ; [DPU_V7M3_PIPE] |1296| 
        ; CALL OCCURS {IntUnregister }   ; [] |1296| 
	.dwpsn	file "../driverlib/sysctl.c",line 1297,column 1,is_stmt,isa 1
$C$DW$97	.dwtag  DW_TAG_TI_branch
	.dwattr $C$DW$97, DW_AT_low_pc(0x00)
	.dwattr $C$DW$97, DW_AT_TI_return

        POP       {A4, PC}              ; [DPU_V7M3_PIPE] 
	.dwcfi	cfa_offset, 0
	.dwcfi	restore_reg, 3
        ; BRANCH OCCURS                  ; [] 
	.dwattr $C$DW$94, DW_AT_TI_end_file("../driverlib/sysctl.c")
	.dwattr $C$DW$94, DW_AT_TI_end_line(0x511)
	.dwattr $C$DW$94, DW_AT_TI_end_column(0x01)
	.dwendentry
	.dwendtag $C$DW$94

	.sect	".text"
	.clink
	.thumbfunc SysCtlIntEnable
	.thumb
	.global	SysCtlIntEnable

$C$DW$98	.dwtag  DW_TAG_subprogram
	.dwattr $C$DW$98, DW_AT_name("SysCtlIntEnable")
	.dwattr $C$DW$98, DW_AT_low_pc(SysCtlIntEnable)
	.dwattr $C$DW$98, DW_AT_high_pc(0x00)
	.dwattr $C$DW$98, DW_AT_TI_symbol_name("SysCtlIntEnable")
	.dwattr $C$DW$98, DW_AT_external
	.dwattr $C$DW$98, DW_AT_TI_begin_file("../driverlib/sysctl.c")
	.dwattr $C$DW$98, DW_AT_TI_begin_line(0x529)
	.dwattr $C$DW$98, DW_AT_TI_begin_column(0x01)
	.dwattr $C$DW$98, DW_AT_decl_file("../driverlib/sysctl.c")
	.dwattr $C$DW$98, DW_AT_decl_line(0x529)
	.dwattr $C$DW$98, DW_AT_decl_column(0x01)
	.dwattr $C$DW$98, DW_AT_TI_max_frame_size(0x08)
	.dwpsn	file "../driverlib/sysctl.c",line 1322,column 1,is_stmt,address SysCtlIntEnable,isa 1

	.dwfde $C$DW$CIE, SysCtlIntEnable
$C$DW$99	.dwtag  DW_TAG_formal_parameter
	.dwattr $C$DW$99, DW_AT_name("ui32Ints")
	.dwattr $C$DW$99, DW_AT_TI_symbol_name("ui32Ints")
	.dwattr $C$DW$99, DW_AT_type(*$C$DW$T$22)
	.dwattr $C$DW$99, DW_AT_location[DW_OP_reg0]


;*****************************************************************************
;* FUNCTION NAME: SysCtlIntEnable                                            *
;*                                                                           *
;*   Regs Modified     : A1,A2,A3,SP,SR                                      *
;*   Regs Used         : A1,A2,A3,SP,LR,SR                                   *
;*   Local Frame Size  : 0 Args + 4 Auto + 0 Save = 4 byte                   *
;*****************************************************************************
SysCtlIntEnable:
;* --------------------------------------------------------------------------*
	.dwcfi	cfa_offset, 0
        SUB       SP, SP, #8            ; [DPU_V7M3_PIPE] 
	.dwcfi	cfa_offset, 8
$C$DW$100	.dwtag  DW_TAG_variable
	.dwattr $C$DW$100, DW_AT_name("ui32Ints")
	.dwattr $C$DW$100, DW_AT_TI_symbol_name("ui32Ints")
	.dwattr $C$DW$100, DW_AT_type(*$C$DW$T$22)
	.dwattr $C$DW$100, DW_AT_location[DW_OP_breg13 0]

        STR       A1, [SP, #0]          ; [DPU_V7M3_PIPE] |1322| 
	.dwpsn	file "../driverlib/sysctl.c",line 1326,column 5,is_stmt,isa 1
        LDR       A2, $C$CON24          ; [DPU_V7M3_PIPE] |1326| 
        LDR       A1, [SP, #0]          ; [DPU_V7M3_PIPE] |1326| 
        LDR       A3, [A2, #0]          ; [DPU_V7M3_PIPE] |1326| 
        ORRS      A1, A1, A3            ; [DPU_V7M3_PIPE] |1326| 
        STR       A1, [A2, #0]          ; [DPU_V7M3_PIPE] |1326| 
	.dwpsn	file "../driverlib/sysctl.c",line 1327,column 1,is_stmt,isa 1
        ADD       SP, SP, #8            ; [DPU_V7M3_PIPE] 
	.dwcfi	cfa_offset, 0
$C$DW$101	.dwtag  DW_TAG_TI_branch
	.dwattr $C$DW$101, DW_AT_low_pc(0x00)
	.dwattr $C$DW$101, DW_AT_TI_return

        BX        LR                    ; [DPU_V7M3_PIPE] 
        ; BRANCH OCCURS                  ; [] 
	.dwattr $C$DW$98, DW_AT_TI_end_file("../driverlib/sysctl.c")
	.dwattr $C$DW$98, DW_AT_TI_end_line(0x52f)
	.dwattr $C$DW$98, DW_AT_TI_end_column(0x01)
	.dwendentry
	.dwendtag $C$DW$98

	.sect	".text"
	.clink
	.thumbfunc SysCtlIntDisable
	.thumb
	.global	SysCtlIntDisable

$C$DW$102	.dwtag  DW_TAG_subprogram
	.dwattr $C$DW$102, DW_AT_name("SysCtlIntDisable")
	.dwattr $C$DW$102, DW_AT_low_pc(SysCtlIntDisable)
	.dwattr $C$DW$102, DW_AT_high_pc(0x00)
	.dwattr $C$DW$102, DW_AT_TI_symbol_name("SysCtlIntDisable")
	.dwattr $C$DW$102, DW_AT_external
	.dwattr $C$DW$102, DW_AT_TI_begin_file("../driverlib/sysctl.c")
	.dwattr $C$DW$102, DW_AT_TI_begin_line(0x547)
	.dwattr $C$DW$102, DW_AT_TI_begin_column(0x01)
	.dwattr $C$DW$102, DW_AT_decl_file("../driverlib/sysctl.c")
	.dwattr $C$DW$102, DW_AT_decl_line(0x547)
	.dwattr $C$DW$102, DW_AT_decl_column(0x01)
	.dwattr $C$DW$102, DW_AT_TI_max_frame_size(0x08)
	.dwpsn	file "../driverlib/sysctl.c",line 1352,column 1,is_stmt,address SysCtlIntDisable,isa 1

	.dwfde $C$DW$CIE, SysCtlIntDisable
$C$DW$103	.dwtag  DW_TAG_formal_parameter
	.dwattr $C$DW$103, DW_AT_name("ui32Ints")
	.dwattr $C$DW$103, DW_AT_TI_symbol_name("ui32Ints")
	.dwattr $C$DW$103, DW_AT_type(*$C$DW$T$22)
	.dwattr $C$DW$103, DW_AT_location[DW_OP_reg0]


;*****************************************************************************
;* FUNCTION NAME: SysCtlIntDisable                                           *
;*                                                                           *
;*   Regs Modified     : A1,A2,A3,SP,SR                                      *
;*   Regs Used         : A1,A2,A3,SP,LR,SR                                   *
;*   Local Frame Size  : 0 Args + 4 Auto + 0 Save = 4 byte                   *
;*****************************************************************************
SysCtlIntDisable:
;* --------------------------------------------------------------------------*
	.dwcfi	cfa_offset, 0
        SUB       SP, SP, #8            ; [DPU_V7M3_PIPE] 
	.dwcfi	cfa_offset, 8
$C$DW$104	.dwtag  DW_TAG_variable
	.dwattr $C$DW$104, DW_AT_name("ui32Ints")
	.dwattr $C$DW$104, DW_AT_TI_symbol_name("ui32Ints")
	.dwattr $C$DW$104, DW_AT_type(*$C$DW$T$22)
	.dwattr $C$DW$104, DW_AT_location[DW_OP_breg13 0]

        STR       A1, [SP, #0]          ; [DPU_V7M3_PIPE] |1352| 
	.dwpsn	file "../driverlib/sysctl.c",line 1356,column 5,is_stmt,isa 1
        LDR       A2, $C$CON24          ; [DPU_V7M3_PIPE] |1356| 
        LDR       A3, [SP, #0]          ; [DPU_V7M3_PIPE] |1356| 
        LDR       A1, [A2, #0]          ; [DPU_V7M3_PIPE] |1356| 
        BICS      A1, A1, A3            ; [DPU_V7M3_PIPE] |1356| 
        STR       A1, [A2, #0]          ; [DPU_V7M3_PIPE] |1356| 
	.dwpsn	file "../driverlib/sysctl.c",line 1357,column 1,is_stmt,isa 1
        ADD       SP, SP, #8            ; [DPU_V7M3_PIPE] 
	.dwcfi	cfa_offset, 0
$C$DW$105	.dwtag  DW_TAG_TI_branch
	.dwattr $C$DW$105, DW_AT_low_pc(0x00)
	.dwattr $C$DW$105, DW_AT_TI_return

        BX        LR                    ; [DPU_V7M3_PIPE] 
        ; BRANCH OCCURS                  ; [] 
	.dwattr $C$DW$102, DW_AT_TI_end_file("../driverlib/sysctl.c")
	.dwattr $C$DW$102, DW_AT_TI_end_line(0x54d)
	.dwattr $C$DW$102, DW_AT_TI_end_column(0x01)
	.dwendentry
	.dwendtag $C$DW$102

;******************************************************************************
;* CONSTANT TABLE                                                             *
;******************************************************************************
	.sect	".text"
	.align	4
||$C$CON14||:	.bits		0x400fe900,32

	.sect	".text"
	.clink
	.thumbfunc SysCtlIntClear
	.thumb
	.global	SysCtlIntClear

$C$DW$106	.dwtag  DW_TAG_subprogram
	.dwattr $C$DW$106, DW_AT_name("SysCtlIntClear")
	.dwattr $C$DW$106, DW_AT_low_pc(SysCtlIntClear)
	.dwattr $C$DW$106, DW_AT_high_pc(0x00)
	.dwattr $C$DW$106, DW_AT_TI_symbol_name("SysCtlIntClear")
	.dwattr $C$DW$106, DW_AT_external
	.dwattr $C$DW$106, DW_AT_TI_begin_file("../driverlib/sysctl.c")
	.dwattr $C$DW$106, DW_AT_TI_begin_line(0x56e)
	.dwattr $C$DW$106, DW_AT_TI_begin_column(0x01)
	.dwattr $C$DW$106, DW_AT_decl_file("../driverlib/sysctl.c")
	.dwattr $C$DW$106, DW_AT_decl_line(0x56e)
	.dwattr $C$DW$106, DW_AT_decl_column(0x01)
	.dwattr $C$DW$106, DW_AT_TI_max_frame_size(0x08)
	.dwpsn	file "../driverlib/sysctl.c",line 1391,column 1,is_stmt,address SysCtlIntClear,isa 1

	.dwfde $C$DW$CIE, SysCtlIntClear
$C$DW$107	.dwtag  DW_TAG_formal_parameter
	.dwattr $C$DW$107, DW_AT_name("ui32Ints")
	.dwattr $C$DW$107, DW_AT_TI_symbol_name("ui32Ints")
	.dwattr $C$DW$107, DW_AT_type(*$C$DW$T$22)
	.dwattr $C$DW$107, DW_AT_location[DW_OP_reg0]


;*****************************************************************************
;* FUNCTION NAME: SysCtlIntClear                                             *
;*                                                                           *
;*   Regs Modified     : A1,A2,SP                                            *
;*   Regs Used         : A1,A2,SP,LR                                         *
;*   Local Frame Size  : 0 Args + 4 Auto + 0 Save = 4 byte                   *
;*****************************************************************************
SysCtlIntClear:
;* --------------------------------------------------------------------------*
	.dwcfi	cfa_offset, 0
        SUB       SP, SP, #8            ; [DPU_V7M3_PIPE] 
	.dwcfi	cfa_offset, 8
$C$DW$108	.dwtag  DW_TAG_variable
	.dwattr $C$DW$108, DW_AT_name("ui32Ints")
	.dwattr $C$DW$108, DW_AT_TI_symbol_name("ui32Ints")
	.dwattr $C$DW$108, DW_AT_type(*$C$DW$T$22)
	.dwattr $C$DW$108, DW_AT_location[DW_OP_breg13 0]

        STR       A1, [SP, #0]          ; [DPU_V7M3_PIPE] |1391| 
	.dwpsn	file "../driverlib/sysctl.c",line 1395,column 5,is_stmt,isa 1
        LDR       A2, $C$CON25          ; [DPU_V7M3_PIPE] |1395| 
        LDR       A1, [SP, #0]          ; [DPU_V7M3_PIPE] |1395| 
        STR       A1, [A2, #0]          ; [DPU_V7M3_PIPE] |1395| 
	.dwpsn	file "../driverlib/sysctl.c",line 1396,column 1,is_stmt,isa 1
        ADD       SP, SP, #8            ; [DPU_V7M3_PIPE] 
	.dwcfi	cfa_offset, 0
$C$DW$109	.dwtag  DW_TAG_TI_branch
	.dwattr $C$DW$109, DW_AT_low_pc(0x00)
	.dwattr $C$DW$109, DW_AT_TI_return

        BX        LR                    ; [DPU_V7M3_PIPE] 
        ; BRANCH OCCURS                  ; [] 
	.dwattr $C$DW$106, DW_AT_TI_end_file("../driverlib/sysctl.c")
	.dwattr $C$DW$106, DW_AT_TI_end_line(0x574)
	.dwattr $C$DW$106, DW_AT_TI_end_column(0x01)
	.dwendentry
	.dwendtag $C$DW$106

	.sect	".text"
	.clink
	.thumbfunc SysCtlIntStatus
	.thumb
	.global	SysCtlIntStatus

$C$DW$110	.dwtag  DW_TAG_subprogram
	.dwattr $C$DW$110, DW_AT_name("SysCtlIntStatus")
	.dwattr $C$DW$110, DW_AT_low_pc(SysCtlIntStatus)
	.dwattr $C$DW$110, DW_AT_high_pc(0x00)
	.dwattr $C$DW$110, DW_AT_TI_symbol_name("SysCtlIntStatus")
	.dwattr $C$DW$110, DW_AT_external
	.dwattr $C$DW$110, DW_AT_type(*$C$DW$T$22)
	.dwattr $C$DW$110, DW_AT_TI_begin_file("../driverlib/sysctl.c")
	.dwattr $C$DW$110, DW_AT_TI_begin_line(0x58d)
	.dwattr $C$DW$110, DW_AT_TI_begin_column(0x01)
	.dwattr $C$DW$110, DW_AT_decl_file("../driverlib/sysctl.c")
	.dwattr $C$DW$110, DW_AT_decl_line(0x58d)
	.dwattr $C$DW$110, DW_AT_decl_column(0x01)
	.dwattr $C$DW$110, DW_AT_TI_max_frame_size(0x08)
	.dwpsn	file "../driverlib/sysctl.c",line 1422,column 1,is_stmt,address SysCtlIntStatus,isa 1

	.dwfde $C$DW$CIE, SysCtlIntStatus
$C$DW$111	.dwtag  DW_TAG_formal_parameter
	.dwattr $C$DW$111, DW_AT_name("bMasked")
	.dwattr $C$DW$111, DW_AT_TI_symbol_name("bMasked")
	.dwattr $C$DW$111, DW_AT_type(*$C$DW$T$10)
	.dwattr $C$DW$111, DW_AT_location[DW_OP_reg0]


;*****************************************************************************
;* FUNCTION NAME: SysCtlIntStatus                                            *
;*                                                                           *
;*   Regs Modified     : A1,SP                                               *
;*   Regs Used         : A1,SP,LR                                            *
;*   Local Frame Size  : 0 Args + 4 Auto + 0 Save = 4 byte                   *
;*****************************************************************************
SysCtlIntStatus:
;* --------------------------------------------------------------------------*
	.dwcfi	cfa_offset, 0
        SUB       SP, SP, #8            ; [DPU_V7M3_PIPE] 
	.dwcfi	cfa_offset, 8
$C$DW$112	.dwtag  DW_TAG_variable
	.dwattr $C$DW$112, DW_AT_name("bMasked")
	.dwattr $C$DW$112, DW_AT_TI_symbol_name("bMasked")
	.dwattr $C$DW$112, DW_AT_type(*$C$DW$T$36)
	.dwattr $C$DW$112, DW_AT_location[DW_OP_breg13 0]

        STRB      A1, [SP, #0]          ; [DPU_V7M3_PIPE] |1422| 
	.dwpsn	file "../driverlib/sysctl.c",line 1427,column 5,is_stmt,isa 1
        LDRB      A1, [SP, #0]          ; [DPU_V7M3_PIPE] |1427| 
        CBZ       A1, ||$C$L17||        ; [] 
        ; BRANCHCC OCCURS {||$C$L17||}   ; [] |1427| 
;* --------------------------------------------------------------------------*
	.dwpsn	file "../driverlib/sysctl.c",line 1429,column 9,is_stmt,isa 1
        LDR       A1, $C$CON25          ; [DPU_V7M3_PIPE] |1429| 
        LDR       A1, [A1, #0]          ; [DPU_V7M3_PIPE] |1429| 
        B         ||$C$L18||            ; [DPU_V7M3_PIPE] |1429| 
        ; BRANCH OCCURS {||$C$L18||}     ; [] |1429| 
;* --------------------------------------------------------------------------*
;* --------------------------------------------------------------------------*
||$C$L17||:    
	.dwpsn	file "../driverlib/sysctl.c",line 1433,column 9,is_stmt,isa 1
        LDR       A1, $C$CON26          ; [DPU_V7M3_PIPE] |1433| 
        LDR       A1, [A1, #0]          ; [DPU_V7M3_PIPE] |1433| 
;* --------------------------------------------------------------------------*
||$C$L18||:    
	.dwpsn	file "../driverlib/sysctl.c",line 1435,column 1,is_stmt,isa 1
        ADD       SP, SP, #8            ; [DPU_V7M3_PIPE] 
	.dwcfi	cfa_offset, 0
$C$DW$113	.dwtag  DW_TAG_TI_branch
	.dwattr $C$DW$113, DW_AT_low_pc(0x00)
	.dwattr $C$DW$113, DW_AT_TI_return

        BX        LR                    ; [DPU_V7M3_PIPE] 
        ; BRANCH OCCURS                  ; [] 
	.dwattr $C$DW$110, DW_AT_TI_end_file("../driverlib/sysctl.c")
	.dwattr $C$DW$110, DW_AT_TI_end_line(0x59b)
	.dwattr $C$DW$110, DW_AT_TI_end_column(0x01)
	.dwendentry
	.dwendtag $C$DW$110

	.sect	".text"
	.clink
	.thumbfunc SysCtlLDOSleepSet
	.thumb
	.global	SysCtlLDOSleepSet

$C$DW$114	.dwtag  DW_TAG_subprogram
	.dwattr $C$DW$114, DW_AT_name("SysCtlLDOSleepSet")
	.dwattr $C$DW$114, DW_AT_low_pc(SysCtlLDOSleepSet)
	.dwattr $C$DW$114, DW_AT_high_pc(0x00)
	.dwattr $C$DW$114, DW_AT_TI_symbol_name("SysCtlLDOSleepSet")
	.dwattr $C$DW$114, DW_AT_external
	.dwattr $C$DW$114, DW_AT_TI_begin_file("../driverlib/sysctl.c")
	.dwattr $C$DW$114, DW_AT_TI_begin_line(0x5b3)
	.dwattr $C$DW$114, DW_AT_TI_begin_column(0x01)
	.dwattr $C$DW$114, DW_AT_decl_file("../driverlib/sysctl.c")
	.dwattr $C$DW$114, DW_AT_decl_line(0x5b3)
	.dwattr $C$DW$114, DW_AT_decl_column(0x01)
	.dwattr $C$DW$114, DW_AT_TI_max_frame_size(0x08)
	.dwpsn	file "../driverlib/sysctl.c",line 1460,column 1,is_stmt,address SysCtlLDOSleepSet,isa 1

	.dwfde $C$DW$CIE, SysCtlLDOSleepSet
$C$DW$115	.dwtag  DW_TAG_formal_parameter
	.dwattr $C$DW$115, DW_AT_name("ui32Voltage")
	.dwattr $C$DW$115, DW_AT_TI_symbol_name("ui32Voltage")
	.dwattr $C$DW$115, DW_AT_type(*$C$DW$T$22)
	.dwattr $C$DW$115, DW_AT_location[DW_OP_reg0]


;*****************************************************************************
;* FUNCTION NAME: SysCtlLDOSleepSet                                          *
;*                                                                           *
;*   Regs Modified     : A1,A2,SP                                            *
;*   Regs Used         : A1,A2,SP,LR                                         *
;*   Local Frame Size  : 0 Args + 4 Auto + 0 Save = 4 byte                   *
;*****************************************************************************
SysCtlLDOSleepSet:
;* --------------------------------------------------------------------------*
	.dwcfi	cfa_offset, 0
        SUB       SP, SP, #8            ; [DPU_V7M3_PIPE] 
	.dwcfi	cfa_offset, 8
$C$DW$116	.dwtag  DW_TAG_variable
	.dwattr $C$DW$116, DW_AT_name("ui32Voltage")
	.dwattr $C$DW$116, DW_AT_TI_symbol_name("ui32Voltage")
	.dwattr $C$DW$116, DW_AT_type(*$C$DW$T$22)
	.dwattr $C$DW$116, DW_AT_location[DW_OP_breg13 0]

        STR       A1, [SP, #0]          ; [DPU_V7M3_PIPE] |1460| 
	.dwpsn	file "../driverlib/sysctl.c",line 1475,column 5,is_stmt,isa 1
        LDR       A2, $C$CON27          ; [DPU_V7M3_PIPE] |1475| 
        LDR       A1, [SP, #0]          ; [DPU_V7M3_PIPE] |1475| 
        STR       A1, [A2, #0]          ; [DPU_V7M3_PIPE] |1475| 
	.dwpsn	file "../driverlib/sysctl.c",line 1476,column 1,is_stmt,isa 1
        ADD       SP, SP, #8            ; [DPU_V7M3_PIPE] 
	.dwcfi	cfa_offset, 0
$C$DW$117	.dwtag  DW_TAG_TI_branch
	.dwattr $C$DW$117, DW_AT_low_pc(0x00)
	.dwattr $C$DW$117, DW_AT_TI_return

        BX        LR                    ; [DPU_V7M3_PIPE] 
        ; BRANCH OCCURS                  ; [] 
	.dwattr $C$DW$114, DW_AT_TI_end_file("../driverlib/sysctl.c")
	.dwattr $C$DW$114, DW_AT_TI_end_line(0x5c4)
	.dwattr $C$DW$114, DW_AT_TI_end_column(0x01)
	.dwendentry
	.dwendtag $C$DW$114

	.sect	".text"
	.clink
	.thumbfunc SysCtlLDOSleepGet
	.thumb
	.global	SysCtlLDOSleepGet

$C$DW$118	.dwtag  DW_TAG_subprogram
	.dwattr $C$DW$118, DW_AT_name("SysCtlLDOSleepGet")
	.dwattr $C$DW$118, DW_AT_low_pc(SysCtlLDOSleepGet)
	.dwattr $C$DW$118, DW_AT_high_pc(0x00)
	.dwattr $C$DW$118, DW_AT_TI_symbol_name("SysCtlLDOSleepGet")
	.dwattr $C$DW$118, DW_AT_external
	.dwattr $C$DW$118, DW_AT_type(*$C$DW$T$22)
	.dwattr $C$DW$118, DW_AT_TI_begin_file("../driverlib/sysctl.c")
	.dwattr $C$DW$118, DW_AT_TI_begin_line(0x5d9)
	.dwattr $C$DW$118, DW_AT_TI_begin_column(0x01)
	.dwattr $C$DW$118, DW_AT_decl_file("../driverlib/sysctl.c")
	.dwattr $C$DW$118, DW_AT_decl_line(0x5d9)
	.dwattr $C$DW$118, DW_AT_decl_column(0x01)
	.dwattr $C$DW$118, DW_AT_TI_max_frame_size(0x00)
	.dwpsn	file "../driverlib/sysctl.c",line 1498,column 1,is_stmt,address SysCtlLDOSleepGet,isa 1

	.dwfde $C$DW$CIE, SysCtlLDOSleepGet

;*****************************************************************************
;* FUNCTION NAME: SysCtlLDOSleepGet                                          *
;*                                                                           *
;*   Regs Modified     : A1                                                  *
;*   Regs Used         : A1,LR                                               *
;*   Local Frame Size  : 0 Args + 0 Auto + 0 Save = 0 byte                   *
;*****************************************************************************
SysCtlLDOSleepGet:
;* --------------------------------------------------------------------------*
	.dwcfi	cfa_offset, 0
	.dwpsn	file "../driverlib/sysctl.c",line 1502,column 5,is_stmt,isa 1
        LDR       A1, $C$CON27          ; [DPU_V7M3_PIPE] |1502| 
        LDR       A1, [A1, #0]          ; [DPU_V7M3_PIPE] |1502| 
	.dwpsn	file "../driverlib/sysctl.c",line 1503,column 1,is_stmt,isa 1
$C$DW$119	.dwtag  DW_TAG_TI_branch
	.dwattr $C$DW$119, DW_AT_low_pc(0x00)
	.dwattr $C$DW$119, DW_AT_TI_return

        BX        LR                    ; [DPU_V7M3_PIPE] 
        ; BRANCH OCCURS                  ; [] 
	.dwattr $C$DW$118, DW_AT_TI_end_file("../driverlib/sysctl.c")
	.dwattr $C$DW$118, DW_AT_TI_end_line(0x5df)
	.dwattr $C$DW$118, DW_AT_TI_end_column(0x01)
	.dwendentry
	.dwendtag $C$DW$118

	.sect	".text"
	.clink
	.thumbfunc SysCtlLDODeepSleepSet
	.thumb
	.global	SysCtlLDODeepSleepSet

$C$DW$120	.dwtag  DW_TAG_subprogram
	.dwattr $C$DW$120, DW_AT_name("SysCtlLDODeepSleepSet")
	.dwattr $C$DW$120, DW_AT_low_pc(SysCtlLDODeepSleepSet)
	.dwattr $C$DW$120, DW_AT_high_pc(0x00)
	.dwattr $C$DW$120, DW_AT_TI_symbol_name("SysCtlLDODeepSleepSet")
	.dwattr $C$DW$120, DW_AT_external
	.dwattr $C$DW$120, DW_AT_TI_begin_file("../driverlib/sysctl.c")
	.dwattr $C$DW$120, DW_AT_TI_begin_line(0x5f8)
	.dwattr $C$DW$120, DW_AT_TI_begin_column(0x01)
	.dwattr $C$DW$120, DW_AT_decl_file("../driverlib/sysctl.c")
	.dwattr $C$DW$120, DW_AT_decl_line(0x5f8)
	.dwattr $C$DW$120, DW_AT_decl_column(0x01)
	.dwattr $C$DW$120, DW_AT_TI_max_frame_size(0x08)
	.dwpsn	file "../driverlib/sysctl.c",line 1529,column 1,is_stmt,address SysCtlLDODeepSleepSet,isa 1

	.dwfde $C$DW$CIE, SysCtlLDODeepSleepSet
$C$DW$121	.dwtag  DW_TAG_formal_parameter
	.dwattr $C$DW$121, DW_AT_name("ui32Voltage")
	.dwattr $C$DW$121, DW_AT_TI_symbol_name("ui32Voltage")
	.dwattr $C$DW$121, DW_AT_type(*$C$DW$T$22)
	.dwattr $C$DW$121, DW_AT_location[DW_OP_reg0]


;*****************************************************************************
;* FUNCTION NAME: SysCtlLDODeepSleepSet                                      *
;*                                                                           *
;*   Regs Modified     : A1,A2,SP                                            *
;*   Regs Used         : A1,A2,SP,LR                                         *
;*   Local Frame Size  : 0 Args + 4 Auto + 0 Save = 4 byte                   *
;*****************************************************************************
SysCtlLDODeepSleepSet:
;* --------------------------------------------------------------------------*
	.dwcfi	cfa_offset, 0
        SUB       SP, SP, #8            ; [DPU_V7M3_PIPE] 
	.dwcfi	cfa_offset, 8
$C$DW$122	.dwtag  DW_TAG_variable
	.dwattr $C$DW$122, DW_AT_name("ui32Voltage")
	.dwattr $C$DW$122, DW_AT_TI_symbol_name("ui32Voltage")
	.dwattr $C$DW$122, DW_AT_type(*$C$DW$T$22)
	.dwattr $C$DW$122, DW_AT_location[DW_OP_breg13 0]

        STR       A1, [SP, #0]          ; [DPU_V7M3_PIPE] |1529| 
	.dwpsn	file "../driverlib/sysctl.c",line 1544,column 5,is_stmt,isa 1
        LDR       A2, $C$CON28          ; [DPU_V7M3_PIPE] |1544| 
        LDR       A1, [SP, #0]          ; [DPU_V7M3_PIPE] |1544| 
        STR       A1, [A2, #0]          ; [DPU_V7M3_PIPE] |1544| 
	.dwpsn	file "../driverlib/sysctl.c",line 1545,column 1,is_stmt,isa 1
        ADD       SP, SP, #8            ; [DPU_V7M3_PIPE] 
	.dwcfi	cfa_offset, 0
$C$DW$123	.dwtag  DW_TAG_TI_branch
	.dwattr $C$DW$123, DW_AT_low_pc(0x00)
	.dwattr $C$DW$123, DW_AT_TI_return

        BX        LR                    ; [DPU_V7M3_PIPE] 
        ; BRANCH OCCURS                  ; [] 
	.dwattr $C$DW$120, DW_AT_TI_end_file("../driverlib/sysctl.c")
	.dwattr $C$DW$120, DW_AT_TI_end_line(0x609)
	.dwattr $C$DW$120, DW_AT_TI_end_column(0x01)
	.dwendentry
	.dwendtag $C$DW$120

	.sect	".text"
	.clink
	.thumbfunc SysCtlLDODeepSleepGet
	.thumb
	.global	SysCtlLDODeepSleepGet

$C$DW$124	.dwtag  DW_TAG_subprogram
	.dwattr $C$DW$124, DW_AT_name("SysCtlLDODeepSleepGet")
	.dwattr $C$DW$124, DW_AT_low_pc(SysCtlLDODeepSleepGet)
	.dwattr $C$DW$124, DW_AT_high_pc(0x00)
	.dwattr $C$DW$124, DW_AT_TI_symbol_name("SysCtlLDODeepSleepGet")
	.dwattr $C$DW$124, DW_AT_external
	.dwattr $C$DW$124, DW_AT_type(*$C$DW$T$22)
	.dwattr $C$DW$124, DW_AT_TI_begin_file("../driverlib/sysctl.c")
	.dwattr $C$DW$124, DW_AT_TI_begin_line(0x61f)
	.dwattr $C$DW$124, DW_AT_TI_begin_column(0x01)
	.dwattr $C$DW$124, DW_AT_decl_file("../driverlib/sysctl.c")
	.dwattr $C$DW$124, DW_AT_decl_line(0x61f)
	.dwattr $C$DW$124, DW_AT_decl_column(0x01)
	.dwattr $C$DW$124, DW_AT_TI_max_frame_size(0x00)
	.dwpsn	file "../driverlib/sysctl.c",line 1568,column 1,is_stmt,address SysCtlLDODeepSleepGet,isa 1

	.dwfde $C$DW$CIE, SysCtlLDODeepSleepGet

;*****************************************************************************
;* FUNCTION NAME: SysCtlLDODeepSleepGet                                      *
;*                                                                           *
;*   Regs Modified     : A1                                                  *
;*   Regs Used         : A1,LR                                               *
;*   Local Frame Size  : 0 Args + 0 Auto + 0 Save = 0 byte                   *
;*****************************************************************************
SysCtlLDODeepSleepGet:
;* --------------------------------------------------------------------------*
	.dwcfi	cfa_offset, 0
	.dwpsn	file "../driverlib/sysctl.c",line 1572,column 5,is_stmt,isa 1
        LDR       A1, $C$CON28          ; [DPU_V7M3_PIPE] |1572| 
        LDR       A1, [A1, #0]          ; [DPU_V7M3_PIPE] |1572| 
	.dwpsn	file "../driverlib/sysctl.c",line 1573,column 1,is_stmt,isa 1
$C$DW$125	.dwtag  DW_TAG_TI_branch
	.dwattr $C$DW$125, DW_AT_low_pc(0x00)
	.dwattr $C$DW$125, DW_AT_TI_return

        BX        LR                    ; [DPU_V7M3_PIPE] 
        ; BRANCH OCCURS                  ; [] 
	.dwattr $C$DW$124, DW_AT_TI_end_file("../driverlib/sysctl.c")
	.dwattr $C$DW$124, DW_AT_TI_end_line(0x625)
	.dwattr $C$DW$124, DW_AT_TI_end_column(0x01)
	.dwendentry
	.dwendtag $C$DW$124

	.sect	".text"
	.clink
	.thumbfunc SysCtlSleepPowerSet
	.thumb
	.global	SysCtlSleepPowerSet

$C$DW$126	.dwtag  DW_TAG_subprogram
	.dwattr $C$DW$126, DW_AT_name("SysCtlSleepPowerSet")
	.dwattr $C$DW$126, DW_AT_low_pc(SysCtlSleepPowerSet)
	.dwattr $C$DW$126, DW_AT_high_pc(0x00)
	.dwattr $C$DW$126, DW_AT_TI_symbol_name("SysCtlSleepPowerSet")
	.dwattr $C$DW$126, DW_AT_external
	.dwattr $C$DW$126, DW_AT_TI_begin_file("../driverlib/sysctl.c")
	.dwattr $C$DW$126, DW_AT_TI_begin_line(0x649)
	.dwattr $C$DW$126, DW_AT_TI_begin_column(0x01)
	.dwattr $C$DW$126, DW_AT_decl_file("../driverlib/sysctl.c")
	.dwattr $C$DW$126, DW_AT_decl_line(0x649)
	.dwattr $C$DW$126, DW_AT_decl_column(0x01)
	.dwattr $C$DW$126, DW_AT_TI_max_frame_size(0x08)
	.dwpsn	file "../driverlib/sysctl.c",line 1610,column 1,is_stmt,address SysCtlSleepPowerSet,isa 1

	.dwfde $C$DW$CIE, SysCtlSleepPowerSet
$C$DW$127	.dwtag  DW_TAG_formal_parameter
	.dwattr $C$DW$127, DW_AT_name("ui32Config")
	.dwattr $C$DW$127, DW_AT_TI_symbol_name("ui32Config")
	.dwattr $C$DW$127, DW_AT_type(*$C$DW$T$22)
	.dwattr $C$DW$127, DW_AT_location[DW_OP_reg0]


;*****************************************************************************
;* FUNCTION NAME: SysCtlSleepPowerSet                                        *
;*                                                                           *
;*   Regs Modified     : A1,A2,SP                                            *
;*   Regs Used         : A1,A2,SP,LR                                         *
;*   Local Frame Size  : 0 Args + 4 Auto + 0 Save = 4 byte                   *
;*****************************************************************************
SysCtlSleepPowerSet:
;* --------------------------------------------------------------------------*
	.dwcfi	cfa_offset, 0
        SUB       SP, SP, #8            ; [DPU_V7M3_PIPE] 
	.dwcfi	cfa_offset, 8
$C$DW$128	.dwtag  DW_TAG_variable
	.dwattr $C$DW$128, DW_AT_name("ui32Config")
	.dwattr $C$DW$128, DW_AT_TI_symbol_name("ui32Config")
	.dwattr $C$DW$128, DW_AT_type(*$C$DW$T$22)
	.dwattr $C$DW$128, DW_AT_location[DW_OP_breg13 0]

        STR       A1, [SP, #0]          ; [DPU_V7M3_PIPE] |1610| 
	.dwpsn	file "../driverlib/sysctl.c",line 1614,column 5,is_stmt,isa 1
        LDR       A2, $C$CON29          ; [DPU_V7M3_PIPE] |1614| 
        LDR       A1, [SP, #0]          ; [DPU_V7M3_PIPE] |1614| 
        STR       A1, [A2, #0]          ; [DPU_V7M3_PIPE] |1614| 
	.dwpsn	file "../driverlib/sysctl.c",line 1615,column 1,is_stmt,isa 1
        ADD       SP, SP, #8            ; [DPU_V7M3_PIPE] 
	.dwcfi	cfa_offset, 0
$C$DW$129	.dwtag  DW_TAG_TI_branch
	.dwattr $C$DW$129, DW_AT_low_pc(0x00)
	.dwattr $C$DW$129, DW_AT_TI_return

        BX        LR                    ; [DPU_V7M3_PIPE] 
        ; BRANCH OCCURS                  ; [] 
	.dwattr $C$DW$126, DW_AT_TI_end_file("../driverlib/sysctl.c")
	.dwattr $C$DW$126, DW_AT_TI_end_line(0x64f)
	.dwattr $C$DW$126, DW_AT_TI_end_column(0x01)
	.dwendentry
	.dwendtag $C$DW$126

;******************************************************************************
;* CONSTANT TABLE                                                             *
;******************************************************************************
	.sect	".text"
	.align	4
||$C$CON15||:	.bits		0x400fe500,32

	.sect	".text"
	.clink
	.thumbfunc SysCtlDeepSleepPowerSet
	.thumb
	.global	SysCtlDeepSleepPowerSet

$C$DW$130	.dwtag  DW_TAG_subprogram
	.dwattr $C$DW$130, DW_AT_name("SysCtlDeepSleepPowerSet")
	.dwattr $C$DW$130, DW_AT_low_pc(SysCtlDeepSleepPowerSet)
	.dwattr $C$DW$130, DW_AT_high_pc(0x00)
	.dwattr $C$DW$130, DW_AT_TI_symbol_name("SysCtlDeepSleepPowerSet")
	.dwattr $C$DW$130, DW_AT_external
	.dwattr $C$DW$130, DW_AT_TI_begin_file("../driverlib/sysctl.c")
	.dwattr $C$DW$130, DW_AT_TI_begin_line(0x675)
	.dwattr $C$DW$130, DW_AT_TI_begin_column(0x01)
	.dwattr $C$DW$130, DW_AT_decl_file("../driverlib/sysctl.c")
	.dwattr $C$DW$130, DW_AT_decl_line(0x675)
	.dwattr $C$DW$130, DW_AT_decl_column(0x01)
	.dwattr $C$DW$130, DW_AT_TI_max_frame_size(0x08)
	.dwpsn	file "../driverlib/sysctl.c",line 1654,column 1,is_stmt,address SysCtlDeepSleepPowerSet,isa 1

	.dwfde $C$DW$CIE, SysCtlDeepSleepPowerSet
$C$DW$131	.dwtag  DW_TAG_formal_parameter
	.dwattr $C$DW$131, DW_AT_name("ui32Config")
	.dwattr $C$DW$131, DW_AT_TI_symbol_name("ui32Config")
	.dwattr $C$DW$131, DW_AT_type(*$C$DW$T$22)
	.dwattr $C$DW$131, DW_AT_location[DW_OP_reg0]


;*****************************************************************************
;* FUNCTION NAME: SysCtlDeepSleepPowerSet                                    *
;*                                                                           *
;*   Regs Modified     : A1,A2,SP                                            *
;*   Regs Used         : A1,A2,SP,LR                                         *
;*   Local Frame Size  : 0 Args + 4 Auto + 0 Save = 4 byte                   *
;*****************************************************************************
SysCtlDeepSleepPowerSet:
;* --------------------------------------------------------------------------*
	.dwcfi	cfa_offset, 0
        SUB       SP, SP, #8            ; [DPU_V7M3_PIPE] 
	.dwcfi	cfa_offset, 8
$C$DW$132	.dwtag  DW_TAG_variable
	.dwattr $C$DW$132, DW_AT_name("ui32Config")
	.dwattr $C$DW$132, DW_AT_TI_symbol_name("ui32Config")
	.dwattr $C$DW$132, DW_AT_type(*$C$DW$T$22)
	.dwattr $C$DW$132, DW_AT_location[DW_OP_breg13 0]

        STR       A1, [SP, #0]          ; [DPU_V7M3_PIPE] |1654| 
	.dwpsn	file "../driverlib/sysctl.c",line 1658,column 5,is_stmt,isa 1
        LDR       A2, $C$CON30          ; [DPU_V7M3_PIPE] |1658| 
        LDR       A1, [SP, #0]          ; [DPU_V7M3_PIPE] |1658| 
        STR       A1, [A2, #0]          ; [DPU_V7M3_PIPE] |1658| 
	.dwpsn	file "../driverlib/sysctl.c",line 1659,column 1,is_stmt,isa 1
        ADD       SP, SP, #8            ; [DPU_V7M3_PIPE] 
	.dwcfi	cfa_offset, 0
$C$DW$133	.dwtag  DW_TAG_TI_branch
	.dwattr $C$DW$133, DW_AT_low_pc(0x00)
	.dwattr $C$DW$133, DW_AT_TI_return

        BX        LR                    ; [DPU_V7M3_PIPE] 
        ; BRANCH OCCURS                  ; [] 
	.dwattr $C$DW$130, DW_AT_TI_end_file("../driverlib/sysctl.c")
	.dwattr $C$DW$130, DW_AT_TI_end_line(0x67b)
	.dwattr $C$DW$130, DW_AT_TI_end_column(0x01)
	.dwendentry
	.dwendtag $C$DW$130

	.sect	".text"
	.clink
	.thumbfunc SysCtlReset
	.thumb
	.global	SysCtlReset

$C$DW$134	.dwtag  DW_TAG_subprogram
	.dwattr $C$DW$134, DW_AT_name("SysCtlReset")
	.dwattr $C$DW$134, DW_AT_low_pc(SysCtlReset)
	.dwattr $C$DW$134, DW_AT_high_pc(0x00)
	.dwattr $C$DW$134, DW_AT_TI_symbol_name("SysCtlReset")
	.dwattr $C$DW$134, DW_AT_external
	.dwattr $C$DW$134, DW_AT_TI_begin_file("../driverlib/sysctl.c")
	.dwattr $C$DW$134, DW_AT_TI_begin_line(0x68b)
	.dwattr $C$DW$134, DW_AT_TI_begin_column(0x01)
	.dwattr $C$DW$134, DW_AT_decl_file("../driverlib/sysctl.c")
	.dwattr $C$DW$134, DW_AT_decl_line(0x68b)
	.dwattr $C$DW$134, DW_AT_decl_column(0x01)
	.dwattr $C$DW$134, DW_AT_TI_max_frame_size(0x00)
	.dwpsn	file "../driverlib/sysctl.c",line 1676,column 1,is_stmt,address SysCtlReset,isa 1

	.dwfde $C$DW$CIE, SysCtlReset

;*****************************************************************************
;* FUNCTION NAME: SysCtlReset                                                *
;*                                                                           *
;*   Regs Modified     : A1,A2                                               *
;*   Regs Used         : A1,A2,LR                                            *
;*   Local Frame Size  : 0 Args + 0 Auto + 0 Save = 0 byte                   *
;*****************************************************************************
SysCtlReset:
;* --------------------------------------------------------------------------*
	.dwcfi	cfa_offset, 0
	.dwpsn	file "../driverlib/sysctl.c",line 1681,column 5,is_stmt,isa 1
        LDR       A1, $C$CON32          ; [DPU_V7M3_PIPE] |1681| 
        LDR       A2, $C$CON31          ; [DPU_V7M3_PIPE] |1681| 
        STR       A1, [A2, #0]          ; [DPU_V7M3_PIPE] |1681| 
	.dwpsn	file "../driverlib/sysctl.c",line 1687,column 11,is_stmt,isa 1
;* --------------------------------------------------------------------------*
;*   BEGIN LOOP ||$C$L19||
;*
;*   Loop source line                : 1687
;*   Loop closing brace source line  : 1689
;*   Known Minimum Trip Count        : 1
;*   Known Maximum Trip Count        : 4294967295
;*   Known Max Trip Count Factor     : 1
;* --------------------------------------------------------------------------*
||$C$L19||:    
        B         ||$C$L19||            ; [DPU_V7M3_PIPE] |1687| 
        ; BRANCH OCCURS {||$C$L19||}     ; [] |1687| 
;* --------------------------------------------------------------------------*
	.dwattr $C$DW$134, DW_AT_TI_end_file("../driverlib/sysctl.c")
	.dwattr $C$DW$134, DW_AT_TI_end_line(0x69a)
	.dwattr $C$DW$134, DW_AT_TI_end_column(0x01)
	.dwendentry
	.dwendtag $C$DW$134

	.sect	".text"
	.clink
	.thumbfunc SysCtlSleep
	.thumb
	.global	SysCtlSleep

$C$DW$135	.dwtag  DW_TAG_subprogram
	.dwattr $C$DW$135, DW_AT_name("SysCtlSleep")
	.dwattr $C$DW$135, DW_AT_low_pc(SysCtlSleep)
	.dwattr $C$DW$135, DW_AT_high_pc(0x00)
	.dwattr $C$DW$135, DW_AT_TI_symbol_name("SysCtlSleep")
	.dwattr $C$DW$135, DW_AT_external
	.dwattr $C$DW$135, DW_AT_TI_begin_file("../driverlib/sysctl.c")
	.dwattr $C$DW$135, DW_AT_TI_begin_line(0x6ab)
	.dwattr $C$DW$135, DW_AT_TI_begin_column(0x01)
	.dwattr $C$DW$135, DW_AT_decl_file("../driverlib/sysctl.c")
	.dwattr $C$DW$135, DW_AT_decl_line(0x6ab)
	.dwattr $C$DW$135, DW_AT_decl_column(0x01)
	.dwattr $C$DW$135, DW_AT_TI_max_frame_size(0x08)
	.dwpsn	file "../driverlib/sysctl.c",line 1708,column 1,is_stmt,address SysCtlSleep,isa 1

	.dwfde $C$DW$CIE, SysCtlSleep

;*****************************************************************************
;* FUNCTION NAME: SysCtlSleep                                                *
;*                                                                           *
;*   Regs Modified     : A1,A2,A3,A4,V9,SP,LR,SR,D0,D0_hi,D1,D1_hi,D2,D2_hi, *
;*                           D3,D3_hi,D4,D4_hi,D5,D5_hi,D6,D6_hi,D7,D7_hi,   *
;*                           FPEXC,FPSCR                                     *
;*   Regs Used         : A1,A2,A3,A4,V9,SP,LR,SR,D0,D0_hi,D1,D1_hi,D2,D2_hi, *
;*                           D3,D3_hi,D4,D4_hi,D5,D5_hi,D6,D6_hi,D7,D7_hi,   *
;*                           FPEXC,FPSCR                                     *
;*   Local Frame Size  : 0 Args + 0 Auto + 4 Save = 4 byte                   *
;*****************************************************************************
SysCtlSleep:
;* --------------------------------------------------------------------------*
	.dwcfi	cfa_offset, 0
        PUSH      {A4, LR}              ; [DPU_V7M3_PIPE] 
	.dwcfi	cfa_offset, 8
	.dwcfi	save_reg_to_mem, 14, -4
	.dwcfi	save_reg_to_mem, 3, -8
	.dwpsn	file "../driverlib/sysctl.c",line 1712,column 5,is_stmt,isa 1
$C$DW$136	.dwtag  DW_TAG_TI_branch
	.dwattr $C$DW$136, DW_AT_low_pc(0x00)
	.dwattr $C$DW$136, DW_AT_name("CPUwfi")
	.dwattr $C$DW$136, DW_AT_TI_call

        BL        CPUwfi                ; [DPU_V7M3_PIPE] |1712| 
        ; CALL OCCURS {CPUwfi }          ; [] |1712| 
	.dwpsn	file "../driverlib/sysctl.c",line 1713,column 1,is_stmt,isa 1
$C$DW$137	.dwtag  DW_TAG_TI_branch
	.dwattr $C$DW$137, DW_AT_low_pc(0x00)
	.dwattr $C$DW$137, DW_AT_TI_return

        POP       {A4, PC}              ; [DPU_V7M3_PIPE] 
	.dwcfi	cfa_offset, 0
	.dwcfi	restore_reg, 3
        ; BRANCH OCCURS                  ; [] 
	.dwattr $C$DW$135, DW_AT_TI_end_file("../driverlib/sysctl.c")
	.dwattr $C$DW$135, DW_AT_TI_end_line(0x6b1)
	.dwattr $C$DW$135, DW_AT_TI_end_column(0x01)
	.dwendentry
	.dwendtag $C$DW$135

	.sect	".text"
	.clink
	.thumbfunc SysCtlDeepSleep
	.thumb
	.global	SysCtlDeepSleep

$C$DW$138	.dwtag  DW_TAG_subprogram
	.dwattr $C$DW$138, DW_AT_name("SysCtlDeepSleep")
	.dwattr $C$DW$138, DW_AT_low_pc(SysCtlDeepSleep)
	.dwattr $C$DW$138, DW_AT_high_pc(0x00)
	.dwattr $C$DW$138, DW_AT_TI_symbol_name("SysCtlDeepSleep")
	.dwattr $C$DW$138, DW_AT_external
	.dwattr $C$DW$138, DW_AT_TI_begin_file("../driverlib/sysctl.c")
	.dwattr $C$DW$138, DW_AT_TI_begin_line(0x6c2)
	.dwattr $C$DW$138, DW_AT_TI_begin_column(0x01)
	.dwattr $C$DW$138, DW_AT_decl_file("../driverlib/sysctl.c")
	.dwattr $C$DW$138, DW_AT_decl_line(0x6c2)
	.dwattr $C$DW$138, DW_AT_decl_column(0x01)
	.dwattr $C$DW$138, DW_AT_TI_max_frame_size(0x08)
	.dwpsn	file "../driverlib/sysctl.c",line 1731,column 1,is_stmt,address SysCtlDeepSleep,isa 1

	.dwfde $C$DW$CIE, SysCtlDeepSleep

;*****************************************************************************
;* FUNCTION NAME: SysCtlDeepSleep                                            *
;*                                                                           *
;*   Regs Modified     : A1,A2,A3,A4,V9,SP,LR,SR,D0,D0_hi,D1,D1_hi,D2,D2_hi, *
;*                           D3,D3_hi,D4,D4_hi,D5,D5_hi,D6,D6_hi,D7,D7_hi,   *
;*                           FPEXC,FPSCR                                     *
;*   Regs Used         : A1,A2,A3,A4,V9,SP,LR,SR,D0,D0_hi,D1,D1_hi,D2,D2_hi, *
;*                           D3,D3_hi,D4,D4_hi,D5,D5_hi,D6,D6_hi,D7,D7_hi,   *
;*                           FPEXC,FPSCR                                     *
;*   Local Frame Size  : 0 Args + 0 Auto + 4 Save = 4 byte                   *
;*****************************************************************************
SysCtlDeepSleep:
;* --------------------------------------------------------------------------*
	.dwcfi	cfa_offset, 0
        PUSH      {A4, LR}              ; [DPU_V7M3_PIPE] 
	.dwcfi	cfa_offset, 8
	.dwcfi	save_reg_to_mem, 14, -4
	.dwcfi	save_reg_to_mem, 3, -8
	.dwpsn	file "../driverlib/sysctl.c",line 1735,column 5,is_stmt,isa 1
        LDR       A2, $C$CON33          ; [DPU_V7M3_PIPE] |1735| 
        LDR       A1, [A2, #0]          ; [DPU_V7M3_PIPE] |1735| 
        ORR       A1, A1, #4            ; [DPU_V7M3_PIPE] |1735| 
        STR       A1, [A2, #0]          ; [DPU_V7M3_PIPE] |1735| 
	.dwpsn	file "../driverlib/sysctl.c",line 1740,column 5,is_stmt,isa 1
$C$DW$139	.dwtag  DW_TAG_TI_branch
	.dwattr $C$DW$139, DW_AT_low_pc(0x00)
	.dwattr $C$DW$139, DW_AT_name("CPUwfi")
	.dwattr $C$DW$139, DW_AT_TI_call

        BL        CPUwfi                ; [DPU_V7M3_PIPE] |1740| 
        ; CALL OCCURS {CPUwfi }          ; [] |1740| 
	.dwpsn	file "../driverlib/sysctl.c",line 1745,column 5,is_stmt,isa 1
        LDR       A2, $C$CON33          ; [DPU_V7M3_PIPE] |1745| 
        LDR       A1, [A2, #0]          ; [DPU_V7M3_PIPE] |1745| 
        BIC       A1, A1, #4            ; [DPU_V7M3_PIPE] |1745| 
        STR       A1, [A2, #0]          ; [DPU_V7M3_PIPE] |1745| 
	.dwpsn	file "../driverlib/sysctl.c",line 1746,column 1,is_stmt,isa 1
$C$DW$140	.dwtag  DW_TAG_TI_branch
	.dwattr $C$DW$140, DW_AT_low_pc(0x00)
	.dwattr $C$DW$140, DW_AT_TI_return

        POP       {A4, PC}              ; [DPU_V7M3_PIPE] 
	.dwcfi	cfa_offset, 0
	.dwcfi	restore_reg, 3
        ; BRANCH OCCURS                  ; [] 
	.dwattr $C$DW$138, DW_AT_TI_end_file("../driverlib/sysctl.c")
	.dwattr $C$DW$138, DW_AT_TI_end_line(0x6d2)
	.dwattr $C$DW$138, DW_AT_TI_end_column(0x01)
	.dwendentry
	.dwendtag $C$DW$138

	.sect	".text"
	.clink
	.thumbfunc SysCtlResetCauseGet
	.thumb
	.global	SysCtlResetCauseGet

$C$DW$141	.dwtag  DW_TAG_subprogram
	.dwattr $C$DW$141, DW_AT_name("SysCtlResetCauseGet")
	.dwattr $C$DW$141, DW_AT_low_pc(SysCtlResetCauseGet)
	.dwattr $C$DW$141, DW_AT_high_pc(0x00)
	.dwattr $C$DW$141, DW_AT_TI_symbol_name("SysCtlResetCauseGet")
	.dwattr $C$DW$141, DW_AT_external
	.dwattr $C$DW$141, DW_AT_type(*$C$DW$T$22)
	.dwattr $C$DW$141, DW_AT_TI_begin_file("../driverlib/sysctl.c")
	.dwattr $C$DW$141, DW_AT_TI_begin_line(0x6e4)
	.dwattr $C$DW$141, DW_AT_TI_begin_column(0x01)
	.dwattr $C$DW$141, DW_AT_decl_file("../driverlib/sysctl.c")
	.dwattr $C$DW$141, DW_AT_decl_line(0x6e4)
	.dwattr $C$DW$141, DW_AT_decl_column(0x01)
	.dwattr $C$DW$141, DW_AT_TI_max_frame_size(0x00)
	.dwpsn	file "../driverlib/sysctl.c",line 1765,column 1,is_stmt,address SysCtlResetCauseGet,isa 1

	.dwfde $C$DW$CIE, SysCtlResetCauseGet

;*****************************************************************************
;* FUNCTION NAME: SysCtlResetCauseGet                                        *
;*                                                                           *
;*   Regs Modified     : A1                                                  *
;*   Regs Used         : A1,LR                                               *
;*   Local Frame Size  : 0 Args + 0 Auto + 0 Save = 0 byte                   *
;*****************************************************************************
SysCtlResetCauseGet:
;* --------------------------------------------------------------------------*
	.dwcfi	cfa_offset, 0
	.dwpsn	file "../driverlib/sysctl.c",line 1769,column 5,is_stmt,isa 1
        LDR       A1, $C$CON34          ; [DPU_V7M3_PIPE] |1769| 
        LDR       A1, [A1, #0]          ; [DPU_V7M3_PIPE] |1769| 
	.dwpsn	file "../driverlib/sysctl.c",line 1770,column 1,is_stmt,isa 1
$C$DW$142	.dwtag  DW_TAG_TI_branch
	.dwattr $C$DW$142, DW_AT_low_pc(0x00)
	.dwattr $C$DW$142, DW_AT_TI_return

        BX        LR                    ; [DPU_V7M3_PIPE] 
        ; BRANCH OCCURS                  ; [] 
	.dwattr $C$DW$141, DW_AT_TI_end_file("../driverlib/sysctl.c")
	.dwattr $C$DW$141, DW_AT_TI_end_line(0x6ea)
	.dwattr $C$DW$141, DW_AT_TI_end_column(0x01)
	.dwendentry
	.dwendtag $C$DW$141

	.sect	".text"
	.clink
	.thumbfunc SysCtlResetCauseClear
	.thumb
	.global	SysCtlResetCauseClear

$C$DW$143	.dwtag  DW_TAG_subprogram
	.dwattr $C$DW$143, DW_AT_name("SysCtlResetCauseClear")
	.dwattr $C$DW$143, DW_AT_low_pc(SysCtlResetCauseClear)
	.dwattr $C$DW$143, DW_AT_high_pc(0x00)
	.dwattr $C$DW$143, DW_AT_TI_symbol_name("SysCtlResetCauseClear")
	.dwattr $C$DW$143, DW_AT_external
	.dwattr $C$DW$143, DW_AT_TI_begin_file("../driverlib/sysctl.c")
	.dwattr $C$DW$143, DW_AT_TI_begin_line(0x6ff)
	.dwattr $C$DW$143, DW_AT_TI_begin_column(0x01)
	.dwattr $C$DW$143, DW_AT_decl_file("../driverlib/sysctl.c")
	.dwattr $C$DW$143, DW_AT_decl_line(0x6ff)
	.dwattr $C$DW$143, DW_AT_decl_column(0x01)
	.dwattr $C$DW$143, DW_AT_TI_max_frame_size(0x08)
	.dwpsn	file "../driverlib/sysctl.c",line 1792,column 1,is_stmt,address SysCtlResetCauseClear,isa 1

	.dwfde $C$DW$CIE, SysCtlResetCauseClear
$C$DW$144	.dwtag  DW_TAG_formal_parameter
	.dwattr $C$DW$144, DW_AT_name("ui32Causes")
	.dwattr $C$DW$144, DW_AT_TI_symbol_name("ui32Causes")
	.dwattr $C$DW$144, DW_AT_type(*$C$DW$T$22)
	.dwattr $C$DW$144, DW_AT_location[DW_OP_reg0]


;*****************************************************************************
;* FUNCTION NAME: SysCtlResetCauseClear                                      *
;*                                                                           *
;*   Regs Modified     : A1,A2,A3,SP,SR                                      *
;*   Regs Used         : A1,A2,A3,SP,LR,SR                                   *
;*   Local Frame Size  : 0 Args + 4 Auto + 0 Save = 4 byte                   *
;*****************************************************************************
SysCtlResetCauseClear:
;* --------------------------------------------------------------------------*
	.dwcfi	cfa_offset, 0
        SUB       SP, SP, #8            ; [DPU_V7M3_PIPE] 
	.dwcfi	cfa_offset, 8
$C$DW$145	.dwtag  DW_TAG_variable
	.dwattr $C$DW$145, DW_AT_name("ui32Causes")
	.dwattr $C$DW$145, DW_AT_TI_symbol_name("ui32Causes")
	.dwattr $C$DW$145, DW_AT_type(*$C$DW$T$22)
	.dwattr $C$DW$145, DW_AT_location[DW_OP_breg13 0]

        STR       A1, [SP, #0]          ; [DPU_V7M3_PIPE] |1792| 
	.dwpsn	file "../driverlib/sysctl.c",line 1796,column 5,is_stmt,isa 1
        LDR       A2, $C$CON34          ; [DPU_V7M3_PIPE] |1796| 
        LDR       A3, [SP, #0]          ; [DPU_V7M3_PIPE] |1796| 
        LDR       A1, [A2, #0]          ; [DPU_V7M3_PIPE] |1796| 
        BICS      A1, A1, A3            ; [DPU_V7M3_PIPE] |1796| 
        STR       A1, [A2, #0]          ; [DPU_V7M3_PIPE] |1796| 
	.dwpsn	file "../driverlib/sysctl.c",line 1797,column 1,is_stmt,isa 1
        ADD       SP, SP, #8            ; [DPU_V7M3_PIPE] 
	.dwcfi	cfa_offset, 0
$C$DW$146	.dwtag  DW_TAG_TI_branch
	.dwattr $C$DW$146, DW_AT_low_pc(0x00)
	.dwattr $C$DW$146, DW_AT_TI_return

        BX        LR                    ; [DPU_V7M3_PIPE] 
        ; BRANCH OCCURS                  ; [] 
	.dwattr $C$DW$143, DW_AT_TI_end_file("../driverlib/sysctl.c")
	.dwattr $C$DW$143, DW_AT_TI_end_line(0x705)
	.dwattr $C$DW$143, DW_AT_TI_end_column(0x01)
	.dwendentry
	.dwendtag $C$DW$143

	.sect	".text"
	.clink
	.thumbfunc SysCtlMOSCConfigSet
	.thumb
	.global	SysCtlMOSCConfigSet

$C$DW$147	.dwtag  DW_TAG_subprogram
	.dwattr $C$DW$147, DW_AT_name("SysCtlMOSCConfigSet")
	.dwattr $C$DW$147, DW_AT_low_pc(SysCtlMOSCConfigSet)
	.dwattr $C$DW$147, DW_AT_high_pc(0x00)
	.dwattr $C$DW$147, DW_AT_TI_symbol_name("SysCtlMOSCConfigSet")
	.dwattr $C$DW$147, DW_AT_external
	.dwattr $C$DW$147, DW_AT_TI_begin_file("../driverlib/sysctl.c")
	.dwattr $C$DW$147, DW_AT_TI_begin_line(0x770)
	.dwattr $C$DW$147, DW_AT_TI_begin_column(0x01)
	.dwattr $C$DW$147, DW_AT_decl_file("../driverlib/sysctl.c")
	.dwattr $C$DW$147, DW_AT_decl_line(0x770)
	.dwattr $C$DW$147, DW_AT_decl_column(0x01)
	.dwattr $C$DW$147, DW_AT_TI_max_frame_size(0x08)
	.dwpsn	file "../driverlib/sysctl.c",line 1905,column 1,is_stmt,address SysCtlMOSCConfigSet,isa 1

	.dwfde $C$DW$CIE, SysCtlMOSCConfigSet
$C$DW$148	.dwtag  DW_TAG_formal_parameter
	.dwattr $C$DW$148, DW_AT_name("ui32Config")
	.dwattr $C$DW$148, DW_AT_TI_symbol_name("ui32Config")
	.dwattr $C$DW$148, DW_AT_type(*$C$DW$T$22)
	.dwattr $C$DW$148, DW_AT_location[DW_OP_reg0]


;*****************************************************************************
;* FUNCTION NAME: SysCtlMOSCConfigSet                                        *
;*                                                                           *
;*   Regs Modified     : A1,A2,SP                                            *
;*   Regs Used         : A1,A2,SP,LR                                         *
;*   Local Frame Size  : 0 Args + 4 Auto + 0 Save = 4 byte                   *
;*****************************************************************************
SysCtlMOSCConfigSet:
;* --------------------------------------------------------------------------*
	.dwcfi	cfa_offset, 0
        SUB       SP, SP, #8            ; [DPU_V7M3_PIPE] 
	.dwcfi	cfa_offset, 8
$C$DW$149	.dwtag  DW_TAG_variable
	.dwattr $C$DW$149, DW_AT_name("ui32Config")
	.dwattr $C$DW$149, DW_AT_TI_symbol_name("ui32Config")
	.dwattr $C$DW$149, DW_AT_type(*$C$DW$T$22)
	.dwattr $C$DW$149, DW_AT_location[DW_OP_breg13 0]

        STR       A1, [SP, #0]          ; [DPU_V7M3_PIPE] |1905| 
	.dwpsn	file "../driverlib/sysctl.c",line 1909,column 5,is_stmt,isa 1
        LDR       A2, $C$CON35          ; [DPU_V7M3_PIPE] |1909| 
        LDR       A1, [SP, #0]          ; [DPU_V7M3_PIPE] |1909| 
        STR       A1, [A2, #0]          ; [DPU_V7M3_PIPE] |1909| 
	.dwpsn	file "../driverlib/sysctl.c",line 1910,column 1,is_stmt,isa 1
        ADD       SP, SP, #8            ; [DPU_V7M3_PIPE] 
	.dwcfi	cfa_offset, 0
$C$DW$150	.dwtag  DW_TAG_TI_branch
	.dwattr $C$DW$150, DW_AT_low_pc(0x00)
	.dwattr $C$DW$150, DW_AT_TI_return

        BX        LR                    ; [DPU_V7M3_PIPE] 
        ; BRANCH OCCURS                  ; [] 
	.dwattr $C$DW$147, DW_AT_TI_end_file("../driverlib/sysctl.c")
	.dwattr $C$DW$147, DW_AT_TI_end_line(0x776)
	.dwattr $C$DW$147, DW_AT_TI_end_column(0x01)
	.dwendentry
	.dwendtag $C$DW$147

;******************************************************************************
;* CONSTANT TABLE                                                             *
;******************************************************************************
	.sect	".text"
	.align	4
||$C$CON16||:	.bits		0x400fe600,32

	.sect	".text"
	.clink
	.thumbfunc SysCtlPIOSCCalibrate
	.thumb
	.global	SysCtlPIOSCCalibrate

$C$DW$151	.dwtag  DW_TAG_subprogram
	.dwattr $C$DW$151, DW_AT_name("SysCtlPIOSCCalibrate")
	.dwattr $C$DW$151, DW_AT_low_pc(SysCtlPIOSCCalibrate)
	.dwattr $C$DW$151, DW_AT_high_pc(0x00)
	.dwattr $C$DW$151, DW_AT_TI_symbol_name("SysCtlPIOSCCalibrate")
	.dwattr $C$DW$151, DW_AT_external
	.dwattr $C$DW$151, DW_AT_type(*$C$DW$T$22)
	.dwattr $C$DW$151, DW_AT_TI_begin_file("../driverlib/sysctl.c")
	.dwattr $C$DW$151, DW_AT_TI_begin_line(0x795)
	.dwattr $C$DW$151, DW_AT_TI_begin_column(0x01)
	.dwattr $C$DW$151, DW_AT_decl_file("../driverlib/sysctl.c")
	.dwattr $C$DW$151, DW_AT_decl_line(0x795)
	.dwattr $C$DW$151, DW_AT_decl_column(0x01)
	.dwattr $C$DW$151, DW_AT_TI_max_frame_size(0x08)
	.dwpsn	file "../driverlib/sysctl.c",line 1942,column 1,is_stmt,address SysCtlPIOSCCalibrate,isa 1

	.dwfde $C$DW$CIE, SysCtlPIOSCCalibrate
$C$DW$152	.dwtag  DW_TAG_formal_parameter
	.dwattr $C$DW$152, DW_AT_name("ui32Type")
	.dwattr $C$DW$152, DW_AT_TI_symbol_name("ui32Type")
	.dwattr $C$DW$152, DW_AT_type(*$C$DW$T$22)
	.dwattr $C$DW$152, DW_AT_location[DW_OP_reg0]


;*****************************************************************************
;* FUNCTION NAME: SysCtlPIOSCCalibrate                                       *
;*                                                                           *
;*   Regs Modified     : A1,A2,SP,SR                                         *
;*   Regs Used         : A1,A2,SP,LR,SR                                      *
;*   Local Frame Size  : 0 Args + 4 Auto + 0 Save = 4 byte                   *
;*****************************************************************************
SysCtlPIOSCCalibrate:
;* --------------------------------------------------------------------------*
	.dwcfi	cfa_offset, 0
        SUB       SP, SP, #8            ; [DPU_V7M3_PIPE] 
	.dwcfi	cfa_offset, 8
$C$DW$153	.dwtag  DW_TAG_variable
	.dwattr $C$DW$153, DW_AT_name("ui32Type")
	.dwattr $C$DW$153, DW_AT_TI_symbol_name("ui32Type")
	.dwattr $C$DW$153, DW_AT_type(*$C$DW$T$22)
	.dwattr $C$DW$153, DW_AT_location[DW_OP_breg13 0]

        STR       A1, [SP, #0]          ; [DPU_V7M3_PIPE] |1942| 
	.dwpsn	file "../driverlib/sysctl.c",line 1949,column 5,is_stmt,isa 1
        LDR       A1, $C$CON36          ; [DPU_V7M3_PIPE] |1949| 
        LDR       A2, [SP, #0]          ; [DPU_V7M3_PIPE] |1949| 
        TST       A1, A2                ; [DPU_V7M3_PIPE] |1949| 
        BEQ       ||$C$L20||            ; [DPU_V7M3_PIPE] |1949| 
        ; BRANCHCC OCCURS {||$C$L20||}   ; [] |1949| 
;* --------------------------------------------------------------------------*
	.dwpsn	file "../driverlib/sysctl.c",line 1951,column 9,is_stmt,isa 1
        LDR       A1, [SP, #0]          ; [DPU_V7M3_PIPE] |1951| 
        LDR       A2, $C$CON37          ; [DPU_V7M3_PIPE] |1951| 
        AND       A1, A1, #-2147483648  ; [DPU_V7M3_PIPE] |1951| 
        STR       A1, [A2, #0]          ; [DPU_V7M3_PIPE] |1951| 
	.dwpsn	file "../driverlib/sysctl.c",line 1952,column 9,is_stmt,isa 1
        LDR       A1, [SP, #0]          ; [DPU_V7M3_PIPE] |1952| 
        LDR       A2, $C$CON37          ; [DPU_V7M3_PIPE] |1952| 
        BFC       A1, #7, #24           ; [DPU_V7M3_PIPE] |1952| 
        STR       A1, [A2, #0]          ; [DPU_V7M3_PIPE] |1952| 
;* --------------------------------------------------------------------------*
||$C$L20||:    
	.dwpsn	file "../driverlib/sysctl.c",line 1955,column 5,is_stmt,isa 1
        LDR       A1, [SP, #0]          ; [DPU_V7M3_PIPE] |1955| 
        LDR       A2, $C$CON37          ; [DPU_V7M3_PIPE] |1955| 
        STR       A1, [A2, #0]          ; [DPU_V7M3_PIPE] |1955| 
	.dwpsn	file "../driverlib/sysctl.c",line 1960,column 5,is_stmt,isa 1
        LDR       A1, [SP, #0]          ; [DPU_V7M3_PIPE] |1960| 
        LSRS      A1, A1, #10           ; [DPU_V7M3_PIPE] |1960| 
        BCC       ||$C$L22||            ; [DPU_V7M3_PIPE] |1960| 
        ; BRANCHCC OCCURS {||$C$L22||}   ; [] |1960| 
;* --------------------------------------------------------------------------*
	.dwpsn	file "../driverlib/sysctl.c",line 1965,column 9,is_stmt,isa 1
;* --------------------------------------------------------------------------*
;*   BEGIN LOOP ||$C$L21||
;*
;*   Loop source line                : 1965
;*   Loop closing brace source line  : 1967
;*   Known Minimum Trip Count        : 1
;*   Known Maximum Trip Count        : 4294967295
;*   Known Max Trip Count Factor     : 1
;* --------------------------------------------------------------------------*
||$C$L21||:    
	.dwpsn	file "../driverlib/sysctl.c",line 1965,column 15,is_stmt,isa 1
        LDR       A1, $C$CON38          ; [DPU_V7M3_PIPE] |1965| 
        LDR       A1, [A1, #0]          ; [DPU_V7M3_PIPE] |1965| 
        TST       A1, #768              ; [DPU_V7M3_PIPE] |1965| 
        BEQ       ||$C$L21||            ; [DPU_V7M3_PIPE] |1965| 
        ; BRANCHCC OCCURS {||$C$L21||}   ; [] |1965| 
;* --------------------------------------------------------------------------*
	.dwpsn	file "../driverlib/sysctl.c",line 1972,column 9,is_stmt,isa 1
        LDR       A1, $C$CON38          ; [DPU_V7M3_PIPE] |1972| 
        LDR       A1, [A1, #0]          ; [DPU_V7M3_PIPE] |1972| 
        AND       A1, A1, #768          ; [DPU_V7M3_PIPE] |1972| 
        CMP       A1, #256              ; [DPU_V7M3_PIPE] |1972| 
        BEQ       ||$C$L22||            ; [DPU_V7M3_PIPE] |1972| 
        ; BRANCHCC OCCURS {||$C$L22||}   ; [] |1972| 
;* --------------------------------------------------------------------------*
	.dwpsn	file "../driverlib/sysctl.c",line 1975,column 13,is_stmt,isa 1
        MOVS      A1, #0                ; [DPU_V7M3_PIPE] |1975| 
        B         ||$C$L23||            ; [DPU_V7M3_PIPE] |1975| 
        ; BRANCH OCCURS {||$C$L23||}     ; [] |1975| 
;* --------------------------------------------------------------------------*
||$C$L22||:    
	.dwpsn	file "../driverlib/sysctl.c",line 1982,column 5,is_stmt,isa 1
        MOVS      A1, #1                ; [DPU_V7M3_PIPE] |1982| 
;* --------------------------------------------------------------------------*
||$C$L23||:    
	.dwpsn	file "../driverlib/sysctl.c",line 1983,column 1,is_stmt,isa 1
        ADD       SP, SP, #8            ; [DPU_V7M3_PIPE] 
	.dwcfi	cfa_offset, 0
$C$DW$154	.dwtag  DW_TAG_TI_branch
	.dwattr $C$DW$154, DW_AT_low_pc(0x00)
	.dwattr $C$DW$154, DW_AT_TI_return

        BX        LR                    ; [DPU_V7M3_PIPE] 
        ; BRANCH OCCURS                  ; [] 
	.dwattr $C$DW$151, DW_AT_TI_end_file("../driverlib/sysctl.c")
	.dwattr $C$DW$151, DW_AT_TI_end_line(0x7bf)
	.dwattr $C$DW$151, DW_AT_TI_end_column(0x01)
	.dwendentry
	.dwendtag $C$DW$151

	.sect	".text"
	.clink
	.thumbfunc SysCtlResetBehaviorSet
	.thumb
	.global	SysCtlResetBehaviorSet

$C$DW$155	.dwtag  DW_TAG_subprogram
	.dwattr $C$DW$155, DW_AT_name("SysCtlResetBehaviorSet")
	.dwattr $C$DW$155, DW_AT_low_pc(SysCtlResetBehaviorSet)
	.dwattr $C$DW$155, DW_AT_high_pc(0x00)
	.dwattr $C$DW$155, DW_AT_TI_symbol_name("SysCtlResetBehaviorSet")
	.dwattr $C$DW$155, DW_AT_external
	.dwattr $C$DW$155, DW_AT_TI_begin_file("../driverlib/sysctl.c")
	.dwattr $C$DW$155, DW_AT_TI_begin_line(0x7f3)
	.dwattr $C$DW$155, DW_AT_TI_begin_column(0x01)
	.dwattr $C$DW$155, DW_AT_decl_file("../driverlib/sysctl.c")
	.dwattr $C$DW$155, DW_AT_decl_line(0x7f3)
	.dwattr $C$DW$155, DW_AT_decl_column(0x01)
	.dwattr $C$DW$155, DW_AT_TI_max_frame_size(0x08)
	.dwpsn	file "../driverlib/sysctl.c",line 2036,column 1,is_stmt,address SysCtlResetBehaviorSet,isa 1

	.dwfde $C$DW$CIE, SysCtlResetBehaviorSet
$C$DW$156	.dwtag  DW_TAG_formal_parameter
	.dwattr $C$DW$156, DW_AT_name("ui32Behavior")
	.dwattr $C$DW$156, DW_AT_TI_symbol_name("ui32Behavior")
	.dwattr $C$DW$156, DW_AT_type(*$C$DW$T$22)
	.dwattr $C$DW$156, DW_AT_location[DW_OP_reg0]


;*****************************************************************************
;* FUNCTION NAME: SysCtlResetBehaviorSet                                     *
;*                                                                           *
;*   Regs Modified     : A1,A2,SP                                            *
;*   Regs Used         : A1,A2,SP,LR                                         *
;*   Local Frame Size  : 0 Args + 4 Auto + 0 Save = 4 byte                   *
;*****************************************************************************
SysCtlResetBehaviorSet:
;* --------------------------------------------------------------------------*
	.dwcfi	cfa_offset, 0
        SUB       SP, SP, #8            ; [DPU_V7M3_PIPE] 
	.dwcfi	cfa_offset, 8
$C$DW$157	.dwtag  DW_TAG_variable
	.dwattr $C$DW$157, DW_AT_name("ui32Behavior")
	.dwattr $C$DW$157, DW_AT_TI_symbol_name("ui32Behavior")
	.dwattr $C$DW$157, DW_AT_type(*$C$DW$T$22)
	.dwattr $C$DW$157, DW_AT_location[DW_OP_breg13 0]

        STR       A1, [SP, #0]          ; [DPU_V7M3_PIPE] |2036| 
	.dwpsn	file "../driverlib/sysctl.c",line 2037,column 5,is_stmt,isa 1
        LDR       A2, $C$CON39          ; [DPU_V7M3_PIPE] |2037| 
        LDR       A1, [SP, #0]          ; [DPU_V7M3_PIPE] |2037| 
        STR       A1, [A2, #0]          ; [DPU_V7M3_PIPE] |2037| 
	.dwpsn	file "../driverlib/sysctl.c",line 2038,column 1,is_stmt,isa 1
        ADD       SP, SP, #8            ; [DPU_V7M3_PIPE] 
	.dwcfi	cfa_offset, 0
$C$DW$158	.dwtag  DW_TAG_TI_branch
	.dwattr $C$DW$158, DW_AT_low_pc(0x00)
	.dwattr $C$DW$158, DW_AT_TI_return

        BX        LR                    ; [DPU_V7M3_PIPE] 
        ; BRANCH OCCURS                  ; [] 
	.dwattr $C$DW$155, DW_AT_TI_end_file("../driverlib/sysctl.c")
	.dwattr $C$DW$155, DW_AT_TI_end_line(0x7f6)
	.dwattr $C$DW$155, DW_AT_TI_end_column(0x01)
	.dwendentry
	.dwendtag $C$DW$155

	.sect	".text"
	.clink
	.thumbfunc SysCtlResetBehaviorGet
	.thumb
	.global	SysCtlResetBehaviorGet

$C$DW$159	.dwtag  DW_TAG_subprogram
	.dwattr $C$DW$159, DW_AT_name("SysCtlResetBehaviorGet")
	.dwattr $C$DW$159, DW_AT_low_pc(SysCtlResetBehaviorGet)
	.dwattr $C$DW$159, DW_AT_high_pc(0x00)
	.dwattr $C$DW$159, DW_AT_TI_symbol_name("SysCtlResetBehaviorGet")
	.dwattr $C$DW$159, DW_AT_external
	.dwattr $C$DW$159, DW_AT_type(*$C$DW$T$22)
	.dwattr $C$DW$159, DW_AT_TI_begin_file("../driverlib/sysctl.c")
	.dwattr $C$DW$159, DW_AT_TI_begin_line(0x807)
	.dwattr $C$DW$159, DW_AT_TI_begin_column(0x01)
	.dwattr $C$DW$159, DW_AT_decl_file("../driverlib/sysctl.c")
	.dwattr $C$DW$159, DW_AT_decl_line(0x807)
	.dwattr $C$DW$159, DW_AT_decl_column(0x01)
	.dwattr $C$DW$159, DW_AT_TI_max_frame_size(0x00)
	.dwpsn	file "../driverlib/sysctl.c",line 2056,column 1,is_stmt,address SysCtlResetBehaviorGet,isa 1

	.dwfde $C$DW$CIE, SysCtlResetBehaviorGet

;*****************************************************************************
;* FUNCTION NAME: SysCtlResetBehaviorGet                                     *
;*                                                                           *
;*   Regs Modified     : A1                                                  *
;*   Regs Used         : A1,LR                                               *
;*   Local Frame Size  : 0 Args + 0 Auto + 0 Save = 0 byte                   *
;*****************************************************************************
SysCtlResetBehaviorGet:
;* --------------------------------------------------------------------------*
	.dwcfi	cfa_offset, 0
	.dwpsn	file "../driverlib/sysctl.c",line 2057,column 5,is_stmt,isa 1
        LDR       A1, $C$CON39          ; [DPU_V7M3_PIPE] |2057| 
        LDR       A1, [A1, #0]          ; [DPU_V7M3_PIPE] |2057| 
	.dwpsn	file "../driverlib/sysctl.c",line 2058,column 1,is_stmt,isa 1
$C$DW$160	.dwtag  DW_TAG_TI_branch
	.dwattr $C$DW$160, DW_AT_low_pc(0x00)
	.dwattr $C$DW$160, DW_AT_TI_return

        BX        LR                    ; [DPU_V7M3_PIPE] 
        ; BRANCH OCCURS                  ; [] 
	.dwattr $C$DW$159, DW_AT_TI_end_file("../driverlib/sysctl.c")
	.dwattr $C$DW$159, DW_AT_TI_end_line(0x80a)
	.dwattr $C$DW$159, DW_AT_TI_end_column(0x01)
	.dwendentry
	.dwendtag $C$DW$159

;******************************************************************************
;* CONSTANT TABLE                                                             *
;******************************************************************************
	.sect	".text"
	.align	4
||$C$CON17||:	.bits		0x400fe700,32

	.align	4
||$C$CON18||:	.bits		0x400fe800,32

	.align	4
||$C$CON19||:	.bits		0x400fe060,32

	.align	4
||$C$CON20||:	.bits		0x400fe0b0,32

	.align	4
||$C$CON24||:	.bits		0x400fe054,32

	.align	4
||$C$CON25||:	.bits		0x400fe058,32

	.align	4
||$C$CON27||:	.bits		0x400fe1b4,32

	.align	4
||$C$CON28||:	.bits		0x400fe1bc,32

	.align	4
||$C$CON29||:	.bits		0x400fe188,32

	.align	4
||$C$CON30||:	.bits		0x400fe18c,32

	.align	4
||$C$CON31||:	.bits		0xe000ed0c,32

	.align	4
||$C$CON32||:	.bits		0x5fa0004,32

	.align	4
||$C$CON33||:	.bits		0xe000ed10,32

	.align	4
||$C$CON34||:	.bits		0x400fe05c,32

	.align	4
||$C$CON36||:	.bits		0x80000100,32

	.align	4
||$C$CON37||:	.bits		0x400fe150,32

	.align	4
||$C$CON38||:	.bits		0x400fe154,32

	.align	4
||$C$CON39||:	.bits		0x400fe1d8,32

	.sect	".text"
	.clink
	.thumbfunc SysCtlClockFreqSet
	.thumb
	.global	SysCtlClockFreqSet

$C$DW$161	.dwtag  DW_TAG_subprogram
	.dwattr $C$DW$161, DW_AT_name("SysCtlClockFreqSet")
	.dwattr $C$DW$161, DW_AT_low_pc(SysCtlClockFreqSet)
	.dwattr $C$DW$161, DW_AT_high_pc(0x00)
	.dwattr $C$DW$161, DW_AT_TI_symbol_name("SysCtlClockFreqSet")
	.dwattr $C$DW$161, DW_AT_external
	.dwattr $C$DW$161, DW_AT_type(*$C$DW$T$22)
	.dwattr $C$DW$161, DW_AT_TI_begin_file("../driverlib/sysctl.c")
	.dwattr $C$DW$161, DW_AT_TI_begin_line(0x84e)
	.dwattr $C$DW$161, DW_AT_TI_begin_column(0x01)
	.dwattr $C$DW$161, DW_AT_decl_file("../driverlib/sysctl.c")
	.dwattr $C$DW$161, DW_AT_decl_line(0x84e)
	.dwattr $C$DW$161, DW_AT_decl_column(0x01)
	.dwattr $C$DW$161, DW_AT_TI_max_frame_size(0x38)
	.dwpsn	file "../driverlib/sysctl.c",line 2127,column 1,is_stmt,address SysCtlClockFreqSet,isa 1

	.dwfde $C$DW$CIE, SysCtlClockFreqSet
$C$DW$162	.dwtag  DW_TAG_formal_parameter
	.dwattr $C$DW$162, DW_AT_name("ui32Config")
	.dwattr $C$DW$162, DW_AT_TI_symbol_name("ui32Config")
	.dwattr $C$DW$162, DW_AT_type(*$C$DW$T$22)
	.dwattr $C$DW$162, DW_AT_location[DW_OP_reg0]

$C$DW$163	.dwtag  DW_TAG_formal_parameter
	.dwattr $C$DW$163, DW_AT_name("ui32SysClock")
	.dwattr $C$DW$163, DW_AT_TI_symbol_name("ui32SysClock")
	.dwattr $C$DW$163, DW_AT_type(*$C$DW$T$22)
	.dwattr $C$DW$163, DW_AT_location[DW_OP_reg1]


;*****************************************************************************
;* FUNCTION NAME: SysCtlClockFreqSet                                         *
;*                                                                           *
;*   Regs Modified     : A1,A2,A3,A4,V1,V2,SP,LR,SR,FPEXC,FPSCR              *
;*   Regs Used         : A1,A2,A3,A4,V1,V2,SP,LR,SR,FPEXC,FPSCR              *
;*   Local Frame Size  : 0 Args + 44 Auto + 12 Save = 56 byte                *
;*****************************************************************************
SysCtlClockFreqSet:
;* --------------------------------------------------------------------------*
	.dwcfi	cfa_offset, 0
        PUSH      {V1, V2, LR}          ; [DPU_V7M3_PIPE] 
	.dwcfi	cfa_offset, 12
	.dwcfi	save_reg_to_mem, 14, -4
	.dwcfi	save_reg_to_mem, 5, -8
	.dwcfi	save_reg_to_mem, 4, -12
        SUB       SP, SP, #44           ; [DPU_V7M3_PIPE] 
	.dwcfi	cfa_offset, 56
$C$DW$164	.dwtag  DW_TAG_variable
	.dwattr $C$DW$164, DW_AT_name("ui32Config")
	.dwattr $C$DW$164, DW_AT_TI_symbol_name("ui32Config")
	.dwattr $C$DW$164, DW_AT_type(*$C$DW$T$22)
	.dwattr $C$DW$164, DW_AT_location[DW_OP_breg13 0]

$C$DW$165	.dwtag  DW_TAG_variable
	.dwattr $C$DW$165, DW_AT_name("ui32SysClock")
	.dwattr $C$DW$165, DW_AT_TI_symbol_name("ui32SysClock")
	.dwattr $C$DW$165, DW_AT_type(*$C$DW$T$22)
	.dwattr $C$DW$165, DW_AT_location[DW_OP_breg13 4]

$C$DW$166	.dwtag  DW_TAG_variable
	.dwattr $C$DW$166, DW_AT_name("i32Timeout")
	.dwattr $C$DW$166, DW_AT_TI_symbol_name("i32Timeout")
	.dwattr $C$DW$166, DW_AT_type(*$C$DW$T$90)
	.dwattr $C$DW$166, DW_AT_location[DW_OP_breg13 8]

$C$DW$167	.dwtag  DW_TAG_variable
	.dwattr $C$DW$167, DW_AT_name("i32VCOIdx")
	.dwattr $C$DW$167, DW_AT_TI_symbol_name("i32VCOIdx")
	.dwattr $C$DW$167, DW_AT_type(*$C$DW$T$90)
	.dwattr $C$DW$167, DW_AT_location[DW_OP_breg13 12]

$C$DW$168	.dwtag  DW_TAG_variable
	.dwattr $C$DW$168, DW_AT_name("i32XtalIdx")
	.dwattr $C$DW$168, DW_AT_TI_symbol_name("i32XtalIdx")
	.dwattr $C$DW$168, DW_AT_type(*$C$DW$T$90)
	.dwattr $C$DW$168, DW_AT_location[DW_OP_breg13 16]

$C$DW$169	.dwtag  DW_TAG_variable
	.dwattr $C$DW$169, DW_AT_name("ui32MOSCCTL")
	.dwattr $C$DW$169, DW_AT_TI_symbol_name("ui32MOSCCTL")
	.dwattr $C$DW$169, DW_AT_type(*$C$DW$T$22)
	.dwattr $C$DW$169, DW_AT_location[DW_OP_breg13 20]

$C$DW$170	.dwtag  DW_TAG_variable
	.dwattr $C$DW$170, DW_AT_name("ui32Delay")
	.dwattr $C$DW$170, DW_AT_TI_symbol_name("ui32Delay")
	.dwattr $C$DW$170, DW_AT_type(*$C$DW$T$22)
	.dwattr $C$DW$170, DW_AT_location[DW_OP_breg13 24]

$C$DW$171	.dwtag  DW_TAG_variable
	.dwattr $C$DW$171, DW_AT_name("ui32SysDiv")
	.dwattr $C$DW$171, DW_AT_TI_symbol_name("ui32SysDiv")
	.dwattr $C$DW$171, DW_AT_type(*$C$DW$T$22)
	.dwattr $C$DW$171, DW_AT_location[DW_OP_breg13 28]

$C$DW$172	.dwtag  DW_TAG_variable
	.dwattr $C$DW$172, DW_AT_name("ui32Osc")
	.dwattr $C$DW$172, DW_AT_TI_symbol_name("ui32Osc")
	.dwattr $C$DW$172, DW_AT_type(*$C$DW$T$22)
	.dwattr $C$DW$172, DW_AT_location[DW_OP_breg13 32]

$C$DW$173	.dwtag  DW_TAG_variable
	.dwattr $C$DW$173, DW_AT_name("ui32OscSelect")
	.dwattr $C$DW$173, DW_AT_TI_symbol_name("ui32OscSelect")
	.dwattr $C$DW$173, DW_AT_type(*$C$DW$T$22)
	.dwattr $C$DW$173, DW_AT_location[DW_OP_breg13 36]

$C$DW$174	.dwtag  DW_TAG_variable
	.dwattr $C$DW$174, DW_AT_name("ui32RSClkConfig")
	.dwattr $C$DW$174, DW_AT_TI_symbol_name("ui32RSClkConfig")
	.dwattr $C$DW$174, DW_AT_type(*$C$DW$T$22)
	.dwattr $C$DW$174, DW_AT_location[DW_OP_breg13 40]

        STR       A2, [SP, #4]          ; [DPU_V7M3_PIPE] |2127| 
        STR       A1, [SP, #0]          ; [DPU_V7M3_PIPE] |2127| 
	.dwpsn	file "../driverlib/sysctl.c",line 2136,column 5,is_stmt,isa 1
        LDR       A2, $C$CON21          ; [DPU_V7M3_PIPE] |2136| 
        LDR       A1, $C$CON22          ; [DPU_V7M3_PIPE] |2136| 
        LDR       A3, [A2, #0]          ; [DPU_V7M3_PIPE] |2136| 
        LDR       A2, $C$CON23          ; [DPU_V7M3_PIPE] |2136| 
        ANDS      A1, A1, A3            ; [DPU_V7M3_PIPE] |2136| 
        CMP       A2, A1                ; [DPU_V7M3_PIPE] |2136| 
        BNE       ||$C$L24||            ; [DPU_V7M3_PIPE] |2136| 
        ; BRANCHCC OCCURS {||$C$L24||}   ; [] |2136| 
;* --------------------------------------------------------------------------*
	.dwpsn	file "../driverlib/sysctl.c",line 2138,column 9,is_stmt,isa 1
        MOVS      A1, #0                ; [DPU_V7M3_PIPE] |2138| 
        B         ||$C$L47||            ; [DPU_V7M3_PIPE] |2138| 
        ; BRANCH OCCURS {||$C$L47||}     ; [] |2138| 
;* --------------------------------------------------------------------------*
||$C$L24||:    
	.dwpsn	file "../driverlib/sysctl.c",line 2144,column 5,is_stmt,isa 1
        LDR       A1, [SP, #0]          ; [DPU_V7M3_PIPE] |2144| 
        AND       A1, A1, #1984         ; [DPU_V7M3_PIPE] |2144| 
        LSRS      A1, A1, #6            ; [DPU_V7M3_PIPE] |2144| 
        STR       A1, [SP, #16]         ; [DPU_V7M3_PIPE] |2144| 
	.dwpsn	file "../driverlib/sysctl.c",line 2149,column 5,is_stmt,isa 1
        LDR       A1, [SP, #0]          ; [DPU_V7M3_PIPE] |2149| 
        AND       A1, A1, #56           ; [DPU_V7M3_PIPE] |2149| 
        CMP       A1, #16               ; [DPU_V7M3_PIPE] |2149| 
        BNE       ||$C$L25||            ; [DPU_V7M3_PIPE] |2149| 
        ; BRANCHCC OCCURS {||$C$L25||}   ; [] |2149| 
;* --------------------------------------------------------------------------*
	.dwpsn	file "../driverlib/sysctl.c",line 2155,column 9,is_stmt,isa 1
        LDR       A1, $C$CON40          ; [DPU_V7M3_PIPE] |2155| 
        STR       A1, [SP, #32]         ; [DPU_V7M3_PIPE] |2155| 
	.dwpsn	file "../driverlib/sysctl.c",line 2156,column 9,is_stmt,isa 1
        MOVS      A1, #0                ; [DPU_V7M3_PIPE] |2156| 
        STR       A1, [SP, #36]         ; [DPU_V7M3_PIPE] |2156| 
	.dwpsn	file "../driverlib/sysctl.c",line 2157,column 9,is_stmt,isa 1
        LDR       A1, [SP, #36]         ; [DPU_V7M3_PIPE] |2157| 
        STR       A1, [SP, #36]         ; [DPU_V7M3_PIPE] |2157| 
	.dwpsn	file "../driverlib/sysctl.c",line 2162,column 9,is_stmt,isa 1
        MOVS      A1, #21               ; [DPU_V7M3_PIPE] |2162| 
        STR       A1, [SP, #16]         ; [DPU_V7M3_PIPE] |2162| 
	.dwpsn	file "../driverlib/sysctl.c",line 2163,column 5,is_stmt,isa 1
        B         ||$C$L35||            ; [DPU_V7M3_PIPE] |2163| 
        ; BRANCH OCCURS {||$C$L35||}     ; [] |2163| 
;* --------------------------------------------------------------------------*
||$C$L25||:    
	.dwpsn	file "../driverlib/sysctl.c",line 2164,column 10,is_stmt,isa 1
        LDR       A1, [SP, #0]          ; [DPU_V7M3_PIPE] |2164| 
        AND       A1, A1, #56           ; [DPU_V7M3_PIPE] |2164| 
        CMP       A1, #48               ; [DPU_V7M3_PIPE] |2164| 
        BNE       ||$C$L26||            ; [DPU_V7M3_PIPE] |2164| 
        ; BRANCHCC OCCURS {||$C$L26||}   ; [] |2164| 
;* --------------------------------------------------------------------------*
	.dwpsn	file "../driverlib/sysctl.c",line 2169,column 9,is_stmt,isa 1
        MOV       A1, #30000            ; [DPU_V7M3_PIPE] |2169| 
        STR       A1, [SP, #32]         ; [DPU_V7M3_PIPE] |2169| 
	.dwpsn	file "../driverlib/sysctl.c",line 2170,column 9,is_stmt,isa 1
        MOV       A1, #2097152          ; [DPU_V7M3_PIPE] |2170| 
        STR       A1, [SP, #36]         ; [DPU_V7M3_PIPE] |2170| 
	.dwpsn	file "../driverlib/sysctl.c",line 2171,column 5,is_stmt,isa 1
        B         ||$C$L35||            ; [DPU_V7M3_PIPE] |2171| 
        ; BRANCH OCCURS {||$C$L35||}     ; [] |2171| 
;* --------------------------------------------------------------------------*
||$C$L26||:    
	.dwpsn	file "../driverlib/sysctl.c",line 2172,column 10,is_stmt,isa 1
        LDR       A1, [SP, #0]          ; [DPU_V7M3_PIPE] |2172| 
        AND       A1, A1, #56           ; [DPU_V7M3_PIPE] |2172| 
        CMP       A1, #56               ; [DPU_V7M3_PIPE] |2172| 
        BNE       ||$C$L27||            ; [DPU_V7M3_PIPE] |2172| 
        ; BRANCHCC OCCURS {||$C$L27||}   ; [] |2172| 
;* --------------------------------------------------------------------------*
	.dwpsn	file "../driverlib/sysctl.c",line 2177,column 9,is_stmt,isa 1
        MOV       A1, #32768            ; [DPU_V7M3_PIPE] |2177| 
        STR       A1, [SP, #32]         ; [DPU_V7M3_PIPE] |2177| 
	.dwpsn	file "../driverlib/sysctl.c",line 2178,column 9,is_stmt,isa 1
        MOV       A1, #4194304          ; [DPU_V7M3_PIPE] |2178| 
        STR       A1, [SP, #36]         ; [DPU_V7M3_PIPE] |2178| 
	.dwpsn	file "../driverlib/sysctl.c",line 2179,column 5,is_stmt,isa 1
        B         ||$C$L35||            ; [DPU_V7M3_PIPE] |2179| 
        ; BRANCH OCCURS {||$C$L35||}     ; [] |2179| 
;* --------------------------------------------------------------------------*
||$C$L27||:    
	.dwpsn	file "../driverlib/sysctl.c",line 2180,column 10,is_stmt,isa 1
        LDR       A1, [SP, #0]          ; [DPU_V7M3_PIPE] |2180| 
        TST       A1, #56               ; [DPU_V7M3_PIPE] |2180| 
        BNE       ||$C$L34||            ; [DPU_V7M3_PIPE] |2180| 
        ; BRANCHCC OCCURS {||$C$L34||}   ; [] |2180| 
;* --------------------------------------------------------------------------*
	.dwpsn	file "../driverlib/sysctl.c",line 2187,column 9,is_stmt,isa 1
        LDR       A1, [SP, #16]         ; [DPU_V7M3_PIPE] |2187| 
        CMP       A1, #26               ; [DPU_V7M3_PIPE] |2187| 
        BGT       ||$C$L28||            ; [DPU_V7M3_PIPE] |2187| 
        ; BRANCHCC OCCURS {||$C$L28||}   ; [] |2187| 
;* --------------------------------------------------------------------------*
        LDR       A1, [SP, #16]         ; [DPU_V7M3_PIPE] |2187| 
        CMP       A1, #9                ; [DPU_V7M3_PIPE] |2187| 
        BGE       ||$C$L29||            ; [DPU_V7M3_PIPE] |2187| 
        ; BRANCHCC OCCURS {||$C$L29||}   ; [] |2187| 
;* --------------------------------------------------------------------------*
||$C$L28||:    
	.dwpsn	file "../driverlib/sysctl.c",line 2190,column 13,is_stmt,isa 1
        MOVS      A1, #0                ; [DPU_V7M3_PIPE] |2190| 
        B         ||$C$L47||            ; [DPU_V7M3_PIPE] |2190| 
        ; BRANCH OCCURS {||$C$L47||}     ; [] |2190| 
;* --------------------------------------------------------------------------*
||$C$L29||:    
	.dwpsn	file "../driverlib/sysctl.c",line 2193,column 9,is_stmt,isa 1
        LDR       A1, [SP, #16]         ; [DPU_V7M3_PIPE] |2193| 
        LDR       A2, $C$CON41          ; [DPU_V7M3_PIPE] |2193| 
        LDR       A1, [A2, +A1, LSL #2] ; [DPU_V7M3_PIPE] |2193| 
        STR       A1, [SP, #32]         ; [DPU_V7M3_PIPE] |2193| 
	.dwpsn	file "../driverlib/sysctl.c",line 2198,column 9,is_stmt,isa 1
        MOV       A1, #3145728          ; [DPU_V7M3_PIPE] |2198| 
        STR       A1, [SP, #36]         ; [DPU_V7M3_PIPE] |2198| 
	.dwpsn	file "../driverlib/sysctl.c",line 2199,column 9,is_stmt,isa 1
        LDR       A1, [SP, #36]         ; [DPU_V7M3_PIPE] |2199| 
        ORR       A1, A1, #50331648     ; [DPU_V7M3_PIPE] |2199| 
        STR       A1, [SP, #36]         ; [DPU_V7M3_PIPE] |2199| 
	.dwpsn	file "../driverlib/sysctl.c",line 2205,column 9,is_stmt,isa 1
        LDR       A1, $C$CON35          ; [DPU_V7M3_PIPE] |2205| 
        LDR       A1, [A1, #0]          ; [DPU_V7M3_PIPE] |2205| 
        BIC       A1, A1, #28           ; [DPU_V7M3_PIPE] |2205| 
        STR       A1, [SP, #20]         ; [DPU_V7M3_PIPE] |2205| 
	.dwpsn	file "../driverlib/sysctl.c",line 2212,column 9,is_stmt,isa 1
        LDR       A1, [SP, #16]         ; [DPU_V7M3_PIPE] |2212| 
        CMP       A1, #7                ; [DPU_V7M3_PIPE] |2212| 
        BLT       ||$C$L30||            ; [DPU_V7M3_PIPE] |2212| 
        ; BRANCHCC OCCURS {||$C$L30||}   ; [] |2212| 
;* --------------------------------------------------------------------------*
	.dwpsn	file "../driverlib/sysctl.c",line 2215,column 13,is_stmt,isa 1
        LDR       A1, [SP, #20]         ; [DPU_V7M3_PIPE] |2215| 
        ORR       A1, A1, #16           ; [DPU_V7M3_PIPE] |2215| 
        STR       A1, [SP, #20]         ; [DPU_V7M3_PIPE] |2215| 
;* --------------------------------------------------------------------------*
||$C$L30||:    
	.dwpsn	file "../driverlib/sysctl.c",line 2218,column 9,is_stmt,isa 1
        LDR       A1, [SP, #20]         ; [DPU_V7M3_PIPE] |2218| 
        LDR       A2, $C$CON35          ; [DPU_V7M3_PIPE] |2218| 
        STR       A1, [A2, #0]          ; [DPU_V7M3_PIPE] |2218| 
	.dwpsn	file "../driverlib/sysctl.c",line 2223,column 9,is_stmt,isa 1
        MOV       A1, #524288           ; [DPU_V7M3_PIPE] |2223| 
        STR       A1, [SP, #24]         ; [DPU_V7M3_PIPE] |2223| 
	.dwpsn	file "../driverlib/sysctl.c",line 2225,column 9,is_stmt,isa 1
        B         ||$C$L32||            ; [DPU_V7M3_PIPE] |2225| 
        ; BRANCH OCCURS {||$C$L32||}     ; [] |2225| 
;******************************************************************************
;* CONSTANT TABLE                                                             *
;******************************************************************************
	.sect	".text"
	.align	4
||$C$CON21||:	.bits		0x400fe000,32

	.align	4
||$C$CON22||:	.bits		0x70ff0000,32

	.align	4
||$C$CON23||:	.bits		0x10050000,32

;* --------------------------------------------------------------------------*
||$C$L31||:    
	.dwpsn	file "../driverlib/sysctl.c",line 2227,column 13,is_stmt,isa 1
        LDR       A1, [SP, #24]         ; [DPU_V7M3_PIPE] |2227| 
        SUBS      A1, A1, #1            ; [DPU_V7M3_PIPE] |2227| 
        STR       A1, [SP, #24]         ; [DPU_V7M3_PIPE] |2227| 
	.dwpsn	file "../driverlib/sysctl.c",line 2229,column 13,is_stmt,isa 1
        LDR       A1, [SP, #24]         ; [DPU_V7M3_PIPE] |2229| 
        CBZ       A1, ||$C$L33||        ; [] 
        ; BRANCHCC OCCURS {||$C$L33||}   ; [] |2229| 
;* --------------------------------------------------------------------------*
	.dwpsn	file "../driverlib/sysctl.c",line 2231,column 17,is_stmt,isa 1
;* --------------------------------------------------------------------------*
;*   BEGIN LOOP ||$C$L32||
;* --------------------------------------------------------------------------*
||$C$L32||:    
	.dwpsn	file "../driverlib/sysctl.c",line 2225,column 15,is_stmt,isa 1
        LDR       A1, $C$CON26          ; [DPU_V7M3_PIPE] |2225| 
        LDR       A1, [A1, #0]          ; [DPU_V7M3_PIPE] |2225| 
        LSRS      A1, A1, #9            ; [DPU_V7M3_PIPE] |2225| 
        BCC       ||$C$L31||            ; [DPU_V7M3_PIPE] |2225| 
        ; BRANCHCC OCCURS {||$C$L31||}   ; [] |2225| 
;* --------------------------------------------------------------------------*
||$C$L33||:    
	.dwpsn	file "../driverlib/sysctl.c",line 2239,column 9,is_stmt,isa 1
        LDR       A1, [SP, #24]         ; [DPU_V7M3_PIPE] |2239| 
        CBNZ      A1, ||$C$L35||        ; [] 
        ; BRANCHCC OCCURS {||$C$L35||}   ; [] |2239| 
;* --------------------------------------------------------------------------*
	.dwpsn	file "../driverlib/sysctl.c",line 2241,column 13,is_stmt,isa 1
        MOVS      A1, #0                ; [DPU_V7M3_PIPE] |2241| 
        B         ||$C$L47||            ; [DPU_V7M3_PIPE] |2241| 
        ; BRANCH OCCURS {||$C$L47||}     ; [] |2241| 
;* --------------------------------------------------------------------------*
;* --------------------------------------------------------------------------*
||$C$L34||:    
	.dwpsn	file "../driverlib/sysctl.c",line 2252,column 9,is_stmt,isa 1
        MOVS      A1, #0                ; [DPU_V7M3_PIPE] |2252| 
        STR       A1, [SP, #32]         ; [DPU_V7M3_PIPE] |2252| 
	.dwpsn	file "../driverlib/sysctl.c",line 2253,column 9,is_stmt,isa 1
        MOVS      A1, #0                ; [DPU_V7M3_PIPE] |2253| 
        STR       A1, [SP, #36]         ; [DPU_V7M3_PIPE] |2253| 
;* --------------------------------------------------------------------------*
||$C$L35||:    
	.dwpsn	file "../driverlib/sysctl.c",line 2259,column 5,is_stmt,isa 1
        LDR       A1, [SP, #0]          ; [DPU_V7M3_PIPE] |2259| 
        TST       A1, #14336            ; [DPU_V7M3_PIPE] |2259| 
        BNE       ||$C$L42||            ; [DPU_V7M3_PIPE] |2259| 
        ; BRANCHCC OCCURS {||$C$L42||}   ; [] |2259| 
;* --------------------------------------------------------------------------*
	.dwpsn	file "../driverlib/sysctl.c",line 2264,column 9,is_stmt,isa 1
        LDR       A1, [SP, #0]          ; [DPU_V7M3_PIPE] |2264| 
        TST       A1, #56               ; [DPU_V7M3_PIPE] |2264| 
        BEQ       ||$C$L36||            ; [DPU_V7M3_PIPE] |2264| 
        ; BRANCHCC OCCURS {||$C$L36||}   ; [] |2264| 
;* --------------------------------------------------------------------------*
        LDR       A1, [SP, #0]          ; [DPU_V7M3_PIPE] |2264| 
        AND       A1, A1, #56           ; [DPU_V7M3_PIPE] |2264| 
        CMP       A1, #16               ; [DPU_V7M3_PIPE] |2264| 
        BEQ       ||$C$L36||            ; [DPU_V7M3_PIPE] |2264| 
        ; BRANCHCC OCCURS {||$C$L36||}   ; [] |2264| 
;* --------------------------------------------------------------------------*
	.dwpsn	file "../driverlib/sysctl.c",line 2267,column 13,is_stmt,isa 1
        MOVS      A1, #0                ; [DPU_V7M3_PIPE] |2267| 
        B         ||$C$L47||            ; [DPU_V7M3_PIPE] |2267| 
        ; BRANCH OCCURS {||$C$L47||}     ; [] |2267| 
;******************************************************************************
;* CONSTANT TABLE                                                             *
;******************************************************************************
	.sect	".text"
	.align	4
||$C$CON26||:	.bits		0x400fe050,32

;* --------------------------------------------------------------------------*
||$C$L36||:    
	.dwpsn	file "../driverlib/sysctl.c",line 2273,column 9,is_stmt,isa 1
        LDR       A1, [SP, #0]          ; [DPU_V7M3_PIPE] |2273| 
        UBFX      A1, A1, #24, #3       ; [DPU_V7M3_PIPE] |2273| 
        STR       A1, [SP, #12]         ; [DPU_V7M3_PIPE] |2273| 
	.dwpsn	file "../driverlib/sysctl.c",line 2285,column 9,is_stmt,isa 1
        LDR       A1, $C$CON43          ; [DPU_V7M3_PIPE] |2285| 
$C$DW$175	.dwtag  DW_TAG_TI_branch
	.dwattr $C$DW$175, DW_AT_low_pc(0x00)
	.dwattr $C$DW$175, DW_AT_name("_SysCtlMemTimingGet")
	.dwattr $C$DW$175, DW_AT_TI_call

        BL        _SysCtlMemTimingGet   ; [DPU_V7M3_PIPE] |2285| 
        ; CALL OCCURS {_SysCtlMemTimingGet }  ; [] |2285| 
        LDR       A2, $C$CON42          ; [DPU_V7M3_PIPE] |2285| 
        STR       A1, [A2, #0]          ; [DPU_V7M3_PIPE] |2285| 
	.dwpsn	file "../driverlib/sysctl.c",line 2290,column 9,is_stmt,isa 1
        LDR       A2, $C$CON50          ; [DPU_V7M3_PIPE] |2290| 
        LDR       A1, $C$CON44          ; [DPU_V7M3_PIPE] |2290| 
        LDR       A2, [A2, #0]          ; [DPU_V7M3_PIPE] |2290| 
        ANDS      A1, A1, A2            ; [DPU_V7M3_PIPE] |2290| 
        STR       A1, [SP, #40]         ; [DPU_V7M3_PIPE] |2290| 
	.dwpsn	file "../driverlib/sysctl.c",line 2298,column 9,is_stmt,isa 1
        LDR       A1, [SP, #40]         ; [DPU_V7M3_PIPE] |2298| 
        ORR       A1, A1, #-2147483648  ; [DPU_V7M3_PIPE] |2298| 
        STR       A1, [SP, #40]         ; [DPU_V7M3_PIPE] |2298| 
	.dwpsn	file "../driverlib/sysctl.c",line 2303,column 9,is_stmt,isa 1
        LDR       A2, $C$CON50          ; [DPU_V7M3_PIPE] |2303| 
        LDR       A1, [SP, #40]         ; [DPU_V7M3_PIPE] |2303| 
        STR       A1, [A2, #0]          ; [DPU_V7M3_PIPE] |2303| 
	.dwpsn	file "../driverlib/sysctl.c",line 2308,column 9,is_stmt,isa 1
        LDR       A1, [SP, #16]         ; [DPU_V7M3_PIPE] |2308| 
        SUBS      A1, A1, #9            ; [DPU_V7M3_PIPE] |2308| 
        STR       A1, [SP, #16]         ; [DPU_V7M3_PIPE] |2308| 
	.dwpsn	file "../driverlib/sysctl.c",line 2314,column 9,is_stmt,isa 1
        LDR       A3, $C$CON45          ; [DPU_V7M3_PIPE] |2314| 
        LDR       A1, [SP, #12]         ; [DPU_V7M3_PIPE] |2314| 
        LDR       A2, [SP, #4]          ; [DPU_V7M3_PIPE] |2314| 
        LDR       A1, [A3, +A1, LSL #2] ; [DPU_V7M3_PIPE] |2314| 
        LDR       A3, [SP, #4]          ; [DPU_V7M3_PIPE] |2314| 
        ADDS      A1, A1, A2            ; [DPU_V7M3_PIPE] |2314| 
        SUBS      A1, A1, #1            ; [DPU_V7M3_PIPE] |2314| 
        UDIV      A1, A1, A3            ; [DPU_V7M3_PIPE] |2314| 
        STR       A1, [SP, #28]         ; [DPU_V7M3_PIPE] |2314| 
	.dwpsn	file "../driverlib/sysctl.c",line 2320,column 9,is_stmt,isa 1
        LDR       A2, $C$CON50          ; [DPU_V7M3_PIPE] |2320| 
        LDR       A1, [SP, #36]         ; [DPU_V7M3_PIPE] |2320| 
        LDR       A3, [A2, #0]          ; [DPU_V7M3_PIPE] |2320| 
        ORRS      A1, A1, A3            ; [DPU_V7M3_PIPE] |2320| 
        STR       A1, [A2, #0]          ; [DPU_V7M3_PIPE] |2320| 
	.dwpsn	file "../driverlib/sysctl.c",line 2326,column 9,is_stmt,isa 1
        LDR       V2, $C$CON46          ; [DPU_V7M3_PIPE] |2326| 
        LDR       V1, [SP, #12]         ; [DPU_V7M3_PIPE] |2326| 
        LDR       A4, [SP, #16]         ; [DPU_V7M3_PIPE] |2326| 
        LDR       A2, $C$CON51          ; [DPU_V7M3_PIPE] |2326| 
        MOVS      A3, #216              ; [DPU_V7M3_PIPE] |2326| 
        LSLS      A1, A4, #2            ; [DPU_V7M3_PIPE] |2326| 
        MLA       A3, A3, V1, V2        ; [DPU_V7M3_PIPE] |2326| 
        ADD       A1, A1, A4, LSL #3    ; [DPU_V7M3_PIPE] |2326| 
        ADDS      A1, A1, A3            ; [DPU_V7M3_PIPE] |2326| 
        LDR       A1, [A1, #4]          ; [DPU_V7M3_PIPE] |2326| 
        STR       A1, [A2, #0]          ; [DPU_V7M3_PIPE] |2326| 
	.dwpsn	file "../driverlib/sysctl.c",line 2328,column 9,is_stmt,isa 1
        LDR       A3, $C$CON51          ; [DPU_V7M3_PIPE] |2328| 
        LDR       A1, [SP, #28]         ; [DPU_V7M3_PIPE] |2328| 
        LDR       A2, [A3, #0]          ; [DPU_V7M3_PIPE] |2328| 
        SUBS      A1, A1, #1            ; [DPU_V7M3_PIPE] |2328| 
        ORR       A2, A2, A1, LSL #8    ; [DPU_V7M3_PIPE] |2328| 
        STR       A2, [A3, #0]          ; [DPU_V7M3_PIPE] |2328| 
	.dwpsn	file "../driverlib/sysctl.c",line 2329,column 9,is_stmt,isa 1
        LDR       V2, $C$CON46          ; [DPU_V7M3_PIPE] |2329| 
        LDR       A2, $C$CON52          ; [DPU_V7M3_PIPE] |2329| 
        LDR       V1, [SP, #12]         ; [DPU_V7M3_PIPE] |2329| 
        LDR       A4, [SP, #16]         ; [DPU_V7M3_PIPE] |2329| 
        MOVS      A3, #216              ; [DPU_V7M3_PIPE] |2329| 
        LSLS      A1, A4, #2            ; [DPU_V7M3_PIPE] |2329| 
        MLA       A3, A3, V1, V2        ; [DPU_V7M3_PIPE] |2329| 
        ADD       A1, A1, A4, LSL #3    ; [DPU_V7M3_PIPE] |2329| 
        LDR       A2, [A2, #0]          ; [DPU_V7M3_PIPE] |2329| 
        LDR       A3, [A1, +A3]         ; [DPU_V7M3_PIPE] |2329| 
        LDR       A1, $C$CON52          ; [DPU_V7M3_PIPE] |2329| 
        AND       A2, A2, #8388608      ; [DPU_V7M3_PIPE] |2329| 
        ORRS      A2, A2, A3            ; [DPU_V7M3_PIPE] |2329| 
        STR       A2, [A1, #0]          ; [DPU_V7M3_PIPE] |2329| 
	.dwpsn	file "../driverlib/sysctl.c",line 2336,column 9,is_stmt,isa 1
        LDR       A1, [SP, #32]         ; [DPU_V7M3_PIPE] |2336| 
$C$DW$176	.dwtag  DW_TAG_TI_branch
	.dwattr $C$DW$176, DW_AT_low_pc(0x00)
	.dwattr $C$DW$176, DW_AT_name("_SysCtlFrequencyGet")
	.dwattr $C$DW$176, DW_AT_TI_call

        BL        _SysCtlFrequencyGet   ; [DPU_V7M3_PIPE] |2336| 
        ; CALL OCCURS {_SysCtlFrequencyGet }  ; [] |2336| 
        LSRS      A1, A1, #1            ; [DPU_V7M3_PIPE] |2336| 
        STR       A1, [SP, #4]          ; [DPU_V7M3_PIPE] |2336| 
	.dwpsn	file "../driverlib/sysctl.c",line 2341,column 9,is_stmt,isa 1
        LDR       A1, [SP, #4]          ; [DPU_V7M3_PIPE] |2341| 
$C$DW$177	.dwtag  DW_TAG_TI_branch
	.dwattr $C$DW$177, DW_AT_low_pc(0x00)
	.dwattr $C$DW$177, DW_AT_name("_SysCtlMemTimingGet")
	.dwattr $C$DW$177, DW_AT_TI_call

        BL        _SysCtlMemTimingGet   ; [DPU_V7M3_PIPE] |2341| 
        ; CALL OCCURS {_SysCtlMemTimingGet }  ; [] |2341| 
        LDR       A2, $C$CON42          ; [DPU_V7M3_PIPE] |2341| 
        STR       A1, [A2, #0]          ; [DPU_V7M3_PIPE] |2341| 
	.dwpsn	file "../driverlib/sysctl.c",line 2346,column 9,is_stmt,isa 1
        LDR       A1, $C$CON52          ; [DPU_V7M3_PIPE] |2346| 
        LDR       A1, [A1, #0]          ; [DPU_V7M3_PIPE] |2346| 
        LSRS      A1, A1, #24           ; [DPU_V7M3_PIPE] |2346| 
        BCC       ||$C$L37||            ; [DPU_V7M3_PIPE] |2346| 
        ; BRANCHCC OCCURS {||$C$L37||}   ; [] |2346| 
;* --------------------------------------------------------------------------*
	.dwpsn	file "../driverlib/sysctl.c",line 2351,column 13,is_stmt,isa 1
        LDR       A2, $C$CON50          ; [DPU_V7M3_PIPE] |2351| 
        LDR       A1, [A2, #0]          ; [DPU_V7M3_PIPE] |2351| 
        ORR       A1, A1, #1073741824   ; [DPU_V7M3_PIPE] |2351| 
        STR       A1, [A2, #0]          ; [DPU_V7M3_PIPE] |2351| 
	.dwpsn	file "../driverlib/sysctl.c",line 2352,column 9,is_stmt,isa 1
        B         ||$C$L38||            ; [DPU_V7M3_PIPE] |2352| 
        ; BRANCH OCCURS {||$C$L38||}     ; [] |2352| 
;******************************************************************************
;* CONSTANT TABLE                                                             *
;******************************************************************************
	.sect	".text"
	.align	4
||$C$CON35||:	.bits		0x400fe07c,32

;* --------------------------------------------------------------------------*
||$C$L37||:    
	.dwpsn	file "../driverlib/sysctl.c",line 2358,column 13,is_stmt,isa 1
        LDR       A2, $C$CON52          ; [DPU_V7M3_PIPE] |2358| 
        LDR       A1, [A2, #0]          ; [DPU_V7M3_PIPE] |2358| 
        ORR       A1, A1, #8388608      ; [DPU_V7M3_PIPE] |2358| 
        STR       A1, [A2, #0]          ; [DPU_V7M3_PIPE] |2358| 
;* --------------------------------------------------------------------------*
||$C$L38||:    
	.dwpsn	file "../driverlib/sysctl.c",line 2364,column 13,is_stmt,isa 1
        MOV       A1, #32768            ; [DPU_V7M3_PIPE] |2364| 
        STR       A1, [SP, #8]          ; [DPU_V7M3_PIPE] |2364| 
	.dwpsn	file "../driverlib/sysctl.c",line 2364,column 33,is_stmt,isa 1
        LDR       A1, [SP, #8]          ; [DPU_V7M3_PIPE] |2364| 
        CMP       A1, #0                ; [DPU_V7M3_PIPE] |2364| 
        BLE       ||$C$L40||            ; [DPU_V7M3_PIPE] |2364| 
        ; BRANCHCC OCCURS {||$C$L40||}   ; [] |2364| 
;* --------------------------------------------------------------------------*
;*   BEGIN LOOP ||$C$L39||
;*
;*   Loop source line                : 2364
;*   Loop closing brace source line  : 2370
;*   Known Minimum Trip Count        : 1
;*   Known Maximum Trip Count        : 4294967295
;*   Known Max Trip Count Factor     : 1
;* --------------------------------------------------------------------------*
||$C$L39||:    
	.dwpsn	file "../driverlib/sysctl.c",line 2366,column 13,is_stmt,isa 1
        LDR       A1, $C$CON47          ; [DPU_V7M3_PIPE] |2366| 
        LDR       A1, [A1, #0]          ; [DPU_V7M3_PIPE] |2366| 
        LSRS      A1, A1, #1            ; [DPU_V7M3_PIPE] |2366| 
        BCS       ||$C$L40||            ; [DPU_V7M3_PIPE] |2366| 
        ; BRANCHCC OCCURS {||$C$L40||}   ; [] |2366| 
;* --------------------------------------------------------------------------*
	.dwpsn	file "../driverlib/sysctl.c",line 2368,column 17,is_stmt,isa 1
	.dwpsn	file "../driverlib/sysctl.c",line 2364,column 49,is_stmt,isa 1
        LDR       A1, [SP, #8]          ; [DPU_V7M3_PIPE] |2364| 
        SUBS      A1, A1, #1            ; [DPU_V7M3_PIPE] |2364| 
        STR       A1, [SP, #8]          ; [DPU_V7M3_PIPE] |2364| 
	.dwpsn	file "../driverlib/sysctl.c",line 2364,column 33,is_stmt,isa 1
        LDR       A1, [SP, #8]          ; [DPU_V7M3_PIPE] |2364| 
        CMP       A1, #0                ; [DPU_V7M3_PIPE] |2364| 
        BGT       ||$C$L39||            ; [DPU_V7M3_PIPE] |2364| 
        ; BRANCHCC OCCURS {||$C$L39||}   ; [] |2364| 
;* --------------------------------------------------------------------------*
||$C$L40||:    
	.dwpsn	file "../driverlib/sysctl.c",line 2375,column 9,is_stmt,isa 1
        LDR       A1, [SP, #8]          ; [DPU_V7M3_PIPE] |2375| 
        CBZ       A1, ||$C$L41||        ; [] 
        ; BRANCHCC OCCURS {||$C$L41||}   ; [] |2375| 
;* --------------------------------------------------------------------------*
	.dwpsn	file "../driverlib/sysctl.c",line 2377,column 13,is_stmt,isa 1
        LDR       A1, $C$CON50          ; [DPU_V7M3_PIPE] |2377| 
        LDR       A1, [A1, #0]          ; [DPU_V7M3_PIPE] |2377| 
        STR       A1, [SP, #40]         ; [DPU_V7M3_PIPE] |2377| 
	.dwpsn	file "../driverlib/sysctl.c",line 2378,column 13,is_stmt,isa 1
        LDR       A2, $C$CON48          ; [DPU_V7M3_PIPE] |2378| 
        LDR       A3, [SP, #40]         ; [DPU_V7M3_PIPE] |2378| 
        LDR       A1, [SP, #36]         ; [DPU_V7M3_PIPE] |2378| 
        ORRS      A1, A1, A3            ; [DPU_V7M3_PIPE] |2378| 
        ORRS      A2, A2, A1            ; [DPU_V7M3_PIPE] |2378| 
        STR       A2, [SP, #40]         ; [DPU_V7M3_PIPE] |2378| 
	.dwpsn	file "../driverlib/sysctl.c",line 2380,column 13,is_stmt,isa 1
        LDR       A1, [SP, #40]         ; [DPU_V7M3_PIPE] |2380| 
        ORR       A1, A1, #-2147483648  ; [DPU_V7M3_PIPE] |2380| 
        STR       A1, [SP, #40]         ; [DPU_V7M3_PIPE] |2380| 
	.dwpsn	file "../driverlib/sysctl.c",line 2385,column 13,is_stmt,isa 1
        LDR       A2, $C$CON50          ; [DPU_V7M3_PIPE] |2385| 
        LDR       A1, [SP, #40]         ; [DPU_V7M3_PIPE] |2385| 
        STR       A1, [A2, #0]          ; [DPU_V7M3_PIPE] |2385| 
	.dwpsn	file "../driverlib/sysctl.c",line 2386,column 9,is_stmt,isa 1
        B         ||$C$L46||            ; [DPU_V7M3_PIPE] |2386| 
        ; BRANCH OCCURS {||$C$L46||}     ; [] |2386| 
;* --------------------------------------------------------------------------*
||$C$L41||:    
	.dwpsn	file "../driverlib/sysctl.c",line 2389,column 13,is_stmt,isa 1
        MOVS      A1, #0                ; [DPU_V7M3_PIPE] |2389| 
        STR       A1, [SP, #4]          ; [DPU_V7M3_PIPE] |2389| 
	.dwpsn	file "../driverlib/sysctl.c",line 2391,column 5,is_stmt,isa 1
        B         ||$C$L46||            ; [DPU_V7M3_PIPE] |2391| 
        ; BRANCH OCCURS {||$C$L46||}     ; [] |2391| 
;* --------------------------------------------------------------------------*
||$C$L42||:    
	.dwpsn	file "../driverlib/sysctl.c",line 2397,column 9,is_stmt,isa 1
        LDR       A1, $C$CON40          ; [DPU_V7M3_PIPE] |2397| 
$C$DW$178	.dwtag  DW_TAG_TI_branch
	.dwattr $C$DW$178, DW_AT_low_pc(0x00)
	.dwattr $C$DW$178, DW_AT_name("_SysCtlMemTimingGet")
	.dwattr $C$DW$178, DW_AT_TI_call

        BL        _SysCtlMemTimingGet   ; [DPU_V7M3_PIPE] |2397| 
        ; CALL OCCURS {_SysCtlMemTimingGet }  ; [] |2397| 
        LDR       A2, $C$CON42          ; [DPU_V7M3_PIPE] |2397| 
        STR       A1, [A2, #0]          ; [DPU_V7M3_PIPE] |2397| 
	.dwpsn	file "../driverlib/sysctl.c",line 2402,column 9,is_stmt,isa 1
        LDR       A2, $C$CON52          ; [DPU_V7M3_PIPE] |2402| 
        LDR       A1, [A2, #0]          ; [DPU_V7M3_PIPE] |2402| 
        BIC       A1, A1, #8388608      ; [DPU_V7M3_PIPE] |2402| 
        STR       A1, [A2, #0]          ; [DPU_V7M3_PIPE] |2402| 
	.dwpsn	file "../driverlib/sysctl.c",line 2407,column 9,is_stmt,isa 1
        LDR       A1, $C$CON50          ; [DPU_V7M3_PIPE] |2407| 
        LDR       A1, [A1, #0]          ; [DPU_V7M3_PIPE] |2407| 
        STR       A1, [SP, #40]         ; [DPU_V7M3_PIPE] |2407| 
	.dwpsn	file "../driverlib/sysctl.c",line 2408,column 9,is_stmt,isa 1
        LDR       A1, $C$CON49          ; [DPU_V7M3_PIPE] |2408| 
        LDR       A2, [SP, #40]         ; [DPU_V7M3_PIPE] |2408| 
        ANDS      A1, A1, A2            ; [DPU_V7M3_PIPE] |2408| 
        STR       A1, [SP, #40]         ; [DPU_V7M3_PIPE] |2408| 
	.dwpsn	file "../driverlib/sysctl.c",line 2415,column 9,is_stmt,isa 1
        LDR       A1, [SP, #40]         ; [DPU_V7M3_PIPE] |2415| 
        ORR       A1, A1, #-2147483648  ; [DPU_V7M3_PIPE] |2415| 
        STR       A1, [SP, #40]         ; [DPU_V7M3_PIPE] |2415| 
	.dwpsn	file "../driverlib/sysctl.c",line 2420,column 9,is_stmt,isa 1
        LDR       A2, $C$CON50          ; [DPU_V7M3_PIPE] |2420| 
        LDR       A1, [SP, #40]         ; [DPU_V7M3_PIPE] |2420| 
        STR       A1, [A2, #0]          ; [DPU_V7M3_PIPE] |2420| 
	.dwpsn	file "../driverlib/sysctl.c",line 2425,column 9,is_stmt,isa 1
        LDR       A1, [SP, #4]          ; [DPU_V7M3_PIPE] |2425| 
        CBNZ      A1, ||$C$L43||        ; [] 
        ; BRANCHCC OCCURS {||$C$L43||}   ; [] |2425| 
;* --------------------------------------------------------------------------*
	.dwpsn	file "../driverlib/sysctl.c",line 2427,column 13,is_stmt,isa 1
        MOVS      A1, #0                ; [DPU_V7M3_PIPE] |2427| 
        STR       A1, [SP, #28]         ; [DPU_V7M3_PIPE] |2427| 
	.dwpsn	file "../driverlib/sysctl.c",line 2428,column 9,is_stmt,isa 1
        B         ||$C$L45||            ; [DPU_V7M3_PIPE] |2428| 
        ; BRANCH OCCURS {||$C$L45||}     ; [] |2428| 
;* --------------------------------------------------------------------------*
||$C$L43||:    
	.dwpsn	file "../driverlib/sysctl.c",line 2435,column 13,is_stmt,isa 1
        LDR       A1, [SP, #4]          ; [DPU_V7M3_PIPE] |2435| 
        LDR       A2, [SP, #32]         ; [DPU_V7M3_PIPE] |2435| 
        UDIV      A1, A2, A1            ; [DPU_V7M3_PIPE] |2435| 
        STR       A1, [SP, #28]         ; [DPU_V7M3_PIPE] |2435| 
	.dwpsn	file "../driverlib/sysctl.c",line 2442,column 13,is_stmt,isa 1
        LDR       A1, [SP, #28]         ; [DPU_V7M3_PIPE] |2442| 
        CBZ       A1, ||$C$L44||        ; [] 
        ; BRANCHCC OCCURS {||$C$L44||}   ; [] |2442| 
;* --------------------------------------------------------------------------*
	.dwpsn	file "../driverlib/sysctl.c",line 2444,column 17,is_stmt,isa 1
        LDR       A1, [SP, #28]         ; [DPU_V7M3_PIPE] |2444| 
        SUBS      A1, A1, #1            ; [DPU_V7M3_PIPE] |2444| 
        STR       A1, [SP, #28]         ; [DPU_V7M3_PIPE] |2444| 
;* --------------------------------------------------------------------------*
||$C$L44||:    
	.dwpsn	file "../driverlib/sysctl.c",line 2450,column 13,is_stmt,isa 1
        LDR       A1, [SP, #28]         ; [DPU_V7M3_PIPE] |2450| 
        LDR       A2, [SP, #32]         ; [DPU_V7M3_PIPE] |2450| 
        ADDS      A1, A1, #1            ; [DPU_V7M3_PIPE] |2450| 
        UDIV      A1, A2, A1            ; [DPU_V7M3_PIPE] |2450| 
        STR       A1, [SP, #4]          ; [DPU_V7M3_PIPE] |2450| 
;* --------------------------------------------------------------------------*
||$C$L45||:    
	.dwpsn	file "../driverlib/sysctl.c",line 2456,column 9,is_stmt,isa 1
        LDR       A1, [SP, #4]          ; [DPU_V7M3_PIPE] |2456| 
$C$DW$179	.dwtag  DW_TAG_TI_branch
	.dwattr $C$DW$179, DW_AT_low_pc(0x00)
	.dwattr $C$DW$179, DW_AT_name("_SysCtlMemTimingGet")
	.dwattr $C$DW$179, DW_AT_TI_call

        BL        _SysCtlMemTimingGet   ; [DPU_V7M3_PIPE] |2456| 
        ; CALL OCCURS {_SysCtlMemTimingGet }  ; [] |2456| 
        LDR       A2, $C$CON42          ; [DPU_V7M3_PIPE] |2456| 
        STR       A1, [A2, #0]          ; [DPU_V7M3_PIPE] |2456| 
	.dwpsn	file "../driverlib/sysctl.c",line 2461,column 9,is_stmt,isa 1
        LDR       A1, $C$CON50          ; [DPU_V7M3_PIPE] |2461| 
        LDR       A1, [A1, #0]          ; [DPU_V7M3_PIPE] |2461| 
        STR       A1, [SP, #40]         ; [DPU_V7M3_PIPE] |2461| 
	.dwpsn	file "../driverlib/sysctl.c",line 2462,column 9,is_stmt,isa 1
        LDR       A3, [SP, #28]         ; [DPU_V7M3_PIPE] |2462| 
        LDR       A2, [SP, #36]         ; [DPU_V7M3_PIPE] |2462| 
        LDR       A1, [SP, #40]         ; [DPU_V7M3_PIPE] |2462| 
        ORR       A1, A1, A3, LSL #10   ; [DPU_V7M3_PIPE] |2462| 
        ORRS      A2, A2, A1            ; [DPU_V7M3_PIPE] |2462| 
        STR       A2, [SP, #40]         ; [DPU_V7M3_PIPE] |2462| 
	.dwpsn	file "../driverlib/sysctl.c",line 2468,column 9,is_stmt,isa 1
        LDR       A1, [SP, #40]         ; [DPU_V7M3_PIPE] |2468| 
        ORR       A1, A1, #-2147483648  ; [DPU_V7M3_PIPE] |2468| 
        STR       A1, [SP, #40]         ; [DPU_V7M3_PIPE] |2468| 
	.dwpsn	file "../driverlib/sysctl.c",line 2473,column 9,is_stmt,isa 1
        LDR       A2, $C$CON50          ; [DPU_V7M3_PIPE] |2473| 
        LDR       A1, [SP, #40]         ; [DPU_V7M3_PIPE] |2473| 
        STR       A1, [A2, #0]          ; [DPU_V7M3_PIPE] |2473| 
;* --------------------------------------------------------------------------*
||$C$L46||:    
	.dwpsn	file "../driverlib/sysctl.c",line 2479,column 5,is_stmt,isa 1
        LDR       A2, $C$CON50          ; [DPU_V7M3_PIPE] |2479| 
        LDR       A1, [A2, #0]          ; [DPU_V7M3_PIPE] |2479| 
        BIC       A1, A1, #15728640     ; [DPU_V7M3_PIPE] |2479| 
        STR       A1, [A2, #0]          ; [DPU_V7M3_PIPE] |2479| 
	.dwpsn	file "../driverlib/sysctl.c",line 2481,column 5,is_stmt,isa 1
        LDR       A1, [SP, #4]          ; [DPU_V7M3_PIPE] |2481| 
;* --------------------------------------------------------------------------*
||$C$L47||:    
	.dwpsn	file "../driverlib/sysctl.c",line 2482,column 1,is_stmt,isa 1
        ADD       SP, SP, #44           ; [DPU_V7M3_PIPE] 
	.dwcfi	cfa_offset, 12
$C$DW$180	.dwtag  DW_TAG_TI_branch
	.dwattr $C$DW$180, DW_AT_low_pc(0x00)
	.dwattr $C$DW$180, DW_AT_TI_return

        POP       {V1, V2, PC}          ; [DPU_V7M3_PIPE] 
	.dwcfi	cfa_offset, 0
	.dwcfi	restore_reg, 5
	.dwcfi	restore_reg, 4
        ; BRANCH OCCURS                  ; [] 
	.dwattr $C$DW$161, DW_AT_TI_end_file("../driverlib/sysctl.c")
	.dwattr $C$DW$161, DW_AT_TI_end_line(0x9b2)
	.dwattr $C$DW$161, DW_AT_TI_end_column(0x01)
	.dwendentry
	.dwendtag $C$DW$161

;******************************************************************************
;* CONSTANT TABLE                                                             *
;******************************************************************************
	.sect	".text"
	.align	4
||$C$CON40||:	.bits		0xf42400,32

	.align	4
||$C$CON41||:	.bits	g_pui32Xtals,32
	.align	4
||$C$CON42||:	.bits		0x400fe0c0,32

	.align	4
||$C$CON43||:	.bits		0x17d7840,32

	.align	4
||$C$CON44||:	.bits		0xe00ffc00,32

	.align	4
||$C$CON45||:	.bits	g_pui32VCOFrequencies,32
	.align	4
||$C$CON46||:	.bits	g_pppui32XTALtoVCO,32
	.align	4
||$C$CON50||:	.bits		0x400fe0b0,32

	.align	4
||$C$CON51||:	.bits		0x400fe164,32

	.align	4
||$C$CON52||:	.bits		0x400fe160,32

	.sect	".text"
	.clink
	.thumbfunc SysCtlClockSet
	.thumb
	.global	SysCtlClockSet

$C$DW$181	.dwtag  DW_TAG_subprogram
	.dwattr $C$DW$181, DW_AT_name("SysCtlClockSet")
	.dwattr $C$DW$181, DW_AT_low_pc(SysCtlClockSet)
	.dwattr $C$DW$181, DW_AT_high_pc(0x00)
	.dwattr $C$DW$181, DW_AT_TI_symbol_name("SysCtlClockSet")
	.dwattr $C$DW$181, DW_AT_external
	.dwattr $C$DW$181, DW_AT_TI_begin_file("../driverlib/sysctl.c")
	.dwattr $C$DW$181, DW_AT_TI_begin_line(0x9f4)
	.dwattr $C$DW$181, DW_AT_TI_begin_column(0x01)
	.dwattr $C$DW$181, DW_AT_decl_file("../driverlib/sysctl.c")
	.dwattr $C$DW$181, DW_AT_decl_line(0x9f4)
	.dwattr $C$DW$181, DW_AT_decl_column(0x01)
	.dwattr $C$DW$181, DW_AT_TI_max_frame_size(0x18)
	.dwpsn	file "../driverlib/sysctl.c",line 2549,column 1,is_stmt,address SysCtlClockSet,isa 1

	.dwfde $C$DW$CIE, SysCtlClockSet
$C$DW$182	.dwtag  DW_TAG_formal_parameter
	.dwattr $C$DW$182, DW_AT_name("ui32Config")
	.dwattr $C$DW$182, DW_AT_TI_symbol_name("ui32Config")
	.dwattr $C$DW$182, DW_AT_type(*$C$DW$T$22)
	.dwattr $C$DW$182, DW_AT_location[DW_OP_reg0]


;*****************************************************************************
;* FUNCTION NAME: SysCtlClockSet                                             *
;*                                                                           *
;*   Regs Modified     : A1,A2,A3,A4,V9,SP,LR,SR,D0,D0_hi,D1,D1_hi,D2,D2_hi, *
;*                           D3,D3_hi,D4,D4_hi,D5,D5_hi,D6,D6_hi,D7,D7_hi,   *
;*                           FPEXC,FPSCR                                     *
;*   Regs Used         : A1,A2,A3,A4,V9,SP,LR,SR,D0,D0_hi,D1,D1_hi,D2,D2_hi, *
;*                           D3,D3_hi,D4,D4_hi,D5,D5_hi,D6,D6_hi,D7,D7_hi,   *
;*                           FPEXC,FPSCR                                     *
;*   Local Frame Size  : 0 Args + 16 Auto + 4 Save = 20 byte                 *
;*****************************************************************************
SysCtlClockSet:
;* --------------------------------------------------------------------------*
	.dwcfi	cfa_offset, 0
        PUSH      {LR}                  ; [DPU_V7M3_PIPE] 
	.dwcfi	cfa_offset, 4
	.dwcfi	save_reg_to_mem, 14, -4
        SUB       SP, SP, #20           ; [DPU_V7M3_PIPE] 
	.dwcfi	cfa_offset, 24
$C$DW$183	.dwtag  DW_TAG_variable
	.dwattr $C$DW$183, DW_AT_name("ui32Config")
	.dwattr $C$DW$183, DW_AT_TI_symbol_name("ui32Config")
	.dwattr $C$DW$183, DW_AT_type(*$C$DW$T$22)
	.dwattr $C$DW$183, DW_AT_location[DW_OP_breg13 0]

$C$DW$184	.dwtag  DW_TAG_variable
	.dwattr $C$DW$184, DW_AT_name("ui32Delay")
	.dwattr $C$DW$184, DW_AT_TI_symbol_name("ui32Delay")
	.dwattr $C$DW$184, DW_AT_type(*$C$DW$T$22)
	.dwattr $C$DW$184, DW_AT_location[DW_OP_breg13 4]

$C$DW$185	.dwtag  DW_TAG_variable
	.dwattr $C$DW$185, DW_AT_name("ui32RCC")
	.dwattr $C$DW$185, DW_AT_TI_symbol_name("ui32RCC")
	.dwattr $C$DW$185, DW_AT_type(*$C$DW$T$22)
	.dwattr $C$DW$185, DW_AT_location[DW_OP_breg13 8]

$C$DW$186	.dwtag  DW_TAG_variable
	.dwattr $C$DW$186, DW_AT_name("ui32RCC2")
	.dwattr $C$DW$186, DW_AT_TI_symbol_name("ui32RCC2")
	.dwattr $C$DW$186, DW_AT_type(*$C$DW$T$22)
	.dwattr $C$DW$186, DW_AT_location[DW_OP_breg13 12]

        STR       A1, [SP, #0]          ; [DPU_V7M3_PIPE] |2549| 
	.dwpsn	file "../driverlib/sysctl.c",line 2555,column 5,is_stmt,isa 1
        LDR       A1, $C$CON59          ; [DPU_V7M3_PIPE] |2555| 
        LDR       A1, [A1, #0]          ; [DPU_V7M3_PIPE] |2555| 
        STR       A1, [SP, #8]          ; [DPU_V7M3_PIPE] |2555| 
	.dwpsn	file "../driverlib/sysctl.c",line 2556,column 5,is_stmt,isa 1
        LDR       A1, $C$CON53          ; [DPU_V7M3_PIPE] |2556| 
        LDR       A1, [A1, #0]          ; [DPU_V7M3_PIPE] |2556| 
        STR       A1, [SP, #12]         ; [DPU_V7M3_PIPE] |2556| 
	.dwpsn	file "../driverlib/sysctl.c",line 2561,column 5,is_stmt,isa 1
        LDR       A1, [SP, #8]          ; [DPU_V7M3_PIPE] |2561| 
        ORR       A1, A1, #2048         ; [DPU_V7M3_PIPE] |2561| 
        STR       A1, [SP, #8]          ; [DPU_V7M3_PIPE] |2561| 
	.dwpsn	file "../driverlib/sysctl.c",line 2562,column 5,is_stmt,isa 1
        LDR       A1, [SP, #8]          ; [DPU_V7M3_PIPE] |2562| 
        BIC       A1, A1, #4194304      ; [DPU_V7M3_PIPE] |2562| 
        STR       A1, [SP, #8]          ; [DPU_V7M3_PIPE] |2562| 
	.dwpsn	file "../driverlib/sysctl.c",line 2563,column 5,is_stmt,isa 1
        LDR       A1, [SP, #12]         ; [DPU_V7M3_PIPE] |2563| 
        ORR       A1, A1, #2048         ; [DPU_V7M3_PIPE] |2563| 
        STR       A1, [SP, #12]         ; [DPU_V7M3_PIPE] |2563| 
	.dwpsn	file "../driverlib/sysctl.c",line 2568,column 5,is_stmt,isa 1
        LDR       A2, $C$CON59          ; [DPU_V7M3_PIPE] |2568| 
        LDR       A1, [SP, #8]          ; [DPU_V7M3_PIPE] |2568| 
        STR       A1, [A2, #0]          ; [DPU_V7M3_PIPE] |2568| 
	.dwpsn	file "../driverlib/sysctl.c",line 2569,column 5,is_stmt,isa 1
        LDR       A2, $C$CON53          ; [DPU_V7M3_PIPE] |2569| 
        LDR       A1, [SP, #12]         ; [DPU_V7M3_PIPE] |2569| 
        STR       A1, [A2, #0]          ; [DPU_V7M3_PIPE] |2569| 
	.dwpsn	file "../driverlib/sysctl.c",line 2574,column 5,is_stmt,isa 1
        LDR       A1, [SP, #8]          ; [DPU_V7M3_PIPE] |2574| 
        LSRS      A1, A1, #1            ; [DPU_V7M3_PIPE] |2574| 
        BCC       ||$C$L51||            ; [DPU_V7M3_PIPE] |2574| 
        ; BRANCHCC OCCURS {||$C$L51||}   ; [] |2574| 
;* --------------------------------------------------------------------------*
        LDR       A1, [SP, #0]          ; [DPU_V7M3_PIPE] |2574| 
        LSRS      A1, A1, #1            ; [DPU_V7M3_PIPE] |2574| 
        BCS       ||$C$L51||            ; [DPU_V7M3_PIPE] |2574| 
        ; BRANCHCC OCCURS {||$C$L51||}   ; [] |2574| 
;* --------------------------------------------------------------------------*
	.dwpsn	file "../driverlib/sysctl.c",line 2581,column 9,is_stmt,isa 1
        LDR       A1, [SP, #0]          ; [DPU_V7M3_PIPE] |2581| 
        LDR       A3, [SP, #8]          ; [DPU_V7M3_PIPE] |2581| 
        MVN       A2, #1                ; [DPU_V7M3_PIPE] |2581| 
        AND       A1, A1, #1            ; [DPU_V7M3_PIPE] |2581| 
        ORRS      A2, A2, A1            ; [DPU_V7M3_PIPE] |2581| 
        ANDS      A2, A2, A3            ; [DPU_V7M3_PIPE] |2581| 
        STR       A2, [SP, #8]          ; [DPU_V7M3_PIPE] |2581| 
	.dwpsn	file "../driverlib/sysctl.c",line 2587,column 9,is_stmt,isa 1
        LDR       A2, $C$CON60          ; [DPU_V7M3_PIPE] |2587| 
        MOV       A1, #256              ; [DPU_V7M3_PIPE] |2587| 
        STR       A1, [A2, #0]          ; [DPU_V7M3_PIPE] |2587| 
	.dwpsn	file "../driverlib/sysctl.c",line 2592,column 9,is_stmt,isa 1
        LDR       A2, $C$CON59          ; [DPU_V7M3_PIPE] |2592| 
        LDR       A1, [SP, #8]          ; [DPU_V7M3_PIPE] |2592| 
        STR       A1, [A2, #0]          ; [DPU_V7M3_PIPE] |2592| 
	.dwpsn	file "../driverlib/sysctl.c",line 2597,column 9,is_stmt,isa 1
        MOV       A1, #524288           ; [DPU_V7M3_PIPE] |2597| 
        STR       A1, [SP, #4]          ; [DPU_V7M3_PIPE] |2597| 
	.dwpsn	file "../driverlib/sysctl.c",line 2599,column 9,is_stmt,isa 1
        B         ||$C$L49||            ; [DPU_V7M3_PIPE] |2599| 
        ; BRANCH OCCURS {||$C$L49||}     ; [] |2599| 
;* --------------------------------------------------------------------------*
||$C$L48||:    
	.dwpsn	file "../driverlib/sysctl.c",line 2601,column 13,is_stmt,isa 1
        LDR       A1, [SP, #4]          ; [DPU_V7M3_PIPE] |2601| 
        SUBS      A1, A1, #1            ; [DPU_V7M3_PIPE] |2601| 
        STR       A1, [SP, #4]          ; [DPU_V7M3_PIPE] |2601| 
	.dwpsn	file "../driverlib/sysctl.c",line 2603,column 13,is_stmt,isa 1
        LDR       A1, [SP, #4]          ; [DPU_V7M3_PIPE] |2603| 
        CBZ       A1, ||$C$L50||        ; [] 
        ; BRANCHCC OCCURS {||$C$L50||}   ; [] |2603| 
;* --------------------------------------------------------------------------*
	.dwpsn	file "../driverlib/sysctl.c",line 2605,column 17,is_stmt,isa 1
;* --------------------------------------------------------------------------*
;*   BEGIN LOOP ||$C$L49||
;* --------------------------------------------------------------------------*
||$C$L49||:    
	.dwpsn	file "../driverlib/sysctl.c",line 2599,column 15,is_stmt,isa 1
        LDR       A1, $C$CON61          ; [DPU_V7M3_PIPE] |2599| 
        LDR       A1, [A1, #0]          ; [DPU_V7M3_PIPE] |2599| 
        LSRS      A1, A1, #9            ; [DPU_V7M3_PIPE] |2599| 
        BCC       ||$C$L48||            ; [DPU_V7M3_PIPE] |2599| 
        ; BRANCHCC OCCURS {||$C$L48||}   ; [] |2599| 
;* --------------------------------------------------------------------------*
||$C$L50||:    
	.dwpsn	file "../driverlib/sysctl.c",line 2613,column 9,is_stmt,isa 1
        LDR       A1, [SP, #4]          ; [DPU_V7M3_PIPE] |2613| 
        CMP       A1, #0                ; [DPU_V7M3_PIPE] |2613| 
        BEQ       ||$C$L59||            ; [DPU_V7M3_PIPE] |2613| 
        ; BRANCHCC OCCURS {||$C$L59||}   ; [] |2613| 
;* --------------------------------------------------------------------------*
	.dwpsn	file "../driverlib/sysctl.c",line 2615,column 13,is_stmt,isa 1
;* --------------------------------------------------------------------------*
||$C$L51||:    
	.dwpsn	file "../driverlib/sysctl.c",line 2625,column 5,is_stmt,isa 1
        LDR       A1, [SP, #8]          ; [DPU_V7M3_PIPE] |2625| 
        BIC       A1, A1, #2032         ; [DPU_V7M3_PIPE] |2625| 
        STR       A1, [SP, #8]          ; [DPU_V7M3_PIPE] |2625| 
	.dwpsn	file "../driverlib/sysctl.c",line 2626,column 5,is_stmt,isa 1
        LDR       A1, [SP, #0]          ; [DPU_V7M3_PIPE] |2626| 
        LDR       A2, [SP, #8]          ; [DPU_V7M3_PIPE] |2626| 
        AND       A1, A1, #2032         ; [DPU_V7M3_PIPE] |2626| 
        ORRS      A1, A1, A2            ; [DPU_V7M3_PIPE] |2626| 
        STR       A1, [SP, #8]          ; [DPU_V7M3_PIPE] |2626| 
	.dwpsn	file "../driverlib/sysctl.c",line 2627,column 5,is_stmt,isa 1
        LDR       A1, $C$CON54          ; [DPU_V7M3_PIPE] |2627| 
        LDR       A2, [SP, #12]         ; [DPU_V7M3_PIPE] |2627| 
        ANDS      A1, A1, A2            ; [DPU_V7M3_PIPE] |2627| 
        STR       A1, [SP, #12]         ; [DPU_V7M3_PIPE] |2627| 
	.dwpsn	file "../driverlib/sysctl.c",line 2628,column 5,is_stmt,isa 1
        LDR       A3, [SP, #0]          ; [DPU_V7M3_PIPE] |2628| 
        LDR       A1, $C$CON55          ; [DPU_V7M3_PIPE] |2628| 
        LDR       A2, [SP, #12]         ; [DPU_V7M3_PIPE] |2628| 
        ANDS      A1, A1, A3            ; [DPU_V7M3_PIPE] |2628| 
        ORRS      A1, A1, A2            ; [DPU_V7M3_PIPE] |2628| 
        STR       A1, [SP, #12]         ; [DPU_V7M3_PIPE] |2628| 
	.dwpsn	file "../driverlib/sysctl.c",line 2629,column 5,is_stmt,isa 1
        LDR       A1, [SP, #0]          ; [DPU_V7M3_PIPE] |2629| 
        LDR       A2, [SP, #12]         ; [DPU_V7M3_PIPE] |2629| 
        AND       A1, A1, #8            ; [DPU_V7M3_PIPE] |2629| 
        ORR       A2, A2, A1, LSL #3    ; [DPU_V7M3_PIPE] |2629| 
        STR       A2, [SP, #12]         ; [DPU_V7M3_PIPE] |2629| 
	.dwpsn	file "../driverlib/sysctl.c",line 2634,column 5,is_stmt,isa 1
        LDR       A2, $C$CON59          ; [DPU_V7M3_PIPE] |2634| 
        LDR       A1, [SP, #8]          ; [DPU_V7M3_PIPE] |2634| 
        STR       A1, [A2, #0]          ; [DPU_V7M3_PIPE] |2634| 
	.dwpsn	file "../driverlib/sysctl.c",line 2635,column 5,is_stmt,isa 1
        LDR       A2, $C$CON53          ; [DPU_V7M3_PIPE] |2635| 
        LDR       A1, [SP, #12]         ; [DPU_V7M3_PIPE] |2635| 
        STR       A1, [A2, #0]          ; [DPU_V7M3_PIPE] |2635| 
	.dwpsn	file "../driverlib/sysctl.c",line 2640,column 5,is_stmt,isa 1
        LDR       A1, [SP, #8]          ; [DPU_V7M3_PIPE] |2640| 
        BIC       A1, A1, #8192         ; [DPU_V7M3_PIPE] |2640| 
        STR       A1, [SP, #8]          ; [DPU_V7M3_PIPE] |2640| 
	.dwpsn	file "../driverlib/sysctl.c",line 2641,column 5,is_stmt,isa 1
        LDR       A1, [SP, #0]          ; [DPU_V7M3_PIPE] |2641| 
        LDR       A2, [SP, #8]          ; [DPU_V7M3_PIPE] |2641| 
        AND       A1, A1, #8192         ; [DPU_V7M3_PIPE] |2641| 
        ORRS      A1, A1, A2            ; [DPU_V7M3_PIPE] |2641| 
        STR       A1, [SP, #8]          ; [DPU_V7M3_PIPE] |2641| 
	.dwpsn	file "../driverlib/sysctl.c",line 2642,column 5,is_stmt,isa 1
        LDR       A1, [SP, #12]         ; [DPU_V7M3_PIPE] |2642| 
        BIC       A1, A1, #8192         ; [DPU_V7M3_PIPE] |2642| 
        STR       A1, [SP, #12]         ; [DPU_V7M3_PIPE] |2642| 
	.dwpsn	file "../driverlib/sysctl.c",line 2643,column 5,is_stmt,isa 1
        LDR       A1, [SP, #0]          ; [DPU_V7M3_PIPE] |2643| 
        LDR       A2, [SP, #12]         ; [DPU_V7M3_PIPE] |2643| 
        AND       A1, A1, #8192         ; [DPU_V7M3_PIPE] |2643| 
        ORRS      A1, A1, A2            ; [DPU_V7M3_PIPE] |2643| 
        STR       A1, [SP, #12]         ; [DPU_V7M3_PIPE] |2643| 
	.dwpsn	file "../driverlib/sysctl.c",line 2648,column 5,is_stmt,isa 1
        LDR       A2, $C$CON60          ; [DPU_V7M3_PIPE] |2648| 
        MOVS      A1, #64               ; [DPU_V7M3_PIPE] |2648| 
        STR       A1, [A2, #0]          ; [DPU_V7M3_PIPE] |2648| 
	.dwpsn	file "../driverlib/sysctl.c",line 2653,column 5,is_stmt,isa 1
        LDR       A1, [SP, #12]         ; [DPU_V7M3_PIPE] |2653| 
        LSRS      A1, A1, #32           ; [DPU_V7M3_PIPE] |2653| 
        BCC       ||$C$L52||            ; [DPU_V7M3_PIPE] |2653| 
        ; BRANCHCC OCCURS {||$C$L52||}   ; [] |2653| 
;* --------------------------------------------------------------------------*
	.dwpsn	file "../driverlib/sysctl.c",line 2655,column 9,is_stmt,isa 1
        LDR       A1, [SP, #12]         ; [DPU_V7M3_PIPE] |2655| 
        LDR       A2, $C$CON53          ; [DPU_V7M3_PIPE] |2655| 
        STR       A1, [A2, #0]          ; [DPU_V7M3_PIPE] |2655| 
	.dwpsn	file "../driverlib/sysctl.c",line 2656,column 9,is_stmt,isa 1
        LDR       A2, $C$CON59          ; [DPU_V7M3_PIPE] |2656| 
        LDR       A1, [SP, #8]          ; [DPU_V7M3_PIPE] |2656| 
        STR       A1, [A2, #0]          ; [DPU_V7M3_PIPE] |2656| 
	.dwpsn	file "../driverlib/sysctl.c",line 2657,column 5,is_stmt,isa 1
        B         ||$C$L53||            ; [DPU_V7M3_PIPE] |2657| 
        ; BRANCH OCCURS {||$C$L53||}     ; [] |2657| 
;* --------------------------------------------------------------------------*
||$C$L52||:    
	.dwpsn	file "../driverlib/sysctl.c",line 2660,column 9,is_stmt,isa 1
        LDR       A1, [SP, #8]          ; [DPU_V7M3_PIPE] |2660| 
        LDR       A2, $C$CON59          ; [DPU_V7M3_PIPE] |2660| 
        STR       A1, [A2, #0]          ; [DPU_V7M3_PIPE] |2660| 
	.dwpsn	file "../driverlib/sysctl.c",line 2661,column 9,is_stmt,isa 1
        LDR       A2, $C$CON53          ; [DPU_V7M3_PIPE] |2661| 
        LDR       A1, [SP, #12]         ; [DPU_V7M3_PIPE] |2661| 
        STR       A1, [A2, #0]          ; [DPU_V7M3_PIPE] |2661| 
;* --------------------------------------------------------------------------*
||$C$L53||:    
	.dwpsn	file "../driverlib/sysctl.c",line 2668,column 5,is_stmt,isa 1
        LDR       A2, [SP, #8]          ; [DPU_V7M3_PIPE] |2668| 
        LDR       A1, $C$CON56          ; [DPU_V7M3_PIPE] |2668| 
        ANDS      A1, A1, A2            ; [DPU_V7M3_PIPE] |2668| 
        STR       A1, [SP, #8]          ; [DPU_V7M3_PIPE] |2668| 
	.dwpsn	file "../driverlib/sysctl.c",line 2670,column 5,is_stmt,isa 1
        LDR       A3, [SP, #0]          ; [DPU_V7M3_PIPE] |2670| 
        LDR       A1, $C$CON57          ; [DPU_V7M3_PIPE] |2670| 
        LDR       A2, [SP, #8]          ; [DPU_V7M3_PIPE] |2670| 
        ANDS      A1, A1, A3            ; [DPU_V7M3_PIPE] |2670| 
        ORRS      A1, A1, A2            ; [DPU_V7M3_PIPE] |2670| 
        STR       A1, [SP, #8]          ; [DPU_V7M3_PIPE] |2670| 
	.dwpsn	file "../driverlib/sysctl.c",line 2672,column 5,is_stmt,isa 1
        LDR       A1, [SP, #12]         ; [DPU_V7M3_PIPE] |2672| 
        BIC       A1, A1, #528482304    ; [DPU_V7M3_PIPE] |2672| 
        STR       A1, [SP, #12]         ; [DPU_V7M3_PIPE] |2672| 
	.dwpsn	file "../driverlib/sysctl.c",line 2673,column 5,is_stmt,isa 1
        LDR       A1, [SP, #0]          ; [DPU_V7M3_PIPE] |2673| 
        LDR       A2, [SP, #12]         ; [DPU_V7M3_PIPE] |2673| 
        AND       A1, A1, #528482304    ; [DPU_V7M3_PIPE] |2673| 
        ORRS      A1, A1, A2            ; [DPU_V7M3_PIPE] |2673| 
        STR       A1, [SP, #12]         ; [DPU_V7M3_PIPE] |2673| 
	.dwpsn	file "../driverlib/sysctl.c",line 2674,column 5,is_stmt,isa 1
        LDR       A1, [SP, #0]          ; [DPU_V7M3_PIPE] |2674| 
        LSRS      A1, A1, #31           ; [DPU_V7M3_PIPE] |2674| 
        BCC       ||$C$L54||            ; [DPU_V7M3_PIPE] |2674| 
        ; BRANCHCC OCCURS {||$C$L54||}   ; [] |2674| 
;* --------------------------------------------------------------------------*
	.dwpsn	file "../driverlib/sysctl.c",line 2676,column 9,is_stmt,isa 1
        LDR       A1, [SP, #8]          ; [DPU_V7M3_PIPE] |2676| 
        ORR       A1, A1, #4194304      ; [DPU_V7M3_PIPE] |2676| 
        STR       A1, [SP, #8]          ; [DPU_V7M3_PIPE] |2676| 
	.dwpsn	file "../driverlib/sysctl.c",line 2677,column 9,is_stmt,isa 1
        LDR       A1, [SP, #12]         ; [DPU_V7M3_PIPE] |2677| 
        BIC       A1, A1, #4194304      ; [DPU_V7M3_PIPE] |2677| 
        STR       A1, [SP, #12]         ; [DPU_V7M3_PIPE] |2677| 
	.dwpsn	file "../driverlib/sysctl.c",line 2678,column 9,is_stmt,isa 1
        LDR       A3, [SP, #0]          ; [DPU_V7M3_PIPE] |2678| 
        LDR       A1, $C$CON58          ; [DPU_V7M3_PIPE] |2678| 
        LDR       A2, [SP, #12]         ; [DPU_V7M3_PIPE] |2678| 
        ANDS      A1, A1, A3            ; [DPU_V7M3_PIPE] |2678| 
        ORRS      A1, A1, A2            ; [DPU_V7M3_PIPE] |2678| 
        STR       A1, [SP, #12]         ; [DPU_V7M3_PIPE] |2678| 
	.dwpsn	file "../driverlib/sysctl.c",line 2679,column 5,is_stmt,isa 1
        B         ||$C$L55||            ; [DPU_V7M3_PIPE] |2679| 
        ; BRANCH OCCURS {||$C$L55||}     ; [] |2679| 
;* --------------------------------------------------------------------------*
||$C$L54||:    
	.dwpsn	file "../driverlib/sysctl.c",line 2682,column 9,is_stmt,isa 1
        LDR       A1, [SP, #12]         ; [DPU_V7M3_PIPE] |2682| 
        BIC       A1, A1, #1073741824   ; [DPU_V7M3_PIPE] |2682| 
        STR       A1, [SP, #12]         ; [DPU_V7M3_PIPE] |2682| 
;* --------------------------------------------------------------------------*
||$C$L55||:    
	.dwpsn	file "../driverlib/sysctl.c",line 2688,column 5,is_stmt,isa 1
        LDR       A1, [SP, #0]          ; [DPU_V7M3_PIPE] |2688| 
        LSRS      A1, A1, #12           ; [DPU_V7M3_PIPE] |2688| 
        BCS       ||$C$L58||            ; [DPU_V7M3_PIPE] |2688| 
        ; BRANCHCC OCCURS {||$C$L58||}   ; [] |2688| 
;* --------------------------------------------------------------------------*
	.dwpsn	file "../driverlib/sysctl.c",line 2693,column 13,is_stmt,isa 1
        MOV       A1, #32768            ; [DPU_V7M3_PIPE] |2693| 
        STR       A1, [SP, #4]          ; [DPU_V7M3_PIPE] |2693| 
	.dwpsn	file "../driverlib/sysctl.c",line 2693,column 32,is_stmt,isa 1
        LDR       A1, [SP, #4]          ; [DPU_V7M3_PIPE] |2693| 
        CBZ       A1, ||$C$L57||        ; [] 
        ; BRANCHCC OCCURS {||$C$L57||}   ; [] |2693| 
;* --------------------------------------------------------------------------*
;*   BEGIN LOOP ||$C$L56||
;*
;*   Loop source line                : 2693
;*   Loop closing brace source line  : 2699
;*   Known Minimum Trip Count        : 1
;*   Known Maximum Trip Count        : 4294967295
;*   Known Max Trip Count Factor     : 1
;* --------------------------------------------------------------------------*
||$C$L56||:    
	.dwpsn	file "../driverlib/sysctl.c",line 2695,column 13,is_stmt,isa 1
        LDR       A1, $C$CON47          ; [DPU_V7M3_PIPE] |2695| 
        LDR       A1, [A1, #0]          ; [DPU_V7M3_PIPE] |2695| 
        LSRS      A1, A1, #1            ; [DPU_V7M3_PIPE] |2695| 
        BCS       ||$C$L57||            ; [DPU_V7M3_PIPE] |2695| 
        ; BRANCHCC OCCURS {||$C$L57||}   ; [] |2695| 
;* --------------------------------------------------------------------------*
	.dwpsn	file "../driverlib/sysctl.c",line 2697,column 17,is_stmt,isa 1
	.dwpsn	file "../driverlib/sysctl.c",line 2693,column 47,is_stmt,isa 1
        LDR       A1, [SP, #4]          ; [DPU_V7M3_PIPE] |2693| 
        SUBS      A1, A1, #1            ; [DPU_V7M3_PIPE] |2693| 
        STR       A1, [SP, #4]          ; [DPU_V7M3_PIPE] |2693| 
	.dwpsn	file "../driverlib/sysctl.c",line 2693,column 32,is_stmt,isa 1
        LDR       A1, [SP, #4]          ; [DPU_V7M3_PIPE] |2693| 
        CMP       A1, #0                ; [DPU_V7M3_PIPE] |2693| 
        BNE       ||$C$L56||            ; [DPU_V7M3_PIPE] |2693| 
        ; BRANCHCC OCCURS {||$C$L56||}   ; [] |2693| 
;* --------------------------------------------------------------------------*
||$C$L57||:    
	.dwpsn	file "../driverlib/sysctl.c",line 2704,column 9,is_stmt,isa 1
        LDR       A1, [SP, #8]          ; [DPU_V7M3_PIPE] |2704| 
        BIC       A1, A1, #2048         ; [DPU_V7M3_PIPE] |2704| 
        STR       A1, [SP, #8]          ; [DPU_V7M3_PIPE] |2704| 
	.dwpsn	file "../driverlib/sysctl.c",line 2705,column 9,is_stmt,isa 1
        LDR       A1, [SP, #12]         ; [DPU_V7M3_PIPE] |2705| 
        BIC       A1, A1, #2048         ; [DPU_V7M3_PIPE] |2705| 
        STR       A1, [SP, #12]         ; [DPU_V7M3_PIPE] |2705| 
;* --------------------------------------------------------------------------*
||$C$L58||:    
	.dwpsn	file "../driverlib/sysctl.c",line 2711,column 5,is_stmt,isa 1
        LDR       A1, [SP, #8]          ; [DPU_V7M3_PIPE] |2711| 
        LDR       A2, $C$CON59          ; [DPU_V7M3_PIPE] |2711| 
        STR       A1, [A2, #0]          ; [DPU_V7M3_PIPE] |2711| 
	.dwpsn	file "../driverlib/sysctl.c",line 2712,column 5,is_stmt,isa 1
        LDR       A2, $C$CON53          ; [DPU_V7M3_PIPE] |2712| 
        LDR       A1, [SP, #12]         ; [DPU_V7M3_PIPE] |2712| 
        STR       A1, [A2, #0]          ; [DPU_V7M3_PIPE] |2712| 
	.dwpsn	file "../driverlib/sysctl.c",line 2717,column 5,is_stmt,isa 1
        MOVS      A1, #16               ; [DPU_V7M3_PIPE] |2717| 
$C$DW$187	.dwtag  DW_TAG_TI_branch
	.dwattr $C$DW$187, DW_AT_low_pc(0x00)
	.dwattr $C$DW$187, DW_AT_name("SysCtlDelay")
	.dwattr $C$DW$187, DW_AT_TI_call

        BL        SysCtlDelay           ; [DPU_V7M3_PIPE] |2717| 
        ; CALL OCCURS {SysCtlDelay }     ; [] |2717| 
	.dwpsn	file "../driverlib/sysctl.c",line 2718,column 1,is_stmt,isa 1
;* --------------------------------------------------------------------------*
||$C$L59||:    
        ADD       SP, SP, #20           ; [DPU_V7M3_PIPE] 
	.dwcfi	cfa_offset, 4
$C$DW$188	.dwtag  DW_TAG_TI_branch
	.dwattr $C$DW$188, DW_AT_low_pc(0x00)
	.dwattr $C$DW$188, DW_AT_TI_return

        POP       {PC}                  ; [DPU_V7M3_PIPE] 
	.dwcfi	cfa_offset, 0
        ; BRANCH OCCURS                  ; [] 
	.dwattr $C$DW$181, DW_AT_TI_end_file("../driverlib/sysctl.c")
	.dwattr $C$DW$181, DW_AT_TI_end_line(0xa9e)
	.dwattr $C$DW$181, DW_AT_TI_end_column(0x01)
	.dwendentry
	.dwendtag $C$DW$181

;******************************************************************************
;* CONSTANT TABLE                                                             *
;******************************************************************************
	.sect	".text"
	.align	4
||$C$CON47||:	.bits		0x400fe168,32

	.align	4
||$C$CON48||:	.bits		0x10000001,32

	.align	4
||$C$CON49||:	.bits		0xef0003ff,32

	.align	4
||$C$CON54||:	.bits		0x7fffff8f,32

	.align	4
||$C$CON55||:	.bits		0x80000030,32

	.align	4
||$C$CON60||:	.bits		0x400fe058,32

	.align	4
||$C$CON61||:	.bits		0x400fe050,32

	.sect	".text"
	.clink
	.thumbfunc SysCtlClockGet
	.thumb
	.global	SysCtlClockGet

$C$DW$189	.dwtag  DW_TAG_subprogram
	.dwattr $C$DW$189, DW_AT_name("SysCtlClockGet")
	.dwattr $C$DW$189, DW_AT_low_pc(SysCtlClockGet)
	.dwattr $C$DW$189, DW_AT_high_pc(0x00)
	.dwattr $C$DW$189, DW_AT_TI_symbol_name("SysCtlClockGet")
	.dwattr $C$DW$189, DW_AT_external
	.dwattr $C$DW$189, DW_AT_type(*$C$DW$T$22)
	.dwattr $C$DW$189, DW_AT_TI_begin_file("../driverlib/sysctl.c")
	.dwattr $C$DW$189, DW_AT_TI_begin_line(0xab7)
	.dwattr $C$DW$189, DW_AT_TI_begin_column(0x01)
	.dwattr $C$DW$189, DW_AT_decl_file("../driverlib/sysctl.c")
	.dwattr $C$DW$189, DW_AT_decl_line(0xab7)
	.dwattr $C$DW$189, DW_AT_decl_column(0x01)
	.dwattr $C$DW$189, DW_AT_TI_max_frame_size(0x18)
	.dwpsn	file "../driverlib/sysctl.c",line 2744,column 1,is_stmt,address SysCtlClockGet,isa 1

	.dwfde $C$DW$CIE, SysCtlClockGet

;*****************************************************************************
;* FUNCTION NAME: SysCtlClockGet                                             *
;*                                                                           *
;*   Regs Modified     : A1,A2,A3,A4,SP,SR                                   *
;*   Regs Used         : A1,A2,A3,A4,SP,LR,SR                                *
;*   Local Frame Size  : 0 Args + 24 Auto + 0 Save = 24 byte                 *
;*****************************************************************************
SysCtlClockGet:
;* --------------------------------------------------------------------------*
	.dwcfi	cfa_offset, 0
        SUB       SP, SP, #24           ; [DPU_V7M3_PIPE] 
	.dwcfi	cfa_offset, 24
$C$DW$190	.dwtag  DW_TAG_variable
	.dwattr $C$DW$190, DW_AT_name("ui32RCC")
	.dwattr $C$DW$190, DW_AT_TI_symbol_name("ui32RCC")
	.dwattr $C$DW$190, DW_AT_type(*$C$DW$T$22)
	.dwattr $C$DW$190, DW_AT_location[DW_OP_breg13 0]

$C$DW$191	.dwtag  DW_TAG_variable
	.dwattr $C$DW$191, DW_AT_name("ui32RCC2")
	.dwattr $C$DW$191, DW_AT_TI_symbol_name("ui32RCC2")
	.dwattr $C$DW$191, DW_AT_type(*$C$DW$T$22)
	.dwattr $C$DW$191, DW_AT_location[DW_OP_breg13 4]

$C$DW$192	.dwtag  DW_TAG_variable
	.dwattr $C$DW$192, DW_AT_name("ui32PLL")
	.dwattr $C$DW$192, DW_AT_TI_symbol_name("ui32PLL")
	.dwattr $C$DW$192, DW_AT_type(*$C$DW$T$22)
	.dwattr $C$DW$192, DW_AT_location[DW_OP_breg13 8]

$C$DW$193	.dwtag  DW_TAG_variable
	.dwattr $C$DW$193, DW_AT_name("ui32Clk")
	.dwattr $C$DW$193, DW_AT_TI_symbol_name("ui32Clk")
	.dwattr $C$DW$193, DW_AT_type(*$C$DW$T$22)
	.dwattr $C$DW$193, DW_AT_location[DW_OP_breg13 12]

$C$DW$194	.dwtag  DW_TAG_variable
	.dwattr $C$DW$194, DW_AT_name("ui32Max")
	.dwattr $C$DW$194, DW_AT_TI_symbol_name("ui32Max")
	.dwattr $C$DW$194, DW_AT_type(*$C$DW$T$22)
	.dwattr $C$DW$194, DW_AT_location[DW_OP_breg13 16]

$C$DW$195	.dwtag  DW_TAG_variable
	.dwattr $C$DW$195, DW_AT_name("ui32PLL1")
	.dwattr $C$DW$195, DW_AT_TI_symbol_name("ui32PLL1")
	.dwattr $C$DW$195, DW_AT_type(*$C$DW$T$22)
	.dwattr $C$DW$195, DW_AT_location[DW_OP_breg13 20]

	.dwpsn	file "../driverlib/sysctl.c",line 2756,column 5,is_stmt,isa 1
        LDR       A1, $C$CON59          ; [DPU_V7M3_PIPE] |2756| 
        LDR       A1, [A1, #0]          ; [DPU_V7M3_PIPE] |2756| 
        STR       A1, [SP, #0]          ; [DPU_V7M3_PIPE] |2756| 
	.dwpsn	file "../driverlib/sysctl.c",line 2757,column 5,is_stmt,isa 1
        LDR       A1, $C$CON53          ; [DPU_V7M3_PIPE] |2757| 
        LDR       A1, [A1, #0]          ; [DPU_V7M3_PIPE] |2757| 
        STR       A1, [SP, #4]          ; [DPU_V7M3_PIPE] |2757| 
	.dwpsn	file "../driverlib/sysctl.c",line 2762,column 5,is_stmt,isa 1
        B         ||$C$L66||            ; [DPU_V7M3_PIPE] |2762| 
        ; BRANCH OCCURS {||$C$L66||}     ; [] |2762| 
;* --------------------------------------------------------------------------*
||$C$L60||:    
	.dwpsn	file "../driverlib/sysctl.c",line 2772,column 13,is_stmt,isa 1
        LDR       A1, [SP, #0]          ; [DPU_V7M3_PIPE] |2772| 
        LDR       A2, $C$CON68          ; [DPU_V7M3_PIPE] |2772| 
        AND       A1, A1, #1984         ; [DPU_V7M3_PIPE] |2772| 
        LSRS      A1, A1, #6            ; [DPU_V7M3_PIPE] |2772| 
        LDR       A1, [A2, +A1, LSL #2] ; [DPU_V7M3_PIPE] |2772| 
        STR       A1, [SP, #12]         ; [DPU_V7M3_PIPE] |2772| 
	.dwpsn	file "../driverlib/sysctl.c",line 2774,column 13,is_stmt,isa 1
        B         ||$C$L69||            ; [DPU_V7M3_PIPE] |2774| 
        ; BRANCH OCCURS {||$C$L69||}     ; [] |2774| 
;* --------------------------------------------------------------------------*
||$C$L61||:    
	.dwpsn	file "../driverlib/sysctl.c",line 2785,column 13,is_stmt,isa 1
        LDR       A1, $C$CON69          ; [DPU_V7M3_PIPE] |2785| 
        STR       A1, [SP, #12]         ; [DPU_V7M3_PIPE] |2785| 
	.dwpsn	file "../driverlib/sysctl.c",line 2786,column 13,is_stmt,isa 1
        B         ||$C$L69||            ; [DPU_V7M3_PIPE] |2786| 
        ; BRANCH OCCURS {||$C$L69||}     ; [] |2786| 
;* --------------------------------------------------------------------------*
||$C$L62||:    
	.dwpsn	file "../driverlib/sysctl.c",line 2797,column 13,is_stmt,isa 1
        LDR       A1, $C$CON62          ; [DPU_V7M3_PIPE] |2797| 
        STR       A1, [SP, #12]         ; [DPU_V7M3_PIPE] |2797| 
	.dwpsn	file "../driverlib/sysctl.c",line 2798,column 13,is_stmt,isa 1
        B         ||$C$L69||            ; [DPU_V7M3_PIPE] |2798| 
        ; BRANCH OCCURS {||$C$L69||}     ; [] |2798| 
;* --------------------------------------------------------------------------*
||$C$L63||:    
	.dwpsn	file "../driverlib/sysctl.c",line 2809,column 13,is_stmt,isa 1
        MOV       A1, #30000            ; [DPU_V7M3_PIPE] |2809| 
        STR       A1, [SP, #12]         ; [DPU_V7M3_PIPE] |2809| 
	.dwpsn	file "../driverlib/sysctl.c",line 2810,column 13,is_stmt,isa 1
        B         ||$C$L69||            ; [DPU_V7M3_PIPE] |2810| 
        ; BRANCH OCCURS {||$C$L69||}     ; [] |2810| 
;* --------------------------------------------------------------------------*
||$C$L64||:    
	.dwpsn	file "../driverlib/sysctl.c",line 2818,column 13,is_stmt,isa 1
        MOV       A1, #32768            ; [DPU_V7M3_PIPE] |2818| 
        STR       A1, [SP, #12]         ; [DPU_V7M3_PIPE] |2818| 
	.dwpsn	file "../driverlib/sysctl.c",line 2819,column 13,is_stmt,isa 1
        B         ||$C$L69||            ; [DPU_V7M3_PIPE] |2819| 
        ; BRANCH OCCURS {||$C$L69||}     ; [] |2819| 
;* --------------------------------------------------------------------------*
||$C$L65||:    
	.dwpsn	file "../driverlib/sysctl.c",line 2828,column 13,is_stmt,isa 1
        MOVS      A1, #0                ; [DPU_V7M3_PIPE] |2828| 
        B         ||$C$L85||            ; [DPU_V7M3_PIPE] |2828| 
        ; BRANCH OCCURS {||$C$L85||}     ; [] |2828| 
;* --------------------------------------------------------------------------*
;* --------------------------------------------------------------------------*
||$C$L66||:    
	.dwpsn	file "../driverlib/sysctl.c",line 2762,column 5,is_stmt,isa 1
        LDR       A1, [SP, #4]          ; [DPU_V7M3_PIPE] |2762| 
        LSRS      A1, A1, #32           ; [DPU_V7M3_PIPE] |2762| 
        BCC       ||$C$L67||            ; [DPU_V7M3_PIPE] |2762| 
        ; BRANCHCC OCCURS {||$C$L67||}   ; [] |2762| 
;* --------------------------------------------------------------------------*
        LDR       A1, [SP, #4]          ; [DPU_V7M3_PIPE] |2762| 
        AND       A1, A1, #112          ; [DPU_V7M3_PIPE] |2762| 
        B         ||$C$L68||            ; [DPU_V7M3_PIPE] |2762| 
        ; BRANCH OCCURS {||$C$L68||}     ; [] |2762| 
;* --------------------------------------------------------------------------*
||$C$L67||:    
        LDR       A1, [SP, #0]          ; [DPU_V7M3_PIPE] |2762| 
        AND       A1, A1, #48           ; [DPU_V7M3_PIPE] |2762| 
;* --------------------------------------------------------------------------*
||$C$L68||:    
        CMP       A1, #0                ; [DPU_V7M3_PIPE] |2762| 
        BEQ       ||$C$L60||            ; [DPU_V7M3_PIPE] |2762| 
        ; BRANCHCC OCCURS {||$C$L60||}   ; [] |2762| 
;* --------------------------------------------------------------------------*
        SUBS      A1, A1, #16           ; [DPU_V7M3_PIPE] |2762| 
        BEQ       ||$C$L61||            ; [DPU_V7M3_PIPE] |2762| 
        ; BRANCHCC OCCURS {||$C$L61||}   ; [] |2762| 
;* --------------------------------------------------------------------------*
        SUBS      A1, A1, #16           ; [DPU_V7M3_PIPE] |2762| 
        BEQ       ||$C$L62||            ; [DPU_V7M3_PIPE] |2762| 
        ; BRANCHCC OCCURS {||$C$L62||}   ; [] |2762| 
;* --------------------------------------------------------------------------*
        SUBS      A1, A1, #16           ; [DPU_V7M3_PIPE] |2762| 
        BEQ       ||$C$L63||            ; [DPU_V7M3_PIPE] |2762| 
        ; BRANCHCC OCCURS {||$C$L63||}   ; [] |2762| 
;* --------------------------------------------------------------------------*
        SUBS      A1, A1, #64           ; [DPU_V7M3_PIPE] |2762| 
        BEQ       ||$C$L64||            ; [DPU_V7M3_PIPE] |2762| 
        ; BRANCHCC OCCURS {||$C$L64||}   ; [] |2762| 
;* --------------------------------------------------------------------------*
        B         ||$C$L65||            ; [DPU_V7M3_PIPE] |2762| 
        ; BRANCH OCCURS {||$C$L65||}     ; [] |2762| 
;* --------------------------------------------------------------------------*
||$C$L69||:    
	.dwpsn	file "../driverlib/sysctl.c",line 2835,column 5,is_stmt,isa 1
        MOV       A1, #-1               ; [DPU_V7M3_PIPE] |2835| 
        STR       A1, [SP, #16]         ; [DPU_V7M3_PIPE] |2835| 
	.dwpsn	file "../driverlib/sysctl.c",line 2840,column 5,is_stmt,isa 1
        LDR       A1, [SP, #4]          ; [DPU_V7M3_PIPE] |2840| 
        LSRS      A1, A1, #32           ; [DPU_V7M3_PIPE] |2840| 
        BCC       ||$C$L70||            ; [DPU_V7M3_PIPE] |2840| 
        ; BRANCHCC OCCURS {||$C$L70||}   ; [] |2840| 
;* --------------------------------------------------------------------------*
        LDR       A1, [SP, #4]          ; [DPU_V7M3_PIPE] |2840| 
        LSRS      A1, A1, #12           ; [DPU_V7M3_PIPE] |2840| 
        BCC       ||$C$L71||            ; [DPU_V7M3_PIPE] |2840| 
        ; BRANCHCC OCCURS {||$C$L71||}   ; [] |2840| 
;* --------------------------------------------------------------------------*
||$C$L70||:    
        LDR       A1, [SP, #4]          ; [DPU_V7M3_PIPE] |2840| 
        LSRS      A1, A1, #32           ; [DPU_V7M3_PIPE] |2840| 
        BCS       ||$C$L78||            ; [DPU_V7M3_PIPE] |2840| 
        ; BRANCHCC OCCURS {||$C$L78||}   ; [] |2840| 
;* --------------------------------------------------------------------------*
        LDR       A1, [SP, #0]          ; [DPU_V7M3_PIPE] |2840| 
        LSRS      A1, A1, #12           ; [DPU_V7M3_PIPE] |2840| 
        BCS       ||$C$L78||            ; [DPU_V7M3_PIPE] |2840| 
        ; BRANCHCC OCCURS {||$C$L78||}   ; [] |2840| 
;* --------------------------------------------------------------------------*
||$C$L71||:    
	.dwpsn	file "../driverlib/sysctl.c",line 2848,column 9,is_stmt,isa 1
        LDR       A1, $C$CON70          ; [DPU_V7M3_PIPE] |2848| 
        LDR       A1, [A1, #0]          ; [DPU_V7M3_PIPE] |2848| 
        STR       A1, [SP, #8]          ; [DPU_V7M3_PIPE] |2848| 
	.dwpsn	file "../driverlib/sysctl.c",line 2849,column 9,is_stmt,isa 1
        LDR       A1, $C$CON71          ; [DPU_V7M3_PIPE] |2849| 
        LDR       A1, [A1, #0]          ; [DPU_V7M3_PIPE] |2849| 
        STR       A1, [SP, #20]         ; [DPU_V7M3_PIPE] |2849| 
	.dwpsn	file "../driverlib/sysctl.c",line 2854,column 9,is_stmt,isa 1
        LDR       A2, [SP, #20]         ; [DPU_V7M3_PIPE] |2854| 
        LDR       A1, [SP, #20]         ; [DPU_V7M3_PIPE] |2854| 
        LDR       A3, [SP, #12]         ; [DPU_V7M3_PIPE] |2854| 
        AND       A2, A2, #31           ; [DPU_V7M3_PIPE] |2854| 
        AND       A1, A1, #7936         ; [DPU_V7M3_PIPE] |2854| 
        ADDS      A2, A2, #1            ; [DPU_V7M3_PIPE] |2854| 
        LSRS      A1, A1, #8            ; [DPU_V7M3_PIPE] |2854| 
        ADDS      A1, A1, #1            ; [DPU_V7M3_PIPE] |2854| 
        MULS      A2, A2, A1            ; [DPU_V7M3_PIPE] |2854| 
        LSLS      A1, A2, #1            ; [DPU_V7M3_PIPE] |2854| 
        UDIV      A1, A3, A1            ; [DPU_V7M3_PIPE] |2854| 
        STR       A1, [SP, #12]         ; [DPU_V7M3_PIPE] |2854| 
	.dwpsn	file "../driverlib/sysctl.c",line 2863,column 9,is_stmt,isa 1
        LDR       A2, [SP, #8]          ; [DPU_V7M3_PIPE] |2863| 
        LDR       A1, [SP, #8]          ; [DPU_V7M3_PIPE] |2863| 
        LDR       A4, [SP, #12]         ; [DPU_V7M3_PIPE] |2863| 
        LDR       A3, [SP, #12]         ; [DPU_V7M3_PIPE] |2863| 
        UBFX      A2, A2, #10, #10      ; [DPU_V7M3_PIPE] |2863| 
        BFC       A1, #10, #22          ; [DPU_V7M3_PIPE] |2863| 
        UBFX      A2, A2, #0, #22       ; [DPU_V7M3_PIPE] |2863| 
        MULS      A1, A1, A3            ; [DPU_V7M3_PIPE] |2863| 
        MULS      A2, A2, A4            ; [DPU_V7M3_PIPE] |2863| 
        ADD       A1, A1, A2, LSR #10   ; [DPU_V7M3_PIPE] |2863| 
        STR       A1, [SP, #12]         ; [DPU_V7M3_PIPE] |2863| 
	.dwpsn	file "../driverlib/sysctl.c",line 2872,column 9,is_stmt,isa 1
        LDR       A1, [SP, #0]          ; [DPU_V7M3_PIPE] |2872| 
        ORR       A1, A1, #4194304      ; [DPU_V7M3_PIPE] |2872| 
        STR       A1, [SP, #0]          ; [DPU_V7M3_PIPE] |2872| 
	.dwpsn	file "../driverlib/sysctl.c",line 2877,column 9,is_stmt,isa 1
        B         ||$C$L77||            ; [DPU_V7M3_PIPE] |2877| 
        ; BRANCH OCCURS {||$C$L77||}     ; [] |2877| 
;* --------------------------------------------------------------------------*
||$C$L72||:    
	.dwpsn	file "../driverlib/sysctl.c",line 2881,column 17,is_stmt,isa 1
        LDR       A1, $C$CON63          ; [DPU_V7M3_PIPE] |2881| 
        STR       A1, [SP, #16]         ; [DPU_V7M3_PIPE] |2881| 
	.dwpsn	file "../driverlib/sysctl.c",line 2882,column 17,is_stmt,isa 1
        B         ||$C$L78||            ; [DPU_V7M3_PIPE] |2882| 
        ; BRANCH OCCURS {||$C$L78||}     ; [] |2882| 
;* --------------------------------------------------------------------------*
||$C$L73||:    
	.dwpsn	file "../driverlib/sysctl.c",line 2886,column 17,is_stmt,isa 1
        LDR       A1, $C$CON64          ; [DPU_V7M3_PIPE] |2886| 
        STR       A1, [SP, #16]         ; [DPU_V7M3_PIPE] |2886| 
	.dwpsn	file "../driverlib/sysctl.c",line 2887,column 17,is_stmt,isa 1
        B         ||$C$L78||            ; [DPU_V7M3_PIPE] |2887| 
        ; BRANCH OCCURS {||$C$L78||}     ; [] |2887| 
;******************************************************************************
;* CONSTANT TABLE                                                             *
;******************************************************************************
	.sect	".text"
	.align	4
||$C$CON59||:	.bits		0x400fe060,32

;* --------------------------------------------------------------------------*
||$C$L74||:    
	.dwpsn	file "../driverlib/sysctl.c",line 2891,column 17,is_stmt,isa 1
        LDR       A1, $C$CON65          ; [DPU_V7M3_PIPE] |2891| 
        STR       A1, [SP, #16]         ; [DPU_V7M3_PIPE] |2891| 
	.dwpsn	file "../driverlib/sysctl.c",line 2892,column 17,is_stmt,isa 1
        B         ||$C$L78||            ; [DPU_V7M3_PIPE] |2892| 
        ; BRANCH OCCURS {||$C$L78||}     ; [] |2892| 
;******************************************************************************
;* CONSTANT TABLE                                                             *
;******************************************************************************
	.sect	".text"
	.align	4
||$C$CON53||:	.bits		0x400fe070,32

;* --------------------------------------------------------------------------*
||$C$L75||:    
	.dwpsn	file "../driverlib/sysctl.c",line 2896,column 17,is_stmt,isa 1
        LDR       A1, $C$CON72          ; [DPU_V7M3_PIPE] |2896| 
        STR       A1, [SP, #16]         ; [DPU_V7M3_PIPE] |2896| 
	.dwpsn	file "../driverlib/sysctl.c",line 2897,column 17,is_stmt,isa 1
        B         ||$C$L78||            ; [DPU_V7M3_PIPE] |2897| 
        ; BRANCH OCCURS {||$C$L78||}     ; [] |2897| 
;* --------------------------------------------------------------------------*
||$C$L76||:    
	.dwpsn	file "../driverlib/sysctl.c",line 2901,column 17,is_stmt,isa 1
        LDR       A1, $C$CON66          ; [DPU_V7M3_PIPE] |2901| 
        STR       A1, [SP, #16]         ; [DPU_V7M3_PIPE] |2901| 
	.dwpsn	file "../driverlib/sysctl.c",line 2902,column 17,is_stmt,isa 1
        B         ||$C$L78||            ; [DPU_V7M3_PIPE] |2902| 
        ; BRANCH OCCURS {||$C$L78||}     ; [] |2902| 
;* --------------------------------------------------------------------------*
;* --------------------------------------------------------------------------*
||$C$L77||:    
	.dwpsn	file "../driverlib/sysctl.c",line 2877,column 9,is_stmt,isa 1
        LDR       A1, $C$CON67          ; [DPU_V7M3_PIPE] |2877| 
        LDR       A1, [A1, #0]          ; [DPU_V7M3_PIPE] |2877| 
        AND       A1, A1, #61440        ; [DPU_V7M3_PIPE] |2877| 
        SUBS      A1, A1, #8192         ; [DPU_V7M3_PIPE] |2877| 
        BEQ       ||$C$L72||            ; [DPU_V7M3_PIPE] |2877| 
        ; BRANCHCC OCCURS {||$C$L72||}   ; [] |2877| 
;* --------------------------------------------------------------------------*
        SUBS      A1, A1, #4096         ; [DPU_V7M3_PIPE] |2877| 
        BEQ       ||$C$L73||            ; [DPU_V7M3_PIPE] |2877| 
        ; BRANCHCC OCCURS {||$C$L73||}   ; [] |2877| 
;* --------------------------------------------------------------------------*
        SUBS      A1, A1, #4096         ; [DPU_V7M3_PIPE] |2877| 
        BEQ       ||$C$L74||            ; [DPU_V7M3_PIPE] |2877| 
        ; BRANCHCC OCCURS {||$C$L74||}   ; [] |2877| 
;* --------------------------------------------------------------------------*
        SUBS      A1, A1, #12288        ; [DPU_V7M3_PIPE] |2877| 
        BEQ       ||$C$L75||            ; [DPU_V7M3_PIPE] |2877| 
        ; BRANCHCC OCCURS {||$C$L75||}   ; [] |2877| 
;* --------------------------------------------------------------------------*
        SUBS      A1, A1, #8192         ; [DPU_V7M3_PIPE] |2877| 
        BEQ       ||$C$L76||            ; [DPU_V7M3_PIPE] |2877| 
        ; BRANCHCC OCCURS {||$C$L76||}   ; [] |2877| 
;* --------------------------------------------------------------------------*
||$C$L78||:    
	.dwpsn	file "../driverlib/sysctl.c",line 2914,column 5,is_stmt,isa 1
        LDR       A1, [SP, #0]          ; [DPU_V7M3_PIPE] |2914| 
        LSRS      A1, A1, #23           ; [DPU_V7M3_PIPE] |2914| 
        BCC       ||$C$L83||            ; [DPU_V7M3_PIPE] |2914| 
        ; BRANCHCC OCCURS {||$C$L83||}   ; [] |2914| 
;* --------------------------------------------------------------------------*
	.dwpsn	file "../driverlib/sysctl.c",line 2919,column 9,is_stmt,isa 1
        LDR       A1, [SP, #4]          ; [DPU_V7M3_PIPE] |2919| 
        LSRS      A1, A1, #32           ; [DPU_V7M3_PIPE] |2919| 
        BCC       ||$C$L82||            ; [DPU_V7M3_PIPE] |2919| 
        ; BRANCHCC OCCURS {||$C$L82||}   ; [] |2919| 
;* --------------------------------------------------------------------------*
	.dwpsn	file "../driverlib/sysctl.c",line 2921,column 13,is_stmt,isa 1
        LDR       A1, [SP, #4]          ; [DPU_V7M3_PIPE] |2921| 
        LSRS      A1, A1, #31           ; [DPU_V7M3_PIPE] |2921| 
        BCC       ||$C$L81||            ; [DPU_V7M3_PIPE] |2921| 
        ; BRANCHCC OCCURS {||$C$L81||}   ; [] |2921| 
;* --------------------------------------------------------------------------*
        LDR       A1, [SP, #4]          ; [DPU_V7M3_PIPE] |2921| 
        LSRS      A1, A1, #32           ; [DPU_V7M3_PIPE] |2921| 
        BCC       ||$C$L79||            ; [DPU_V7M3_PIPE] |2921| 
        ; BRANCHCC OCCURS {||$C$L79||}   ; [] |2921| 
;* --------------------------------------------------------------------------*
        LDR       A1, [SP, #4]          ; [DPU_V7M3_PIPE] |2921| 
        LSRS      A1, A1, #12           ; [DPU_V7M3_PIPE] |2921| 
        BCC       ||$C$L80||            ; [DPU_V7M3_PIPE] |2921| 
        ; BRANCHCC OCCURS {||$C$L80||}   ; [] |2921| 
;* --------------------------------------------------------------------------*
||$C$L79||:    
        LDR       A1, [SP, #4]          ; [DPU_V7M3_PIPE] |2921| 
        LSRS      A1, A1, #32           ; [DPU_V7M3_PIPE] |2921| 
        BCS       ||$C$L81||            ; [DPU_V7M3_PIPE] |2921| 
        ; BRANCHCC OCCURS {||$C$L81||}   ; [] |2921| 
;* --------------------------------------------------------------------------*
        LDR       A1, [SP, #0]          ; [DPU_V7M3_PIPE] |2921| 
        LSRS      A1, A1, #12           ; [DPU_V7M3_PIPE] |2921| 
        BCS       ||$C$L81||            ; [DPU_V7M3_PIPE] |2921| 
        ; BRANCHCC OCCURS {||$C$L81||}   ; [] |2921| 
;* --------------------------------------------------------------------------*
||$C$L80||:    
	.dwpsn	file "../driverlib/sysctl.c",line 2928,column 17,is_stmt,isa 1
        LDR       A1, [SP, #4]          ; [DPU_V7M3_PIPE] |2928| 
        LDR       A2, [SP, #12]         ; [DPU_V7M3_PIPE] |2928| 
        AND       A1, A1, #532676608    ; [DPU_V7M3_PIPE] |2928| 
        LSLS      A2, A2, #1            ; [DPU_V7M3_PIPE] |2928| 
        LSRS      A1, A1, #22           ; [DPU_V7M3_PIPE] |2928| 
        ADDS      A1, A1, #1            ; [DPU_V7M3_PIPE] |2928| 
        UDIV      A1, A2, A1            ; [DPU_V7M3_PIPE] |2928| 
        STR       A1, [SP, #12]         ; [DPU_V7M3_PIPE] |2928| 
	.dwpsn	file "../driverlib/sysctl.c",line 2933,column 13,is_stmt,isa 1
        B         ||$C$L83||            ; [DPU_V7M3_PIPE] |2933| 
        ; BRANCH OCCURS {||$C$L83||}     ; [] |2933| 
;* --------------------------------------------------------------------------*
||$C$L81||:    
	.dwpsn	file "../driverlib/sysctl.c",line 2936,column 17,is_stmt,isa 1
        LDR       A1, [SP, #4]          ; [DPU_V7M3_PIPE] |2936| 
        LDR       A2, [SP, #12]         ; [DPU_V7M3_PIPE] |2936| 
        AND       A1, A1, #528482304    ; [DPU_V7M3_PIPE] |2936| 
        LSRS      A1, A1, #23           ; [DPU_V7M3_PIPE] |2936| 
        ADDS      A1, A1, #1            ; [DPU_V7M3_PIPE] |2936| 
        UDIV      A1, A2, A1            ; [DPU_V7M3_PIPE] |2936| 
        STR       A1, [SP, #12]         ; [DPU_V7M3_PIPE] |2936| 
