;******************************************************************************
;* TI ARM G3 C/C++ Codegen                                        Unix v18.12.1.LTS *
;* Date/Time created: Sun Mar 17 17:15:30 2019                                *
;******************************************************************************
	.compiler_opts --abi=eabi --arm_vmrs_si_workaround=off --code_state=16 --diag_wrap=off --embedded_constants=on --endian=little --float_support=FPv4SPD16 --hll_source=on --object_format=elf --silicon_version=7M4 --symdebug:dwarf --symdebug:dwarf_version=3 --unaligned_access=on 
	.thumb

$C$DW$CU	.dwtag  DW_TAG_compile_unit
	.dwattr $C$DW$CU, DW_AT_name("../driverlib/usb.c")
	.dwattr $C$DW$CU, DW_AT_producer("TI TI ARM G3 C/C++ Codegen Unix v18.12.1.LTS Copyright (c) 1996-2018 Texas Instruments Incorporated")
	.dwattr $C$DW$CU, DW_AT_TI_version(0x01)
	.dwattr $C$DW$CU, DW_AT_comp_dir("/home/vishal/workspace_v8/My_project/Debug")

$C$DW$1	.dwtag  DW_TAG_subprogram
	.dwattr $C$DW$1, DW_AT_name("IntRegister")
	.dwattr $C$DW$1, DW_AT_TI_symbol_name("IntRegister")
	.dwattr $C$DW$1, DW_AT_declaration
	.dwattr $C$DW$1, DW_AT_external
	.dwattr $C$DW$1, DW_AT_decl_file("/home/vishal/workspace_v8/My_project/driverlib/interrupt.h")
	.dwattr $C$DW$1, DW_AT_decl_line(0x45)
	.dwattr $C$DW$1, DW_AT_decl_column(0x0d)
$C$DW$2	.dwtag  DW_TAG_formal_parameter
	.dwattr $C$DW$2, DW_AT_type(*$C$DW$T$25)

$C$DW$3	.dwtag  DW_TAG_formal_parameter
	.dwattr $C$DW$3, DW_AT_type(*$C$DW$T$33)

	.dwendtag $C$DW$1


$C$DW$4	.dwtag  DW_TAG_subprogram
	.dwattr $C$DW$4, DW_AT_name("IntEnable")
	.dwattr $C$DW$4, DW_AT_TI_symbol_name("IntEnable")
	.dwattr $C$DW$4, DW_AT_declaration
	.dwattr $C$DW$4, DW_AT_external
	.dwattr $C$DW$4, DW_AT_decl_file("/home/vishal/workspace_v8/My_project/driverlib/interrupt.h")
	.dwattr $C$DW$4, DW_AT_decl_line(0x4c)
	.dwattr $C$DW$4, DW_AT_decl_column(0x0d)
$C$DW$5	.dwtag  DW_TAG_formal_parameter
	.dwattr $C$DW$5, DW_AT_type(*$C$DW$T$25)

	.dwendtag $C$DW$4


$C$DW$6	.dwtag  DW_TAG_subprogram
	.dwattr $C$DW$6, DW_AT_name("IntDisable")
	.dwattr $C$DW$6, DW_AT_TI_symbol_name("IntDisable")
	.dwattr $C$DW$6, DW_AT_declaration
	.dwattr $C$DW$6, DW_AT_external
	.dwattr $C$DW$6, DW_AT_decl_file("/home/vishal/workspace_v8/My_project/driverlib/interrupt.h")
	.dwattr $C$DW$6, DW_AT_decl_line(0x4d)
	.dwattr $C$DW$6, DW_AT_decl_column(0x0d)
$C$DW$7	.dwtag  DW_TAG_formal_parameter
	.dwattr $C$DW$7, DW_AT_type(*$C$DW$T$25)

	.dwendtag $C$DW$6


$C$DW$8	.dwtag  DW_TAG_subprogram
	.dwattr $C$DW$8, DW_AT_name("IntUnregister")
	.dwattr $C$DW$8, DW_AT_TI_symbol_name("IntUnregister")
	.dwattr $C$DW$8, DW_AT_declaration
	.dwattr $C$DW$8, DW_AT_external
	.dwattr $C$DW$8, DW_AT_decl_file("/home/vishal/workspace_v8/My_project/driverlib/interrupt.h")
	.dwattr $C$DW$8, DW_AT_decl_line(0x46)
	.dwattr $C$DW$8, DW_AT_decl_column(0x0d)
$C$DW$9	.dwtag  DW_TAG_formal_parameter
	.dwattr $C$DW$9, DW_AT_type(*$C$DW$T$25)

	.dwendtag $C$DW$8

;	/home/vishal/ti/ccsv8/tools/compiler/ti-cgt-arm_18.12.1.LTS/bin/armacpia -@/tmp/TI4UJYexBEn 
	.sect	".text"
	.clink
	.thumbfunc _USBIndexWrite
	.thumb

$C$DW$10	.dwtag  DW_TAG_subprogram
	.dwattr $C$DW$10, DW_AT_name("_USBIndexWrite")
	.dwattr $C$DW$10, DW_AT_low_pc(_USBIndexWrite)
	.dwattr $C$DW$10, DW_AT_high_pc(0x00)
	.dwattr $C$DW$10, DW_AT_TI_symbol_name("_USBIndexWrite")
	.dwattr $C$DW$10, DW_AT_TI_begin_file("../driverlib/usb.c")
	.dwattr $C$DW$10, DW_AT_TI_begin_line(0x65)
	.dwattr $C$DW$10, DW_AT_TI_begin_column(0x01)
	.dwattr $C$DW$10, DW_AT_decl_file("../driverlib/usb.c")
	.dwattr $C$DW$10, DW_AT_decl_line(0x65)
	.dwattr $C$DW$10, DW_AT_decl_column(0x01)
	.dwattr $C$DW$10, DW_AT_TI_max_frame_size(0x18)
	.dwpsn	file "../driverlib/usb.c",line 103,column 1,is_stmt,address _USBIndexWrite,isa 1

	.dwfde $C$DW$CIE, _USBIndexWrite
$C$DW$11	.dwtag  DW_TAG_formal_parameter
	.dwattr $C$DW$11, DW_AT_name("ui32Base")
	.dwattr $C$DW$11, DW_AT_TI_symbol_name("ui32Base")
	.dwattr $C$DW$11, DW_AT_type(*$C$DW$T$25)
	.dwattr $C$DW$11, DW_AT_location[DW_OP_reg0]

$C$DW$12	.dwtag  DW_TAG_formal_parameter
	.dwattr $C$DW$12, DW_AT_name("ui32Endpoint")
	.dwattr $C$DW$12, DW_AT_TI_symbol_name("ui32Endpoint")
	.dwattr $C$DW$12, DW_AT_type(*$C$DW$T$25)
	.dwattr $C$DW$12, DW_AT_location[DW_OP_reg1]

$C$DW$13	.dwtag  DW_TAG_formal_parameter
	.dwattr $C$DW$13, DW_AT_name("ui32IndexedReg")
	.dwattr $C$DW$13, DW_AT_TI_symbol_name("ui32IndexedReg")
	.dwattr $C$DW$13, DW_AT_type(*$C$DW$T$25)
	.dwattr $C$DW$13, DW_AT_location[DW_OP_reg2]

$C$DW$14	.dwtag  DW_TAG_formal_parameter
	.dwattr $C$DW$14, DW_AT_name("ui32Value")
	.dwattr $C$DW$14, DW_AT_TI_symbol_name("ui32Value")
	.dwattr $C$DW$14, DW_AT_type(*$C$DW$T$25)
	.dwattr $C$DW$14, DW_AT_location[DW_OP_reg3]

$C$DW$15	.dwtag  DW_TAG_formal_parameter
	.dwattr $C$DW$15, DW_AT_name("ui32Size")
	.dwattr $C$DW$15, DW_AT_TI_symbol_name("ui32Size")
	.dwattr $C$DW$15, DW_AT_type(*$C$DW$T$25)
	.dwattr $C$DW$15, DW_AT_location[DW_OP_breg13 24]


;*****************************************************************************
;* FUNCTION NAME: _USBIndexWrite                                             *
;*                                                                           *
;*   Regs Modified     : A1,A2,A3,SP,SR                                      *
;*   Regs Used         : A1,A2,A3,A4,SP,LR,SR                                *
;*   Local Frame Size  : 0 Args + 20 Auto + 0 Save = 20 byte                 *
;*****************************************************************************
_USBIndexWrite:
;* --------------------------------------------------------------------------*
	.dwcfi	cfa_offset, 0
        SUB       SP, SP, #24           ; [DPU_V7M3_PIPE] 
	.dwcfi	cfa_offset, 24
$C$DW$16	.dwtag  DW_TAG_variable
	.dwattr $C$DW$16, DW_AT_name("ui32Base")
	.dwattr $C$DW$16, DW_AT_TI_symbol_name("ui32Base")
	.dwattr $C$DW$16, DW_AT_type(*$C$DW$T$25)
	.dwattr $C$DW$16, DW_AT_location[DW_OP_breg13 0]

$C$DW$17	.dwtag  DW_TAG_variable
	.dwattr $C$DW$17, DW_AT_name("ui32Endpoint")
	.dwattr $C$DW$17, DW_AT_TI_symbol_name("ui32Endpoint")
	.dwattr $C$DW$17, DW_AT_type(*$C$DW$T$25)
	.dwattr $C$DW$17, DW_AT_location[DW_OP_breg13 4]

$C$DW$18	.dwtag  DW_TAG_variable
	.dwattr $C$DW$18, DW_AT_name("ui32IndexedReg")
	.dwattr $C$DW$18, DW_AT_TI_symbol_name("ui32IndexedReg")
	.dwattr $C$DW$18, DW_AT_type(*$C$DW$T$25)
	.dwattr $C$DW$18, DW_AT_location[DW_OP_breg13 8]

$C$DW$19	.dwtag  DW_TAG_variable
	.dwattr $C$DW$19, DW_AT_name("ui32Value")
	.dwattr $C$DW$19, DW_AT_TI_symbol_name("ui32Value")
	.dwattr $C$DW$19, DW_AT_type(*$C$DW$T$25)
	.dwattr $C$DW$19, DW_AT_location[DW_OP_breg13 12]

$C$DW$20	.dwtag  DW_TAG_variable
	.dwattr $C$DW$20, DW_AT_name("ui32Index")
	.dwattr $C$DW$20, DW_AT_TI_symbol_name("ui32Index")
	.dwattr $C$DW$20, DW_AT_type(*$C$DW$T$25)
	.dwattr $C$DW$20, DW_AT_location[DW_OP_breg13 16]

        STR       A4, [SP, #12]         ; [DPU_V7M3_PIPE] |103| 
        STR       A3, [SP, #8]          ; [DPU_V7M3_PIPE] |103| 
        STR       A2, [SP, #4]          ; [DPU_V7M3_PIPE] |103| 
        STR       A1, [SP, #0]          ; [DPU_V7M3_PIPE] |103| 
	.dwpsn	file "../driverlib/usb.c",line 117,column 5,is_stmt,isa 1
        LDR       A1, [SP, #0]          ; [DPU_V7M3_PIPE] |117| 
        LDRB      A1, [A1, #14]         ; [DPU_V7M3_PIPE] |117| 
        STR       A1, [SP, #16]         ; [DPU_V7M3_PIPE] |117| 
	.dwpsn	file "../driverlib/usb.c",line 122,column 5,is_stmt,isa 1
        LDR       A2, [SP, #0]          ; [DPU_V7M3_PIPE] |122| 
        LDRB      A1, [SP, #4]          ; [DPU_V7M3_PIPE] |122| 
        STRB      A1, [A2, #14]         ; [DPU_V7M3_PIPE] |122| 
	.dwpsn	file "../driverlib/usb.c",line 127,column 5,is_stmt,isa 1
        LDR       A1, [SP, #24]         ; [DPU_V7M3_PIPE] |127| 
        CMP       A1, #1                ; [DPU_V7M3_PIPE] |127| 
        BNE       ||$C$L1||             ; [DPU_V7M3_PIPE] |127| 
        ; BRANCHCC OCCURS {||$C$L1||}    ; [] |127| 
;* --------------------------------------------------------------------------*
	.dwpsn	file "../driverlib/usb.c",line 132,column 9,is_stmt,isa 1
        LDR       A2, [SP, #0]          ; [DPU_V7M3_PIPE] |132| 
        LDR       A3, [SP, #8]          ; [DPU_V7M3_PIPE] |132| 
        LDRB      A1, [SP, #12]         ; [DPU_V7M3_PIPE] |132| 
        STRB      A1, [A3, +A2]         ; [DPU_V7M3_PIPE] |132| 
	.dwpsn	file "../driverlib/usb.c",line 133,column 5,is_stmt,isa 1
        B         ||$C$L2||             ; [DPU_V7M3_PIPE] |133| 
        ; BRANCH OCCURS {||$C$L2||}      ; [] |133| 
;* --------------------------------------------------------------------------*
||$C$L1||:    
	.dwpsn	file "../driverlib/usb.c",line 139,column 9,is_stmt,isa 1
        LDR       A2, [SP, #0]          ; [DPU_V7M3_PIPE] |139| 
        LDR       A3, [SP, #8]          ; [DPU_V7M3_PIPE] |139| 
        LDRH      A1, [SP, #12]         ; [DPU_V7M3_PIPE] |139| 
        STRH      A1, [A3, +A2]         ; [DPU_V7M3_PIPE] |139| 
;* --------------------------------------------------------------------------*
||$C$L2||:    
	.dwpsn	file "../driverlib/usb.c",line 145,column 5,is_stmt,isa 1
        LDRB      A1, [SP, #16]         ; [DPU_V7M3_PIPE] |145| 
        LDR       A2, [SP, #0]          ; [DPU_V7M3_PIPE] |145| 
        STRB      A1, [A2, #14]         ; [DPU_V7M3_PIPE] |145| 
	.dwpsn	file "../driverlib/usb.c",line 146,column 1,is_stmt,isa 1
        ADD       SP, SP, #24           ; [DPU_V7M3_PIPE] 
	.dwcfi	cfa_offset, 0
$C$DW$21	.dwtag  DW_TAG_TI_branch
	.dwattr $C$DW$21, DW_AT_low_pc(0x00)
	.dwattr $C$DW$21, DW_AT_TI_return

        BX        LR                    ; [DPU_V7M3_PIPE] 
        ; BRANCH OCCURS                  ; [] 
	.dwattr $C$DW$10, DW_AT_TI_end_file("../driverlib/usb.c")
	.dwattr $C$DW$10, DW_AT_TI_end_line(0x92)
	.dwattr $C$DW$10, DW_AT_TI_end_column(0x01)
	.dwendentry
	.dwendtag $C$DW$10

	.sect	".text"
	.clink
	.thumbfunc _USBIndexRead
	.thumb

$C$DW$22	.dwtag  DW_TAG_subprogram
	.dwattr $C$DW$22, DW_AT_name("_USBIndexRead")
	.dwattr $C$DW$22, DW_AT_low_pc(_USBIndexRead)
	.dwattr $C$DW$22, DW_AT_high_pc(0x00)
	.dwattr $C$DW$22, DW_AT_TI_symbol_name("_USBIndexRead")
	.dwattr $C$DW$22, DW_AT_type(*$C$DW$T$25)
	.dwattr $C$DW$22, DW_AT_TI_begin_file("../driverlib/usb.c")
	.dwattr $C$DW$22, DW_AT_TI_begin_line(0xa5)
	.dwattr $C$DW$22, DW_AT_TI_begin_column(0x01)
	.dwattr $C$DW$22, DW_AT_decl_file("../driverlib/usb.c")
	.dwattr $C$DW$22, DW_AT_decl_line(0xa5)
	.dwattr $C$DW$22, DW_AT_decl_column(0x01)
	.dwattr $C$DW$22, DW_AT_TI_max_frame_size(0x18)
	.dwpsn	file "../driverlib/usb.c",line 167,column 1,is_stmt,address _USBIndexRead,isa 1

	.dwfde $C$DW$CIE, _USBIndexRead
$C$DW$23	.dwtag  DW_TAG_formal_parameter
	.dwattr $C$DW$23, DW_AT_name("ui32Base")
	.dwattr $C$DW$23, DW_AT_TI_symbol_name("ui32Base")
	.dwattr $C$DW$23, DW_AT_type(*$C$DW$T$25)
	.dwattr $C$DW$23, DW_AT_location[DW_OP_reg0]

$C$DW$24	.dwtag  DW_TAG_formal_parameter
	.dwattr $C$DW$24, DW_AT_name("ui32Endpoint")
	.dwattr $C$DW$24, DW_AT_TI_symbol_name("ui32Endpoint")
	.dwattr $C$DW$24, DW_AT_type(*$C$DW$T$25)
	.dwattr $C$DW$24, DW_AT_location[DW_OP_reg1]

$C$DW$25	.dwtag  DW_TAG_formal_parameter
	.dwattr $C$DW$25, DW_AT_name("ui32IndexedReg")
	.dwattr $C$DW$25, DW_AT_TI_symbol_name("ui32IndexedReg")
	.dwattr $C$DW$25, DW_AT_type(*$C$DW$T$25)
	.dwattr $C$DW$25, DW_AT_location[DW_OP_reg2]

$C$DW$26	.dwtag  DW_TAG_formal_parameter
	.dwattr $C$DW$26, DW_AT_name("ui32Size")
	.dwattr $C$DW$26, DW_AT_TI_symbol_name("ui32Size")
	.dwattr $C$DW$26, DW_AT_type(*$C$DW$T$25)
	.dwattr $C$DW$26, DW_AT_location[DW_OP_reg3]


;*****************************************************************************
;* FUNCTION NAME: _USBIndexRead                                              *
;*                                                                           *
;*   Regs Modified     : A1,A2,SP,SR                                         *
;*   Regs Used         : A1,A2,A3,A4,SP,LR,SR                                *
;*   Local Frame Size  : 0 Args + 24 Auto + 0 Save = 24 byte                 *
;*****************************************************************************
_USBIndexRead:
;* --------------------------------------------------------------------------*
	.dwcfi	cfa_offset, 0
        SUB       SP, SP, #24           ; [DPU_V7M3_PIPE] 
	.dwcfi	cfa_offset, 24
$C$DW$27	.dwtag  DW_TAG_variable
	.dwattr $C$DW$27, DW_AT_name("ui32Base")
	.dwattr $C$DW$27, DW_AT_TI_symbol_name("ui32Base")
	.dwattr $C$DW$27, DW_AT_type(*$C$DW$T$25)
	.dwattr $C$DW$27, DW_AT_location[DW_OP_breg13 0]

$C$DW$28	.dwtag  DW_TAG_variable
	.dwattr $C$DW$28, DW_AT_name("ui32Endpoint")
	.dwattr $C$DW$28, DW_AT_TI_symbol_name("ui32Endpoint")
	.dwattr $C$DW$28, DW_AT_type(*$C$DW$T$25)
	.dwattr $C$DW$28, DW_AT_location[DW_OP_breg13 4]

$C$DW$29	.dwtag  DW_TAG_variable
	.dwattr $C$DW$29, DW_AT_name("ui32IndexedReg")
	.dwattr $C$DW$29, DW_AT_TI_symbol_name("ui32IndexedReg")
	.dwattr $C$DW$29, DW_AT_type(*$C$DW$T$25)
	.dwattr $C$DW$29, DW_AT_location[DW_OP_breg13 8]

$C$DW$30	.dwtag  DW_TAG_variable
	.dwattr $C$DW$30, DW_AT_name("ui32Size")
	.dwattr $C$DW$30, DW_AT_TI_symbol_name("ui32Size")
	.dwattr $C$DW$30, DW_AT_type(*$C$DW$T$25)
	.dwattr $C$DW$30, DW_AT_location[DW_OP_breg13 12]

$C$DW$31	.dwtag  DW_TAG_variable
	.dwattr $C$DW$31, DW_AT_name("ui32Value")
	.dwattr $C$DW$31, DW_AT_TI_symbol_name("ui32Value")
	.dwattr $C$DW$31, DW_AT_type(*$C$DW$T$25)
	.dwattr $C$DW$31, DW_AT_location[DW_OP_breg13 16]

$C$DW$32	.dwtag  DW_TAG_variable
	.dwattr $C$DW$32, DW_AT_name("ui8Index")
	.dwattr $C$DW$32, DW_AT_TI_symbol_name("ui8Index")
	.dwattr $C$DW$32, DW_AT_type(*$C$DW$T$53)
	.dwattr $C$DW$32, DW_AT_location[DW_OP_breg13 20]

        STR       A4, [SP, #12]         ; [DPU_V7M3_PIPE] |167| 
        STR       A3, [SP, #8]          ; [DPU_V7M3_PIPE] |167| 
        STR       A2, [SP, #4]          ; [DPU_V7M3_PIPE] |167| 
        STR       A1, [SP, #0]          ; [DPU_V7M3_PIPE] |167| 
	.dwpsn	file "../driverlib/usb.c",line 182,column 5,is_stmt,isa 1
        LDR       A1, [SP, #0]          ; [DPU_V7M3_PIPE] |182| 
        LDRB      A1, [A1, #14]         ; [DPU_V7M3_PIPE] |182| 
        STRB      A1, [SP, #20]         ; [DPU_V7M3_PIPE] |182| 
	.dwpsn	file "../driverlib/usb.c",line 187,column 5,is_stmt,isa 1
        LDR       A2, [SP, #0]          ; [DPU_V7M3_PIPE] |187| 
        LDRB      A1, [SP, #4]          ; [DPU_V7M3_PIPE] |187| 
        STRB      A1, [A2, #14]         ; [DPU_V7M3_PIPE] |187| 
	.dwpsn	file "../driverlib/usb.c",line 192,column 5,is_stmt,isa 1
        LDR       A1, [SP, #12]         ; [DPU_V7M3_PIPE] |192| 
        CMP       A1, #1                ; [DPU_V7M3_PIPE] |192| 
        BNE       ||$C$L3||             ; [DPU_V7M3_PIPE] |192| 
        ; BRANCHCC OCCURS {||$C$L3||}    ; [] |192| 
;* --------------------------------------------------------------------------*
	.dwpsn	file "../driverlib/usb.c",line 197,column 9,is_stmt,isa 1
        LDR       A1, [SP, #0]          ; [DPU_V7M3_PIPE] |197| 
        LDR       A2, [SP, #8]          ; [DPU_V7M3_PIPE] |197| 
        LDRB      A1, [A2, +A1]         ; [DPU_V7M3_PIPE] |197| 
        STR       A1, [SP, #16]         ; [DPU_V7M3_PIPE] |197| 
	.dwpsn	file "../driverlib/usb.c",line 198,column 5,is_stmt,isa 1
        B         ||$C$L4||             ; [DPU_V7M3_PIPE] |198| 
        ; BRANCH OCCURS {||$C$L4||}      ; [] |198| 
;* --------------------------------------------------------------------------*
||$C$L3||:    
	.dwpsn	file "../driverlib/usb.c",line 204,column 9,is_stmt,isa 1
        LDR       A1, [SP, #0]          ; [DPU_V7M3_PIPE] |204| 
        LDR       A2, [SP, #8]          ; [DPU_V7M3_PIPE] |204| 
        LDRH      A1, [A2, +A1]         ; [DPU_V7M3_PIPE] |204| 
        STR       A1, [SP, #16]         ; [DPU_V7M3_PIPE] |204| 
;* --------------------------------------------------------------------------*
||$C$L4||:    
	.dwpsn	file "../driverlib/usb.c",line 210,column 5,is_stmt,isa 1
        LDRB      A1, [SP, #20]         ; [DPU_V7M3_PIPE] |210| 
        LDR       A2, [SP, #0]          ; [DPU_V7M3_PIPE] |210| 
        STRB      A1, [A2, #14]         ; [DPU_V7M3_PIPE] |210| 
	.dwpsn	file "../driverlib/usb.c",line 215,column 5,is_stmt,isa 1
        LDR       A1, [SP, #16]         ; [DPU_V7M3_PIPE] |215| 
	.dwpsn	file "../driverlib/usb.c",line 216,column 1,is_stmt,isa 1
        ADD       SP, SP, #24           ; [DPU_V7M3_PIPE] 
	.dwcfi	cfa_offset, 0
$C$DW$33	.dwtag  DW_TAG_TI_branch
	.dwattr $C$DW$33, DW_AT_low_pc(0x00)
	.dwattr $C$DW$33, DW_AT_TI_return

        BX        LR                    ; [DPU_V7M3_PIPE] 
        ; BRANCH OCCURS                  ; [] 
	.dwattr $C$DW$22, DW_AT_TI_end_file("../driverlib/usb.c")
	.dwattr $C$DW$22, DW_AT_TI_end_line(0xd8)
	.dwattr $C$DW$22, DW_AT_TI_end_column(0x01)
	.dwendentry
	.dwendtag $C$DW$22

	.sect	".text"
	.clink
	.thumbfunc USBHostSuspend
	.thumb
	.global	USBHostSuspend

$C$DW$34	.dwtag  DW_TAG_subprogram
	.dwattr $C$DW$34, DW_AT_name("USBHostSuspend")
	.dwattr $C$DW$34, DW_AT_low_pc(USBHostSuspend)
	.dwattr $C$DW$34, DW_AT_high_pc(0x00)
	.dwattr $C$DW$34, DW_AT_TI_symbol_name("USBHostSuspend")
	.dwattr $C$DW$34, DW_AT_external
	.dwattr $C$DW$34, DW_AT_TI_begin_file("../driverlib/usb.c")
	.dwattr $C$DW$34, DW_AT_TI_begin_line(0xe9)
	.dwattr $C$DW$34, DW_AT_TI_begin_column(0x01)
	.dwattr $C$DW$34, DW_AT_decl_file("../driverlib/usb.c")
	.dwattr $C$DW$34, DW_AT_decl_line(0xe9)
	.dwattr $C$DW$34, DW_AT_decl_column(0x01)
	.dwattr $C$DW$34, DW_AT_TI_max_frame_size(0x08)
	.dwpsn	file "../driverlib/usb.c",line 234,column 1,is_stmt,address USBHostSuspend,isa 1

	.dwfde $C$DW$CIE, USBHostSuspend
$C$DW$35	.dwtag  DW_TAG_formal_parameter
	.dwattr $C$DW$35, DW_AT_name("ui32Base")
	.dwattr $C$DW$35, DW_AT_TI_symbol_name("ui32Base")
	.dwattr $C$DW$35, DW_AT_type(*$C$DW$T$25)
	.dwattr $C$DW$35, DW_AT_location[DW_OP_reg0]


;*****************************************************************************
;* FUNCTION NAME: USBHostSuspend                                             *
;*                                                                           *
;*   Regs Modified     : A1,A2,SP,SR                                         *
;*   Regs Used         : A1,A2,SP,LR,SR                                      *
;*   Local Frame Size  : 0 Args + 4 Auto + 0 Save = 4 byte                   *
;*****************************************************************************
USBHostSuspend:
;* --------------------------------------------------------------------------*
	.dwcfi	cfa_offset, 0
        SUB       SP, SP, #8            ; [DPU_V7M3_PIPE] 
	.dwcfi	cfa_offset, 8
$C$DW$36	.dwtag  DW_TAG_variable
	.dwattr $C$DW$36, DW_AT_name("ui32Base")
	.dwattr $C$DW$36, DW_AT_TI_symbol_name("ui32Base")
	.dwattr $C$DW$36, DW_AT_type(*$C$DW$T$25)
	.dwattr $C$DW$36, DW_AT_location[DW_OP_breg13 0]

        STR       A1, [SP, #0]          ; [DPU_V7M3_PIPE] |234| 
	.dwpsn	file "../driverlib/usb.c",line 243,column 5,is_stmt,isa 1
        LDR       A1, [SP, #0]          ; [DPU_V7M3_PIPE] |243| 
        ADDS      A1, A1, #1            ; [DPU_V7M3_PIPE] |243| 
        LDRB      A2, [A1, #0]          ; [DPU_V7M3_PIPE] |243| 
        ORR       A2, A2, #2            ; [DPU_V7M3_PIPE] |243| 
        STRB      A2, [A1, #0]          ; [DPU_V7M3_PIPE] |243| 
	.dwpsn	file "../driverlib/usb.c",line 244,column 1,is_stmt,isa 1
        ADD       SP, SP, #8            ; [DPU_V7M3_PIPE] 
	.dwcfi	cfa_offset, 0
$C$DW$37	.dwtag  DW_TAG_TI_branch
	.dwattr $C$DW$37, DW_AT_low_pc(0x00)
	.dwattr $C$DW$37, DW_AT_TI_return

        BX        LR                    ; [DPU_V7M3_PIPE] 
        ; BRANCH OCCURS                  ; [] 
	.dwattr $C$DW$34, DW_AT_TI_end_file("../driverlib/usb.c")
	.dwattr $C$DW$34, DW_AT_TI_end_line(0xf4)
	.dwattr $C$DW$34, DW_AT_TI_end_column(0x01)
	.dwendentry
	.dwendtag $C$DW$34

	.sect	".text"
	.clink
	.thumbfunc USBHostReset
	.thumb
	.global	USBHostReset

$C$DW$38	.dwtag  DW_TAG_subprogram
	.dwattr $C$DW$38, DW_AT_name("USBHostReset")
	.dwattr $C$DW$38, DW_AT_low_pc(USBHostReset)
	.dwattr $C$DW$38, DW_AT_high_pc(0x00)
	.dwattr $C$DW$38, DW_AT_TI_symbol_name("USBHostReset")
	.dwattr $C$DW$38, DW_AT_external
	.dwattr $C$DW$38, DW_AT_TI_begin_file("../driverlib/usb.c")
	.dwattr $C$DW$38, DW_AT_TI_begin_line(0x109)
	.dwattr $C$DW$38, DW_AT_TI_begin_column(0x01)
	.dwattr $C$DW$38, DW_AT_decl_file("../driverlib/usb.c")
	.dwattr $C$DW$38, DW_AT_decl_line(0x109)
	.dwattr $C$DW$38, DW_AT_decl_column(0x01)
	.dwattr $C$DW$38, DW_AT_TI_max_frame_size(0x08)
	.dwpsn	file "../driverlib/usb.c",line 266,column 1,is_stmt,address USBHostReset,isa 1

	.dwfde $C$DW$CIE, USBHostReset
$C$DW$39	.dwtag  DW_TAG_formal_parameter
	.dwattr $C$DW$39, DW_AT_name("ui32Base")
	.dwattr $C$DW$39, DW_AT_TI_symbol_name("ui32Base")
	.dwattr $C$DW$39, DW_AT_type(*$C$DW$T$25)
	.dwattr $C$DW$39, DW_AT_location[DW_OP_reg0]

$C$DW$40	.dwtag  DW_TAG_formal_parameter
	.dwattr $C$DW$40, DW_AT_name("bStart")
	.dwattr $C$DW$40, DW_AT_TI_symbol_name("bStart")
	.dwattr $C$DW$40, DW_AT_type(*$C$DW$T$10)
	.dwattr $C$DW$40, DW_AT_location[DW_OP_reg1]


;*****************************************************************************
;* FUNCTION NAME: USBHostReset                                               *
;*                                                                           *
;*   Regs Modified     : A1,A2,SP,SR                                         *
;*   Regs Used         : A1,A2,SP,LR,SR                                      *
;*   Local Frame Size  : 0 Args + 8 Auto + 0 Save = 8 byte                   *
;*****************************************************************************
USBHostReset:
;* --------------------------------------------------------------------------*
	.dwcfi	cfa_offset, 0
        SUB       SP, SP, #8            ; [DPU_V7M3_PIPE] 
	.dwcfi	cfa_offset, 8
$C$DW$41	.dwtag  DW_TAG_variable
	.dwattr $C$DW$41, DW_AT_name("ui32Base")
	.dwattr $C$DW$41, DW_AT_TI_symbol_name("ui32Base")
	.dwattr $C$DW$41, DW_AT_type(*$C$DW$T$25)
	.dwattr $C$DW$41, DW_AT_location[DW_OP_breg13 0]

$C$DW$42	.dwtag  DW_TAG_variable
	.dwattr $C$DW$42, DW_AT_name("bStart")
	.dwattr $C$DW$42, DW_AT_TI_symbol_name("bStart")
	.dwattr $C$DW$42, DW_AT_type(*$C$DW$T$40)
	.dwattr $C$DW$42, DW_AT_location[DW_OP_breg13 4]

        STRB      A2, [SP, #4]          ; [DPU_V7M3_PIPE] |266| 
        STR       A1, [SP, #0]          ; [DPU_V7M3_PIPE] |266| 
	.dwpsn	file "../driverlib/usb.c",line 275,column 5,is_stmt,isa 1
        LDRB      A1, [SP, #4]          ; [DPU_V7M3_PIPE] |275| 
        CBZ       A1, ||$C$L5||         ; [] 
        ; BRANCHCC OCCURS {||$C$L5||}    ; [] |275| 
;* --------------------------------------------------------------------------*
	.dwpsn	file "../driverlib/usb.c",line 277,column 9,is_stmt,isa 1
        LDR       A1, [SP, #0]          ; [DPU_V7M3_PIPE] |277| 
        ADDS      A1, A1, #1            ; [DPU_V7M3_PIPE] |277| 
        LDRB      A2, [A1, #0]          ; [DPU_V7M3_PIPE] |277| 
        ORR       A2, A2, #8            ; [DPU_V7M3_PIPE] |277| 
        STRB      A2, [A1, #0]          ; [DPU_V7M3_PIPE] |277| 
	.dwpsn	file "../driverlib/usb.c",line 278,column 5,is_stmt,isa 1
        B         ||$C$L6||             ; [DPU_V7M3_PIPE] |278| 
        ; BRANCH OCCURS {||$C$L6||}      ; [] |278| 
;* --------------------------------------------------------------------------*
||$C$L5||:    
	.dwpsn	file "../driverlib/usb.c",line 281,column 9,is_stmt,isa 1
        LDR       A1, [SP, #0]          ; [DPU_V7M3_PIPE] |281| 
        ADDS      A1, A1, #1            ; [DPU_V7M3_PIPE] |281| 
        LDRB      A2, [A1, #0]          ; [DPU_V7M3_PIPE] |281| 
        BIC       A2, A2, #8            ; [DPU_V7M3_PIPE] |281| 
        STRB      A2, [A1, #0]          ; [DPU_V7M3_PIPE] |281| 
	.dwpsn	file "../driverlib/usb.c",line 283,column 1,is_stmt,isa 1
;* --------------------------------------------------------------------------*
||$C$L6||:    
        ADD       SP, SP, #8            ; [DPU_V7M3_PIPE] 
	.dwcfi	cfa_offset, 0
$C$DW$43	.dwtag  DW_TAG_TI_branch
	.dwattr $C$DW$43, DW_AT_low_pc(0x00)
	.dwattr $C$DW$43, DW_AT_TI_return

        BX        LR                    ; [DPU_V7M3_PIPE] 
        ; BRANCH OCCURS                  ; [] 
	.dwattr $C$DW$38, DW_AT_TI_end_file("../driverlib/usb.c")
	.dwattr $C$DW$38, DW_AT_TI_end_line(0x11b)
	.dwattr $C$DW$38, DW_AT_TI_end_column(0x01)
	.dwendentry
	.dwendtag $C$DW$38

	.sect	".text"
	.clink
	.thumbfunc USBHighSpeed
	.thumb
	.global	USBHighSpeed

$C$DW$44	.dwtag  DW_TAG_subprogram
	.dwattr $C$DW$44, DW_AT_name("USBHighSpeed")
	.dwattr $C$DW$44, DW_AT_low_pc(USBHighSpeed)
	.dwattr $C$DW$44, DW_AT_high_pc(0x00)
	.dwattr $C$DW$44, DW_AT_TI_symbol_name("USBHighSpeed")
	.dwattr $C$DW$44, DW_AT_external
	.dwattr $C$DW$44, DW_AT_TI_begin_file("../driverlib/usb.c")
	.dwattr $C$DW$44, DW_AT_TI_begin_line(0x13f)
	.dwattr $C$DW$44, DW_AT_TI_begin_column(0x01)
	.dwattr $C$DW$44, DW_AT_decl_file("../driverlib/usb.c")
	.dwattr $C$DW$44, DW_AT_decl_line(0x13f)
	.dwattr $C$DW$44, DW_AT_decl_column(0x01)
	.dwattr $C$DW$44, DW_AT_TI_max_frame_size(0x08)
	.dwpsn	file "../driverlib/usb.c",line 320,column 1,is_stmt,address USBHighSpeed,isa 1

	.dwfde $C$DW$CIE, USBHighSpeed
$C$DW$45	.dwtag  DW_TAG_formal_parameter
	.dwattr $C$DW$45, DW_AT_name("ui32Base")
	.dwattr $C$DW$45, DW_AT_TI_symbol_name("ui32Base")
	.dwattr $C$DW$45, DW_AT_type(*$C$DW$T$25)
	.dwattr $C$DW$45, DW_AT_location[DW_OP_reg0]

$C$DW$46	.dwtag  DW_TAG_formal_parameter
	.dwattr $C$DW$46, DW_AT_name("bEnable")
	.dwattr $C$DW$46, DW_AT_TI_symbol_name("bEnable")
	.dwattr $C$DW$46, DW_AT_type(*$C$DW$T$10)
	.dwattr $C$DW$46, DW_AT_location[DW_OP_reg1]


;*****************************************************************************
;* FUNCTION NAME: USBHighSpeed                                               *
;*                                                                           *
;*   Regs Modified     : A1,A2,SP,SR                                         *
;*   Regs Used         : A1,A2,SP,LR,SR                                      *
;*   Local Frame Size  : 0 Args + 8 Auto + 0 Save = 8 byte                   *
;*****************************************************************************
USBHighSpeed:
;* --------------------------------------------------------------------------*
	.dwcfi	cfa_offset, 0
        SUB       SP, SP, #8            ; [DPU_V7M3_PIPE] 
	.dwcfi	cfa_offset, 8
$C$DW$47	.dwtag  DW_TAG_variable
	.dwattr $C$DW$47, DW_AT_name("ui32Base")
	.dwattr $C$DW$47, DW_AT_TI_symbol_name("ui32Base")
	.dwattr $C$DW$47, DW_AT_type(*$C$DW$T$25)
	.dwattr $C$DW$47, DW_AT_location[DW_OP_breg13 0]

$C$DW$48	.dwtag  DW_TAG_variable
	.dwattr $C$DW$48, DW_AT_name("bEnable")
	.dwattr $C$DW$48, DW_AT_TI_symbol_name("bEnable")
	.dwattr $C$DW$48, DW_AT_type(*$C$DW$T$40)
	.dwattr $C$DW$48, DW_AT_location[DW_OP_breg13 4]

        STRB      A2, [SP, #4]          ; [DPU_V7M3_PIPE] |320| 
        STR       A1, [SP, #0]          ; [DPU_V7M3_PIPE] |320| 
	.dwpsn	file "../driverlib/usb.c",line 326,column 5,is_stmt,isa 1
        LDRB      A1, [SP, #4]          ; [DPU_V7M3_PIPE] |326| 
        CBZ       A1, ||$C$L7||         ; [] 
        ; BRANCHCC OCCURS {||$C$L7||}    ; [] |326| 
;* --------------------------------------------------------------------------*
	.dwpsn	file "../driverlib/usb.c",line 331,column 9,is_stmt,isa 1
        LDR       A1, [SP, #0]          ; [DPU_V7M3_PIPE] |331| 
        ADDS      A1, A1, #1            ; [DPU_V7M3_PIPE] |331| 
        LDRB      A2, [A1, #0]          ; [DPU_V7M3_PIPE] |331| 
        ORR       A2, A2, #32           ; [DPU_V7M3_PIPE] |331| 
        STRB      A2, [A1, #0]          ; [DPU_V7M3_PIPE] |331| 
	.dwpsn	file "../driverlib/usb.c",line 332,column 5,is_stmt,isa 1
        B         ||$C$L8||             ; [DPU_V7M3_PIPE] |332| 
        ; BRANCH OCCURS {||$C$L8||}      ; [] |332| 
;* --------------------------------------------------------------------------*
||$C$L7||:    
	.dwpsn	file "../driverlib/usb.c",line 338,column 9,is_stmt,isa 1
        LDR       A1, [SP, #0]          ; [DPU_V7M3_PIPE] |338| 
        ADDS      A1, A1, #1            ; [DPU_V7M3_PIPE] |338| 
        LDRB      A2, [A1, #0]          ; [DPU_V7M3_PIPE] |338| 
        BIC       A2, A2, #32           ; [DPU_V7M3_PIPE] |338| 
        STRB      A2, [A1, #0]          ; [DPU_V7M3_PIPE] |338| 
	.dwpsn	file "../driverlib/usb.c",line 340,column 1,is_stmt,isa 1
;* --------------------------------------------------------------------------*
||$C$L8||:    
        ADD       SP, SP, #8            ; [DPU_V7M3_PIPE] 
	.dwcfi	cfa_offset, 0
$C$DW$49	.dwtag  DW_TAG_TI_branch
	.dwattr $C$DW$49, DW_AT_low_pc(0x00)
	.dwattr $C$DW$49, DW_AT_TI_return

        BX        LR                    ; [DPU_V7M3_PIPE] 
        ; BRANCH OCCURS                  ; [] 
	.dwattr $C$DW$44, DW_AT_TI_end_file("../driverlib/usb.c")
	.dwattr $C$DW$44, DW_AT_TI_end_line(0x154)
	.dwattr $C$DW$44, DW_AT_TI_end_column(0x01)
	.dwendentry
	.dwendtag $C$DW$44

	.sect	".text"
	.clink
	.thumbfunc USBHostResume
	.thumb
	.global	USBHostResume

$C$DW$50	.dwtag  DW_TAG_subprogram
	.dwattr $C$DW$50, DW_AT_name("USBHostResume")
	.dwattr $C$DW$50, DW_AT_low_pc(USBHostResume)
	.dwattr $C$DW$50, DW_AT_high_pc(0x00)
	.dwattr $C$DW$50, DW_AT_TI_symbol_name("USBHostResume")
	.dwattr $C$DW$50, DW_AT_external
	.dwattr $C$DW$50, DW_AT_TI_begin_file("../driverlib/usb.c")
	.dwattr $C$DW$50, DW_AT_TI_begin_line(0x171)
	.dwattr $C$DW$50, DW_AT_TI_begin_column(0x01)
	.dwattr $C$DW$50, DW_AT_decl_file("../driverlib/usb.c")
	.dwattr $C$DW$50, DW_AT_decl_line(0x171)
	.dwattr $C$DW$50, DW_AT_decl_column(0x01)
	.dwattr $C$DW$50, DW_AT_TI_max_frame_size(0x08)
	.dwpsn	file "../driverlib/usb.c",line 370,column 1,is_stmt,address USBHostResume,isa 1

	.dwfde $C$DW$CIE, USBHostResume
$C$DW$51	.dwtag  DW_TAG_formal_parameter
	.dwattr $C$DW$51, DW_AT_name("ui32Base")
	.dwattr $C$DW$51, DW_AT_TI_symbol_name("ui32Base")
	.dwattr $C$DW$51, DW_AT_type(*$C$DW$T$25)
	.dwattr $C$DW$51, DW_AT_location[DW_OP_reg0]

$C$DW$52	.dwtag  DW_TAG_formal_parameter
	.dwattr $C$DW$52, DW_AT_name("bStart")
	.dwattr $C$DW$52, DW_AT_TI_symbol_name("bStart")
	.dwattr $C$DW$52, DW_AT_type(*$C$DW$T$10)
	.dwattr $C$DW$52, DW_AT_location[DW_OP_reg1]


;*****************************************************************************
;* FUNCTION NAME: USBHostResume                                              *
;*                                                                           *
;*   Regs Modified     : A1,A2,SP,SR                                         *
;*   Regs Used         : A1,A2,SP,LR,SR                                      *
;*   Local Frame Size  : 0 Args + 8 Auto + 0 Save = 8 byte                   *
;*****************************************************************************
USBHostResume:
;* --------------------------------------------------------------------------*
	.dwcfi	cfa_offset, 0
        SUB       SP, SP, #8            ; [DPU_V7M3_PIPE] 
	.dwcfi	cfa_offset, 8
$C$DW$53	.dwtag  DW_TAG_variable
	.dwattr $C$DW$53, DW_AT_name("ui32Base")
	.dwattr $C$DW$53, DW_AT_TI_symbol_name("ui32Base")
	.dwattr $C$DW$53, DW_AT_type(*$C$DW$T$25)
	.dwattr $C$DW$53, DW_AT_location[DW_OP_breg13 0]

$C$DW$54	.dwtag  DW_TAG_variable
	.dwattr $C$DW$54, DW_AT_name("bStart")
	.dwattr $C$DW$54, DW_AT_TI_symbol_name("bStart")
	.dwattr $C$DW$54, DW_AT_type(*$C$DW$T$40)
	.dwattr $C$DW$54, DW_AT_location[DW_OP_breg13 4]

        STRB      A2, [SP, #4]          ; [DPU_V7M3_PIPE] |370| 
        STR       A1, [SP, #0]          ; [DPU_V7M3_PIPE] |370| 
	.dwpsn	file "../driverlib/usb.c",line 379,column 5,is_stmt,isa 1
        LDRB      A1, [SP, #4]          ; [DPU_V7M3_PIPE] |379| 
        CBZ       A1, ||$C$L9||         ; [] 
        ; BRANCHCC OCCURS {||$C$L9||}    ; [] |379| 
;* --------------------------------------------------------------------------*
	.dwpsn	file "../driverlib/usb.c",line 381,column 9,is_stmt,isa 1
        LDR       A1, [SP, #0]          ; [DPU_V7M3_PIPE] |381| 
        ADDS      A1, A1, #1            ; [DPU_V7M3_PIPE] |381| 
        LDRB      A2, [A1, #0]          ; [DPU_V7M3_PIPE] |381| 
        ORR       A2, A2, #4            ; [DPU_V7M3_PIPE] |381| 
        STRB      A2, [A1, #0]          ; [DPU_V7M3_PIPE] |381| 
	.dwpsn	file "../driverlib/usb.c",line 382,column 5,is_stmt,isa 1
        B         ||$C$L10||            ; [DPU_V7M3_PIPE] |382| 
        ; BRANCH OCCURS {||$C$L10||}     ; [] |382| 
;* --------------------------------------------------------------------------*
||$C$L9||:    
	.dwpsn	file "../driverlib/usb.c",line 385,column 9,is_stmt,isa 1
        LDR       A1, [SP, #0]          ; [DPU_V7M3_PIPE] |385| 
        ADDS      A1, A1, #1            ; [DPU_V7M3_PIPE] |385| 
        LDRB      A2, [A1, #0]          ; [DPU_V7M3_PIPE] |385| 
        BIC       A2, A2, #4            ; [DPU_V7M3_PIPE] |385| 
        STRB      A2, [A1, #0]          ; [DPU_V7M3_PIPE] |385| 
	.dwpsn	file "../driverlib/usb.c",line 387,column 1,is_stmt,isa 1
;* --------------------------------------------------------------------------*
||$C$L10||:    
        ADD       SP, SP, #8            ; [DPU_V7M3_PIPE] 
	.dwcfi	cfa_offset, 0
$C$DW$55	.dwtag  DW_TAG_TI_branch
	.dwattr $C$DW$55, DW_AT_low_pc(0x00)
	.dwattr $C$DW$55, DW_AT_TI_return

        BX        LR                    ; [DPU_V7M3_PIPE] 
        ; BRANCH OCCURS                  ; [] 
	.dwattr $C$DW$50, DW_AT_TI_end_file("../driverlib/usb.c")
	.dwattr $C$DW$50, DW_AT_TI_end_line(0x183)
	.dwattr $C$DW$50, DW_AT_TI_end_column(0x01)
	.dwendentry
	.dwendtag $C$DW$50

	.sect	".text"
	.clink
	.thumbfunc USBHostSpeedGet
	.thumb
	.global	USBHostSpeedGet

$C$DW$56	.dwtag  DW_TAG_subprogram
	.dwattr $C$DW$56, DW_AT_name("USBHostSpeedGet")
	.dwattr $C$DW$56, DW_AT_low_pc(USBHostSpeedGet)
	.dwattr $C$DW$56, DW_AT_high_pc(0x00)
	.dwattr $C$DW$56, DW_AT_TI_symbol_name("USBHostSpeedGet")
	.dwattr $C$DW$56, DW_AT_external
	.dwattr $C$DW$56, DW_AT_type(*$C$DW$T$25)
	.dwattr $C$DW$56, DW_AT_TI_begin_file("../driverlib/usb.c")
	.dwattr $C$DW$56, DW_AT_TI_begin_line(0x19d)
	.dwattr $C$DW$56, DW_AT_TI_begin_column(0x01)
	.dwattr $C$DW$56, DW_AT_decl_file("../driverlib/usb.c")
	.dwattr $C$DW$56, DW_AT_decl_line(0x19d)
	.dwattr $C$DW$56, DW_AT_decl_column(0x01)
	.dwattr $C$DW$56, DW_AT_TI_max_frame_size(0x08)
	.dwpsn	file "../driverlib/usb.c",line 414,column 1,is_stmt,address USBHostSpeedGet,isa 1

	.dwfde $C$DW$CIE, USBHostSpeedGet
$C$DW$57	.dwtag  DW_TAG_formal_parameter
	.dwattr $C$DW$57, DW_AT_name("ui32Base")
	.dwattr $C$DW$57, DW_AT_TI_symbol_name("ui32Base")
	.dwattr $C$DW$57, DW_AT_type(*$C$DW$T$25)
	.dwattr $C$DW$57, DW_AT_location[DW_OP_reg0]


;*****************************************************************************
;* FUNCTION NAME: USBHostSpeedGet                                            *
;*                                                                           *
;*   Regs Modified     : A1,SP,SR                                            *
;*   Regs Used         : A1,SP,LR,SR                                         *
;*   Local Frame Size  : 0 Args + 4 Auto + 0 Save = 4 byte                   *
;*****************************************************************************
USBHostSpeedGet:
;* --------------------------------------------------------------------------*
	.dwcfi	cfa_offset, 0
        SUB       SP, SP, #8            ; [DPU_V7M3_PIPE] 
	.dwcfi	cfa_offset, 8
$C$DW$58	.dwtag  DW_TAG_variable
	.dwattr $C$DW$58, DW_AT_name("ui32Base")
	.dwattr $C$DW$58, DW_AT_TI_symbol_name("ui32Base")
	.dwattr $C$DW$58, DW_AT_type(*$C$DW$T$25)
	.dwattr $C$DW$58, DW_AT_location[DW_OP_breg13 0]

        STR       A1, [SP, #0]          ; [DPU_V7M3_PIPE] |414| 
	.dwpsn	file "../driverlib/usb.c",line 423,column 5,is_stmt,isa 1
        LDR       A1, [SP, #0]          ; [DPU_V7M3_PIPE] |423| 
        LDRB      A1, [A1, #1]          ; [DPU_V7M3_PIPE] |423| 
        LSRS      A1, A1, #5            ; [DPU_V7M3_PIPE] |423| 
        BCC       ||$C$L11||            ; [DPU_V7M3_PIPE] |423| 
        ; BRANCHCC OCCURS {||$C$L11||}   ; [] |423| 
;* --------------------------------------------------------------------------*
	.dwpsn	file "../driverlib/usb.c",line 425,column 9,is_stmt,isa 1
        MOVS      A1, #2                ; [DPU_V7M3_PIPE] |425| 
        B         ||$C$L14||            ; [DPU_V7M3_PIPE] |425| 
        ; BRANCH OCCURS {||$C$L14||}     ; [] |425| 
;* --------------------------------------------------------------------------*
||$C$L11||:    
	.dwpsn	file "../driverlib/usb.c",line 431,column 5,is_stmt,isa 1
        LDR       A1, [SP, #0]          ; [DPU_V7M3_PIPE] |431| 
        LDRB      A1, [A1, #96]         ; [DPU_V7M3_PIPE] |431| 
        LSRS      A1, A1, #7            ; [DPU_V7M3_PIPE] |431| 
        BCC       ||$C$L12||            ; [DPU_V7M3_PIPE] |431| 
        ; BRANCHCC OCCURS {||$C$L12||}   ; [] |431| 
;* --------------------------------------------------------------------------*
	.dwpsn	file "../driverlib/usb.c",line 433,column 9,is_stmt,isa 1
        MOVS      A1, #1                ; [DPU_V7M3_PIPE] |433| 
        B         ||$C$L14||            ; [DPU_V7M3_PIPE] |433| 
        ; BRANCH OCCURS {||$C$L14||}     ; [] |433| 
;* --------------------------------------------------------------------------*
||$C$L12||:    
	.dwpsn	file "../driverlib/usb.c",line 439,column 5,is_stmt,isa 1
        LDR       A1, [SP, #0]          ; [DPU_V7M3_PIPE] |439| 
        LDRB      A1, [A1, #96]         ; [DPU_V7M3_PIPE] |439| 
        LSRS      A1, A1, #6            ; [DPU_V7M3_PIPE] |439| 
        BCC       ||$C$L13||            ; [DPU_V7M3_PIPE] |439| 
        ; BRANCHCC OCCURS {||$C$L13||}   ; [] |439| 
;* --------------------------------------------------------------------------*
	.dwpsn	file "../driverlib/usb.c",line 441,column 9,is_stmt,isa 1
        MOVS      A1, #0                ; [DPU_V7M3_PIPE] |441| 
        B         ||$C$L14||            ; [DPU_V7M3_PIPE] |441| 
        ; BRANCH OCCURS {||$C$L14||}     ; [] |441| 
;* --------------------------------------------------------------------------*
||$C$L13||:    
	.dwpsn	file "../driverlib/usb.c",line 447,column 5,is_stmt,isa 1
        MOV       A1, #-2147483648      ; [DPU_V7M3_PIPE] |447| 
;* --------------------------------------------------------------------------*
||$C$L14||:    
	.dwpsn	file "../driverlib/usb.c",line 448,column 1,is_stmt,isa 1
        ADD       SP, SP, #8            ; [DPU_V7M3_PIPE] 
	.dwcfi	cfa_offset, 0
$C$DW$59	.dwtag  DW_TAG_TI_branch
	.dwattr $C$DW$59, DW_AT_low_pc(0x00)
	.dwattr $C$DW$59, DW_AT_TI_return

        BX        LR                    ; [DPU_V7M3_PIPE] 
        ; BRANCH OCCURS                  ; [] 
	.dwattr $C$DW$56, DW_AT_TI_end_file("../driverlib/usb.c")
	.dwattr $C$DW$56, DW_AT_TI_end_line(0x1c0)
	.dwattr $C$DW$56, DW_AT_TI_end_column(0x01)
	.dwendentry
	.dwendtag $C$DW$56

	.sect	".text"
	.clink
	.thumbfunc USBDevSpeedGet
	.thumb
	.global	USBDevSpeedGet

$C$DW$60	.dwtag  DW_TAG_subprogram
	.dwattr $C$DW$60, DW_AT_name("USBDevSpeedGet")
	.dwattr $C$DW$60, DW_AT_low_pc(USBDevSpeedGet)
	.dwattr $C$DW$60, DW_AT_high_pc(0x00)
	.dwattr $C$DW$60, DW_AT_TI_symbol_name("USBDevSpeedGet")
	.dwattr $C$DW$60, DW_AT_external
	.dwattr $C$DW$60, DW_AT_type(*$C$DW$T$25)
	.dwattr $C$DW$60, DW_AT_TI_begin_file("../driverlib/usb.c")
	.dwattr $C$DW$60, DW_AT_TI_begin_line(0x1db)
	.dwattr $C$DW$60, DW_AT_TI_begin_column(0x01)
	.dwattr $C$DW$60, DW_AT_decl_file("../driverlib/usb.c")
	.dwattr $C$DW$60, DW_AT_decl_line(0x1db)
	.dwattr $C$DW$60, DW_AT_decl_column(0x01)
	.dwattr $C$DW$60, DW_AT_TI_max_frame_size(0x08)
	.dwpsn	file "../driverlib/usb.c",line 476,column 1,is_stmt,address USBDevSpeedGet,isa 1

	.dwfde $C$DW$CIE, USBDevSpeedGet
$C$DW$61	.dwtag  DW_TAG_formal_parameter
	.dwattr $C$DW$61, DW_AT_name("ui32Base")
	.dwattr $C$DW$61, DW_AT_TI_symbol_name("ui32Base")
	.dwattr $C$DW$61, DW_AT_type(*$C$DW$T$25)
	.dwattr $C$DW$61, DW_AT_location[DW_OP_reg0]


;*****************************************************************************
;* FUNCTION NAME: USBDevSpeedGet                                             *
;*                                                                           *
;*   Regs Modified     : A1,SP,SR                                            *
;*   Regs Used         : A1,SP,LR,SR                                         *
;*   Local Frame Size  : 0 Args + 4 Auto + 0 Save = 4 byte                   *
;*****************************************************************************
USBDevSpeedGet:
;* --------------------------------------------------------------------------*
	.dwcfi	cfa_offset, 0
        SUB       SP, SP, #8            ; [DPU_V7M3_PIPE] 
	.dwcfi	cfa_offset, 8
$C$DW$62	.dwtag  DW_TAG_variable
	.dwattr $C$DW$62, DW_AT_name("ui32Base")
	.dwattr $C$DW$62, DW_AT_TI_symbol_name("ui32Base")
	.dwattr $C$DW$62, DW_AT_type(*$C$DW$T$25)
	.dwattr $C$DW$62, DW_AT_location[DW_OP_breg13 0]

        STR       A1, [SP, #0]          ; [DPU_V7M3_PIPE] |476| 
	.dwpsn	file "../driverlib/usb.c",line 485,column 5,is_stmt,isa 1
        LDR       A1, [SP, #0]          ; [DPU_V7M3_PIPE] |485| 
        LDRB      A1, [A1, #1]          ; [DPU_V7M3_PIPE] |485| 
        LSRS      A1, A1, #5            ; [DPU_V7M3_PIPE] |485| 
        BCC       ||$C$L15||            ; [DPU_V7M3_PIPE] |485| 
        ; BRANCHCC OCCURS {||$C$L15||}   ; [] |485| 
;* --------------------------------------------------------------------------*
	.dwpsn	file "../driverlib/usb.c",line 487,column 9,is_stmt,isa 1
        MOVS      A1, #2                ; [DPU_V7M3_PIPE] |487| 
        B         ||$C$L16||            ; [DPU_V7M3_PIPE] |487| 
        ; BRANCH OCCURS {||$C$L16||}     ; [] |487| 
;* --------------------------------------------------------------------------*
||$C$L15||:    
	.dwpsn	file "../driverlib/usb.c",line 490,column 5,is_stmt,isa 1
        MOVS      A1, #1                ; [DPU_V7M3_PIPE] |490| 
;* --------------------------------------------------------------------------*
||$C$L16||:    
	.dwpsn	file "../driverlib/usb.c",line 491,column 1,is_stmt,isa 1
        ADD       SP, SP, #8            ; [DPU_V7M3_PIPE] 
	.dwcfi	cfa_offset, 0
$C$DW$63	.dwtag  DW_TAG_TI_branch
	.dwattr $C$DW$63, DW_AT_low_pc(0x00)
	.dwattr $C$DW$63, DW_AT_TI_return

        BX        LR                    ; [DPU_V7M3_PIPE] 
        ; BRANCH OCCURS                  ; [] 
	.dwattr $C$DW$60, DW_AT_TI_end_file("../driverlib/usb.c")
	.dwattr $C$DW$60, DW_AT_TI_end_line(0x1eb)
	.dwattr $C$DW$60, DW_AT_TI_end_column(0x01)
	.dwendentry
	.dwendtag $C$DW$60

	.sect	".text"
	.clink
	.thumbfunc USBIntDisableControl
	.thumb
	.global	USBIntDisableControl

$C$DW$64	.dwtag  DW_TAG_subprogram
	.dwattr $C$DW$64, DW_AT_name("USBIntDisableControl")
	.dwattr $C$DW$64, DW_AT_low_pc(USBIntDisableControl)
	.dwattr $C$DW$64, DW_AT_high_pc(0x00)
	.dwattr $C$DW$64, DW_AT_TI_symbol_name("USBIntDisableControl")
	.dwattr $C$DW$64, DW_AT_external
	.dwattr $C$DW$64, DW_AT_TI_begin_file("../driverlib/usb.c")
	.dwattr $C$DW$64, DW_AT_TI_begin_line(0x1fe)
	.dwattr $C$DW$64, DW_AT_TI_begin_column(0x01)
	.dwattr $C$DW$64, DW_AT_decl_file("../driverlib/usb.c")
	.dwattr $C$DW$64, DW_AT_decl_line(0x1fe)
	.dwattr $C$DW$64, DW_AT_decl_column(0x01)
	.dwattr $C$DW$64, DW_AT_TI_max_frame_size(0x08)
	.dwpsn	file "../driverlib/usb.c",line 511,column 1,is_stmt,address USBIntDisableControl,isa 1

	.dwfde $C$DW$CIE, USBIntDisableControl
$C$DW$65	.dwtag  DW_TAG_formal_parameter
	.dwattr $C$DW$65, DW_AT_name("ui32Base")
	.dwattr $C$DW$65, DW_AT_TI_symbol_name("ui32Base")
	.dwattr $C$DW$65, DW_AT_type(*$C$DW$T$25)
	.dwattr $C$DW$65, DW_AT_location[DW_OP_reg0]

$C$DW$66	.dwtag  DW_TAG_formal_parameter
	.dwattr $C$DW$66, DW_AT_name("ui32Flags")
	.dwattr $C$DW$66, DW_AT_TI_symbol_name("ui32Flags")
	.dwattr $C$DW$66, DW_AT_type(*$C$DW$T$25)
	.dwattr $C$DW$66, DW_AT_location[DW_OP_reg1]


;*****************************************************************************
;* FUNCTION NAME: USBIntDisableControl                                       *
;*                                                                           *
;*   Regs Modified     : A1,A2,A3,SP,SR                                      *
;*   Regs Used         : A1,A2,A3,SP,LR,SR                                   *
;*   Local Frame Size  : 0 Args + 8 Auto + 0 Save = 8 byte                   *
;*****************************************************************************
USBIntDisableControl:
;* --------------------------------------------------------------------------*
	.dwcfi	cfa_offset, 0
        SUB       SP, SP, #8            ; [DPU_V7M3_PIPE] 
	.dwcfi	cfa_offset, 8
$C$DW$67	.dwtag  DW_TAG_variable
	.dwattr $C$DW$67, DW_AT_name("ui32Base")
	.dwattr $C$DW$67, DW_AT_TI_symbol_name("ui32Base")
	.dwattr $C$DW$67, DW_AT_type(*$C$DW$T$25)
	.dwattr $C$DW$67, DW_AT_location[DW_OP_breg13 0]

$C$DW$68	.dwtag  DW_TAG_variable
	.dwattr $C$DW$68, DW_AT_name("ui32Flags")
	.dwattr $C$DW$68, DW_AT_TI_symbol_name("ui32Flags")
	.dwattr $C$DW$68, DW_AT_type(*$C$DW$T$25)
	.dwattr $C$DW$68, DW_AT_location[DW_OP_breg13 4]

        STR       A2, [SP, #4]          ; [DPU_V7M3_PIPE] |511| 
        STR       A1, [SP, #0]          ; [DPU_V7M3_PIPE] |511| 
	.dwpsn	file "../driverlib/usb.c",line 522,column 5,is_stmt,isa 1
        LDR       A1, [SP, #4]          ; [DPU_V7M3_PIPE] |522| 
        TST       A1, #255              ; [DPU_V7M3_PIPE] |522| 
        BEQ       ||$C$L17||            ; [DPU_V7M3_PIPE] |522| 
        ; BRANCHCC OCCURS {||$C$L17||}   ; [] |522| 
;* --------------------------------------------------------------------------*
	.dwpsn	file "../driverlib/usb.c",line 524,column 9,is_stmt,isa 1
        LDR       A1, [SP, #0]          ; [DPU_V7M3_PIPE] |524| 
        LDR       A2, [SP, #4]          ; [DPU_V7M3_PIPE] |524| 
        ADDS      A1, A1, #11           ; [DPU_V7M3_PIPE] |524| 
        LDRB      A3, [A1, #0]          ; [DPU_V7M3_PIPE] |524| 
        AND       A2, A2, #255          ; [DPU_V7M3_PIPE] |524| 
        BICS      A3, A3, A2            ; [DPU_V7M3_PIPE] |524| 
        STRB      A3, [A1, #0]          ; [DPU_V7M3_PIPE] |524| 
;* --------------------------------------------------------------------------*
||$C$L17||:    
	.dwpsn	file "../driverlib/usb.c",line 530,column 5,is_stmt,isa 1
        LDR       A1, [SP, #4]          ; [DPU_V7M3_PIPE] |530| 
        LSRS      A1, A1, #9            ; [DPU_V7M3_PIPE] |530| 
        BCC       ||$C$L18||            ; [DPU_V7M3_PIPE] |530| 
        ; BRANCHCC OCCURS {||$C$L18||}   ; [] |530| 
;* --------------------------------------------------------------------------*
	.dwpsn	file "../driverlib/usb.c",line 532,column 9,is_stmt,isa 1
        LDR       A2, [SP, #0]          ; [DPU_V7M3_PIPE] |532| 
        MOVS      A1, #0                ; [DPU_V7M3_PIPE] |532| 
        STR       A1, [A2, #1032]       ; [DPU_V7M3_PIPE] |532| 
;* --------------------------------------------------------------------------*
||$C$L18||:    
	.dwpsn	file "../driverlib/usb.c",line 538,column 5,is_stmt,isa 1
        LDR       A1, [SP, #4]          ; [DPU_V7M3_PIPE] |538| 
        LSRS      A1, A1, #10           ; [DPU_V7M3_PIPE] |538| 
        BCC       ||$C$L19||            ; [DPU_V7M3_PIPE] |538| 
        ; BRANCHCC OCCURS {||$C$L19||}   ; [] |538| 
;* --------------------------------------------------------------------------*
	.dwpsn	file "../driverlib/usb.c",line 540,column 9,is_stmt,isa 1
        LDR       A2, $C$CON1           ; [DPU_V7M3_PIPE] |540| 
        MOVS      A1, #0                ; [DPU_V7M3_PIPE] |540| 
        STR       A1, [A2, #0]          ; [DPU_V7M3_PIPE] |540| 
	.dwpsn	file "../driverlib/usb.c",line 542,column 1,is_stmt,isa 1
;* --------------------------------------------------------------------------*
||$C$L19||:    
        ADD       SP, SP, #8            ; [DPU_V7M3_PIPE] 
	.dwcfi	cfa_offset, 0
$C$DW$69	.dwtag  DW_TAG_TI_branch
	.dwattr $C$DW$69, DW_AT_low_pc(0x00)
	.dwattr $C$DW$69, DW_AT_TI_return

        BX        LR                    ; [DPU_V7M3_PIPE] 
        ; BRANCH OCCURS                  ; [] 
	.dwattr $C$DW$64, DW_AT_TI_end_file("../driverlib/usb.c")
	.dwattr $C$DW$64, DW_AT_TI_end_line(0x21e)
	.dwattr $C$DW$64, DW_AT_TI_end_column(0x01)
	.dwendentry
	.dwendtag $C$DW$64

	.sect	".text"
	.clink
	.thumbfunc USBIntEnableControl
	.thumb
	.global	USBIntEnableControl

$C$DW$70	.dwtag  DW_TAG_subprogram
	.dwattr $C$DW$70, DW_AT_name("USBIntEnableControl")
	.dwattr $C$DW$70, DW_AT_low_pc(USBIntEnableControl)
	.dwattr $C$DW$70, DW_AT_high_pc(0x00)
	.dwattr $C$DW$70, DW_AT_TI_symbol_name("USBIntEnableControl")
	.dwattr $C$DW$70, DW_AT_external
	.dwattr $C$DW$70, DW_AT_TI_begin_file("../driverlib/usb.c")
	.dwattr $C$DW$70, DW_AT_TI_begin_line(0x231)
	.dwattr $C$DW$70, DW_AT_TI_begin_column(0x01)
	.dwattr $C$DW$70, DW_AT_decl_file("../driverlib/usb.c")
	.dwattr $C$DW$70, DW_AT_decl_line(0x231)
	.dwattr $C$DW$70, DW_AT_decl_column(0x01)
	.dwattr $C$DW$70, DW_AT_TI_max_frame_size(0x08)
	.dwpsn	file "../driverlib/usb.c",line 562,column 1,is_stmt,address USBIntEnableControl,isa 1

	.dwfde $C$DW$CIE, USBIntEnableControl
$C$DW$71	.dwtag  DW_TAG_formal_parameter
	.dwattr $C$DW$71, DW_AT_name("ui32Base")
	.dwattr $C$DW$71, DW_AT_TI_symbol_name("ui32Base")
	.dwattr $C$DW$71, DW_AT_type(*$C$DW$T$25)
	.dwattr $C$DW$71, DW_AT_location[DW_OP_reg0]

$C$DW$72	.dwtag  DW_TAG_formal_parameter
	.dwattr $C$DW$72, DW_AT_name("ui32Flags")
	.dwattr $C$DW$72, DW_AT_TI_symbol_name("ui32Flags")
	.dwattr $C$DW$72, DW_AT_type(*$C$DW$T$25)
	.dwattr $C$DW$72, DW_AT_location[DW_OP_reg1]


;*****************************************************************************
;* FUNCTION NAME: USBIntEnableControl                                        *
;*                                                                           *
;*   Regs Modified     : A1,A2,A3,SP,SR                                      *
;*   Regs Used         : A1,A2,A3,SP,LR,SR                                   *
;*   Local Frame Size  : 0 Args + 8 Auto + 0 Save = 8 byte                   *
;*****************************************************************************
USBIntEnableControl:
;* --------------------------------------------------------------------------*
	.dwcfi	cfa_offset, 0
        SUB       SP, SP, #8            ; [DPU_V7M3_PIPE] 
	.dwcfi	cfa_offset, 8
$C$DW$73	.dwtag  DW_TAG_variable
	.dwattr $C$DW$73, DW_AT_name("ui32Base")
	.dwattr $C$DW$73, DW_AT_TI_symbol_name("ui32Base")
	.dwattr $C$DW$73, DW_AT_type(*$C$DW$T$25)
	.dwattr $C$DW$73, DW_AT_location[DW_OP_breg13 0]

$C$DW$74	.dwtag  DW_TAG_variable
	.dwattr $C$DW$74, DW_AT_name("ui32Flags")
	.dwattr $C$DW$74, DW_AT_TI_symbol_name("ui32Flags")
	.dwattr $C$DW$74, DW_AT_type(*$C$DW$T$25)
	.dwattr $C$DW$74, DW_AT_location[DW_OP_breg13 4]

        STR       A2, [SP, #4]          ; [DPU_V7M3_PIPE] |562| 
        STR       A1, [SP, #0]          ; [DPU_V7M3_PIPE] |562| 
	.dwpsn	file "../driverlib/usb.c",line 573,column 5,is_stmt,isa 1
        LDR       A1, [SP, #4]          ; [DPU_V7M3_PIPE] |573| 
        TST       A1, #255              ; [DPU_V7M3_PIPE] |573| 
        BEQ       ||$C$L20||            ; [DPU_V7M3_PIPE] |573| 
        ; BRANCHCC OCCURS {||$C$L20||}   ; [] |573| 
;* --------------------------------------------------------------------------*
	.dwpsn	file "../driverlib/usb.c",line 575,column 9,is_stmt,isa 1
        LDR       A1, [SP, #0]          ; [DPU_V7M3_PIPE] |575| 
        LDR       A2, [SP, #4]          ; [DPU_V7M3_PIPE] |575| 
        ADDS      A1, A1, #11           ; [DPU_V7M3_PIPE] |575| 
        LDRB      A3, [A1, #0]          ; [DPU_V7M3_PIPE] |575| 
        ORRS      A2, A2, A3            ; [DPU_V7M3_PIPE] |575| 
        STRB      A2, [A1, #0]          ; [DPU_V7M3_PIPE] |575| 
;* --------------------------------------------------------------------------*
||$C$L20||:    
	.dwpsn	file "../driverlib/usb.c",line 581,column 5,is_stmt,isa 1
        LDR       A1, [SP, #4]          ; [DPU_V7M3_PIPE] |581| 
        LSRS      A1, A1, #9            ; [DPU_V7M3_PIPE] |581| 
        BCC       ||$C$L21||            ; [DPU_V7M3_PIPE] |581| 
        ; BRANCHCC OCCURS {||$C$L21||}   ; [] |581| 
;* --------------------------------------------------------------------------*
	.dwpsn	file "../driverlib/usb.c",line 583,column 9,is_stmt,isa 1
        LDR       A2, [SP, #0]          ; [DPU_V7M3_PIPE] |583| 
        MOVS      A1, #1                ; [DPU_V7M3_PIPE] |583| 
        STR       A1, [A2, #1032]       ; [DPU_V7M3_PIPE] |583| 
;* --------------------------------------------------------------------------*
||$C$L21||:    
	.dwpsn	file "../driverlib/usb.c",line 589,column 5,is_stmt,isa 1
        LDR       A1, [SP, #4]          ; [DPU_V7M3_PIPE] |589| 
        LSRS      A1, A1, #10           ; [DPU_V7M3_PIPE] |589| 
        BCC       ||$C$L22||            ; [DPU_V7M3_PIPE] |589| 
        ; BRANCHCC OCCURS {||$C$L22||}   ; [] |589| 
;* --------------------------------------------------------------------------*
	.dwpsn	file "../driverlib/usb.c",line 591,column 9,is_stmt,isa 1
        LDR       A2, $C$CON1           ; [DPU_V7M3_PIPE] |591| 
        MOVS      A1, #1                ; [DPU_V7M3_PIPE] |591| 
        STR       A1, [A2, #0]          ; [DPU_V7M3_PIPE] |591| 
	.dwpsn	file "../driverlib/usb.c",line 593,column 1,is_stmt,isa 1
;* --------------------------------------------------------------------------*
||$C$L22||:    
        ADD       SP, SP, #8            ; [DPU_V7M3_PIPE] 
	.dwcfi	cfa_offset, 0
$C$DW$75	.dwtag  DW_TAG_TI_branch
	.dwattr $C$DW$75, DW_AT_low_pc(0x00)
	.dwattr $C$DW$75, DW_AT_TI_return

        BX        LR                    ; [DPU_V7M3_PIPE] 
        ; BRANCH OCCURS                  ; [] 
	.dwattr $C$DW$70, DW_AT_TI_end_file("../driverlib/usb.c")
	.dwattr $C$DW$70, DW_AT_TI_end_line(0x251)
	.dwattr $C$DW$70, DW_AT_TI_end_column(0x01)
	.dwendentry
	.dwendtag $C$DW$70

	.sect	".text"
	.clink
	.thumbfunc USBIntStatusControl
	.thumb
	.global	USBIntStatusControl

$C$DW$76	.dwtag  DW_TAG_subprogram
	.dwattr $C$DW$76, DW_AT_name("USBIntStatusControl")
	.dwattr $C$DW$76, DW_AT_low_pc(USBIntStatusControl)
	.dwattr $C$DW$76, DW_AT_high_pc(0x00)
	.dwattr $C$DW$76, DW_AT_TI_symbol_name("USBIntStatusControl")
	.dwattr $C$DW$76, DW_AT_external
	.dwattr $C$DW$76, DW_AT_type(*$C$DW$T$25)
	.dwattr $C$DW$76, DW_AT_TI_begin_file("../driverlib/usb.c")
	.dwattr $C$DW$76, DW_AT_TI_begin_line(0x27c)
	.dwattr $C$DW$76, DW_AT_TI_begin_column(0x01)
	.dwattr $C$DW$76, DW_AT_decl_file("../driverlib/usb.c")
	.dwattr $C$DW$76, DW_AT_decl_line(0x27c)
	.dwattr $C$DW$76, DW_AT_decl_column(0x01)
	.dwattr $C$DW$76, DW_AT_TI_max_frame_size(0x08)
	.dwpsn	file "../driverlib/usb.c",line 637,column 1,is_stmt,address USBIntStatusControl,isa 1

	.dwfde $C$DW$CIE, USBIntStatusControl
$C$DW$77	.dwtag  DW_TAG_formal_parameter
	.dwattr $C$DW$77, DW_AT_name("ui32Base")
	.dwattr $C$DW$77, DW_AT_TI_symbol_name("ui32Base")
	.dwattr $C$DW$77, DW_AT_type(*$C$DW$T$25)
	.dwattr $C$DW$77, DW_AT_location[DW_OP_reg0]


;*****************************************************************************
;* FUNCTION NAME: USBIntStatusControl                                        *
;*                                                                           *
;*   Regs Modified     : A1,A2,SP,SR                                         *
;*   Regs Used         : A1,A2,SP,LR,SR                                      *
;*   Local Frame Size  : 0 Args + 8 Auto + 0 Save = 8 byte                   *
;*****************************************************************************
USBIntStatusControl:
;* --------------------------------------------------------------------------*
	.dwcfi	cfa_offset, 0
        SUB       SP, SP, #8            ; [DPU_V7M3_PIPE] 
	.dwcfi	cfa_offset, 8
$C$DW$78	.dwtag  DW_TAG_variable
	.dwattr $C$DW$78, DW_AT_name("ui32Base")
	.dwattr $C$DW$78, DW_AT_TI_symbol_name("ui32Base")
	.dwattr $C$DW$78, DW_AT_type(*$C$DW$T$25)
	.dwattr $C$DW$78, DW_AT_location[DW_OP_breg13 0]

$C$DW$79	.dwtag  DW_TAG_variable
	.dwattr $C$DW$79, DW_AT_name("ui32Status")
	.dwattr $C$DW$79, DW_AT_TI_symbol_name("ui32Status")
	.dwattr $C$DW$79, DW_AT_type(*$C$DW$T$25)
	.dwattr $C$DW$79, DW_AT_location[DW_OP_breg13 4]

        STR       A1, [SP, #0]          ; [DPU_V7M3_PIPE] |637| 
	.dwpsn	file "../driverlib/usb.c",line 649,column 5,is_stmt,isa 1
        LDR       A1, [SP, #0]          ; [DPU_V7M3_PIPE] |649| 
        LDRB      A1, [A1, #10]         ; [DPU_V7M3_PIPE] |649| 
        STR       A1, [SP, #4]          ; [DPU_V7M3_PIPE] |649| 
	.dwpsn	file "../driverlib/usb.c",line 654,column 5,is_stmt,isa 1
        LDR       A1, [SP, #0]          ; [DPU_V7M3_PIPE] |654| 
        LDR       A1, [A1, #1036]       ; [DPU_V7M3_PIPE] |654| 
        LSRS      A1, A1, #1            ; [DPU_V7M3_PIPE] |654| 
        BCC       ||$C$L23||            ; [DPU_V7M3_PIPE] |654| 
        ; BRANCHCC OCCURS {||$C$L23||}   ; [] |654| 
;* --------------------------------------------------------------------------*
	.dwpsn	file "../driverlib/usb.c",line 659,column 9,is_stmt,isa 1
        LDR       A1, [SP, #4]          ; [DPU_V7M3_PIPE] |659| 
        ORR       A1, A1, #256          ; [DPU_V7M3_PIPE] |659| 
        STR       A1, [SP, #4]          ; [DPU_V7M3_PIPE] |659| 
	.dwpsn	file "../driverlib/usb.c",line 664,column 9,is_stmt,isa 1
        LDR       A1, [SP, #0]          ; [DPU_V7M3_PIPE] |664| 
        ADD       A2, A1, #1036         ; [DPU_V7M3_PIPE] |664| 
        LDRB      A1, [A2, #0]          ; [DPU_V7M3_PIPE] |664| 
        ORR       A1, A1, #1            ; [DPU_V7M3_PIPE] |664| 
        STRB      A1, [A2, #0]          ; [DPU_V7M3_PIPE] |664| 
;* --------------------------------------------------------------------------*
||$C$L23||:    
	.dwpsn	file "../driverlib/usb.c",line 667,column 5,is_stmt,isa 1
        LDR       A1, $C$CON2           ; [DPU_V7M3_PIPE] |667| 
        LDR       A1, [A1, #0]          ; [DPU_V7M3_PIPE] |667| 
        LSRS      A1, A1, #1            ; [DPU_V7M3_PIPE] |667| 
        BCC       ||$C$L24||            ; [DPU_V7M3_PIPE] |667| 
        ; BRANCHCC OCCURS {||$C$L24||}   ; [] |667| 
;* --------------------------------------------------------------------------*
	.dwpsn	file "../driverlib/usb.c",line 672,column 9,is_stmt,isa 1
        LDR       A1, [SP, #4]          ; [DPU_V7M3_PIPE] |672| 
        ORR       A1, A1, #512          ; [DPU_V7M3_PIPE] |672| 
        STR       A1, [SP, #4]          ; [DPU_V7M3_PIPE] |672| 
	.dwpsn	file "../driverlib/usb.c",line 677,column 9,is_stmt,isa 1
        LDR       A2, $C$CON2           ; [DPU_V7M3_PIPE] |677| 
        LDR       A1, [A2, #0]          ; [DPU_V7M3_PIPE] |677| 
        ORR       A1, A1, #1            ; [DPU_V7M3_PIPE] |677| 
        STR       A1, [A2, #0]          ; [DPU_V7M3_PIPE] |677| 
;* --------------------------------------------------------------------------*
||$C$L24||:    
	.dwpsn	file "../driverlib/usb.c",line 683,column 5,is_stmt,isa 1
        LDR       A1, [SP, #4]          ; [DPU_V7M3_PIPE] |683| 
	.dwpsn	file "../driverlib/usb.c",line 684,column 1,is_stmt,isa 1
        ADD       SP, SP, #8            ; [DPU_V7M3_PIPE] 
	.dwcfi	cfa_offset, 0
$C$DW$80	.dwtag  DW_TAG_TI_branch
	.dwattr $C$DW$80, DW_AT_low_pc(0x00)
	.dwattr $C$DW$80, DW_AT_TI_return

        BX        LR                    ; [DPU_V7M3_PIPE] 
        ; BRANCH OCCURS                  ; [] 
	.dwattr $C$DW$76, DW_AT_TI_end_file("../driverlib/usb.c")
	.dwattr $C$DW$76, DW_AT_TI_end_line(0x2ac)
	.dwattr $C$DW$76, DW_AT_TI_end_column(0x01)
	.dwendentry
	.dwendtag $C$DW$76

	.sect	".text"
	.clink
	.thumbfunc USBIntDisableEndpoint
	.thumb
	.global	USBIntDisableEndpoint

$C$DW$81	.dwtag  DW_TAG_subprogram
	.dwattr $C$DW$81, DW_AT_name("USBIntDisableEndpoint")
	.dwattr $C$DW$81, DW_AT_low_pc(USBIntDisableEndpoint)
	.dwattr $C$DW$81, DW_AT_high_pc(0x00)
	.dwattr $C$DW$81, DW_AT_TI_symbol_name("USBIntDisableEndpoint")
	.dwattr $C$DW$81, DW_AT_external
	.dwattr $C$DW$81, DW_AT_TI_begin_file("../driverlib/usb.c")
	.dwattr $C$DW$81, DW_AT_TI_begin_line(0x2bf)
	.dwattr $C$DW$81, DW_AT_TI_begin_column(0x01)
	.dwattr $C$DW$81, DW_AT_decl_file("../driverlib/usb.c")
	.dwattr $C$DW$81, DW_AT_decl_line(0x2bf)
	.dwattr $C$DW$81, DW_AT_decl_column(0x01)
	.dwattr $C$DW$81, DW_AT_TI_max_frame_size(0x08)
	.dwpsn	file "../driverlib/usb.c",line 704,column 1,is_stmt,address USBIntDisableEndpoint,isa 1

	.dwfde $C$DW$CIE, USBIntDisableEndpoint
$C$DW$82	.dwtag  DW_TAG_formal_parameter
	.dwattr $C$DW$82, DW_AT_name("ui32Base")
	.dwattr $C$DW$82, DW_AT_TI_symbol_name("ui32Base")
	.dwattr $C$DW$82, DW_AT_type(*$C$DW$T$25)
	.dwattr $C$DW$82, DW_AT_location[DW_OP_reg0]

$C$DW$83	.dwtag  DW_TAG_formal_parameter
	.dwattr $C$DW$83, DW_AT_name("ui32Flags")
	.dwattr $C$DW$83, DW_AT_TI_symbol_name("ui32Flags")
	.dwattr $C$DW$83, DW_AT_type(*$C$DW$T$25)
	.dwattr $C$DW$83, DW_AT_location[DW_OP_reg1]


;*****************************************************************************
;* FUNCTION NAME: USBIntDisableEndpoint                                      *
;*                                                                           *
;*   Regs Modified     : A1,A2,A3,A4,SP,SR                                   *
;*   Regs Used         : A1,A2,A3,A4,SP,LR,SR                                *
;*   Local Frame Size  : 0 Args + 8 Auto + 0 Save = 8 byte                   *
;*****************************************************************************
USBIntDisableEndpoint:
;* --------------------------------------------------------------------------*
	.dwcfi	cfa_offset, 0
        SUB       SP, SP, #8            ; [DPU_V7M3_PIPE] 
	.dwcfi	cfa_offset, 8
$C$DW$84	.dwtag  DW_TAG_variable
	.dwattr $C$DW$84, DW_AT_name("ui32Base")
	.dwattr $C$DW$84, DW_AT_TI_symbol_name("ui32Base")
	.dwattr $C$DW$84, DW_AT_type(*$C$DW$T$25)
	.dwattr $C$DW$84, DW_AT_location[DW_OP_breg13 0]

$C$DW$85	.dwtag  DW_TAG_variable
	.dwattr $C$DW$85, DW_AT_name("ui32Flags")
	.dwattr $C$DW$85, DW_AT_TI_symbol_name("ui32Flags")
	.dwattr $C$DW$85, DW_AT_type(*$C$DW$T$25)
	.dwattr $C$DW$85, DW_AT_location[DW_OP_breg13 4]

        STR       A2, [SP, #4]          ; [DPU_V7M3_PIPE] |704| 
        STR       A1, [SP, #0]          ; [DPU_V7M3_PIPE] |704| 
	.dwpsn	file "../driverlib/usb.c",line 714,column 5,is_stmt,isa 1
        LDR       A1, [SP, #0]          ; [DPU_V7M3_PIPE] |714| 
        LDR       A3, [SP, #4]          ; [DPU_V7M3_PIPE] |714| 
        ADDS      A1, A1, #6            ; [DPU_V7M3_PIPE] |714| 
        LDRH      A2, [A1, #0]          ; [DPU_V7M3_PIPE] |714| 
        BFC       A3, #16, #16          ; [DPU_V7M3_PIPE] |714| 
        BICS      A2, A2, A3            ; [DPU_V7M3_PIPE] |714| 
        STRH      A2, [A1, #0]          ; [DPU_V7M3_PIPE] |714| 
	.dwpsn	file "../driverlib/usb.c",line 721,column 5,is_stmt,isa 1
        LDR       A2, $C$CON3           ; [DPU_V7M3_PIPE] |721| 
        LDR       A1, [SP, #0]          ; [DPU_V7M3_PIPE] |721| 
        LDR       A4, [SP, #4]          ; [DPU_V7M3_PIPE] |721| 
        ADDS      A1, A1, #8            ; [DPU_V7M3_PIPE] |721| 
        LDRH      A3, [A1, #0]          ; [DPU_V7M3_PIPE] |721| 
        ANDS      A2, A2, A4            ; [DPU_V7M3_PIPE] |721| 
        BIC       A3, A3, A2, LSR #16   ; [DPU_V7M3_PIPE] |721| 
        STRH      A3, [A1, #0]          ; [DPU_V7M3_PIPE] |721| 
	.dwpsn	file "../driverlib/usb.c",line 724,column 1,is_stmt,isa 1
        ADD       SP, SP, #8            ; [DPU_V7M3_PIPE] 
	.dwcfi	cfa_offset, 0
$C$DW$86	.dwtag  DW_TAG_TI_branch
	.dwattr $C$DW$86, DW_AT_low_pc(0x00)
	.dwattr $C$DW$86, DW_AT_TI_return

        BX        LR                    ; [DPU_V7M3_PIPE] 
        ; BRANCH OCCURS                  ; [] 
	.dwattr $C$DW$81, DW_AT_TI_end_file("../driverlib/usb.c")
	.dwattr $C$DW$81, DW_AT_TI_end_line(0x2d4)
	.dwattr $C$DW$81, DW_AT_TI_end_column(0x01)
	.dwendentry
	.dwendtag $C$DW$81

	.sect	".text"
	.clink
	.thumbfunc USBIntEnableEndpoint
	.thumb
	.global	USBIntEnableEndpoint

$C$DW$87	.dwtag  DW_TAG_subprogram
	.dwattr $C$DW$87, DW_AT_name("USBIntEnableEndpoint")
	.dwattr $C$DW$87, DW_AT_low_pc(USBIntEnableEndpoint)
	.dwattr $C$DW$87, DW_AT_high_pc(0x00)
	.dwattr $C$DW$87, DW_AT_TI_symbol_name("USBIntEnableEndpoint")
	.dwattr $C$DW$87, DW_AT_external
	.dwattr $C$DW$87, DW_AT_TI_begin_file("../driverlib/usb.c")
	.dwattr $C$DW$87, DW_AT_TI_begin_line(0x2e7)
	.dwattr $C$DW$87, DW_AT_TI_begin_column(0x01)
	.dwattr $C$DW$87, DW_AT_decl_file("../driverlib/usb.c")
	.dwattr $C$DW$87, DW_AT_decl_line(0x2e7)
	.dwattr $C$DW$87, DW_AT_decl_column(0x01)
	.dwattr $C$DW$87, DW_AT_TI_max_frame_size(0x08)
	.dwpsn	file "../driverlib/usb.c",line 744,column 1,is_stmt,address USBIntEnableEndpoint,isa 1

	.dwfde $C$DW$CIE, USBIntEnableEndpoint
$C$DW$88	.dwtag  DW_TAG_formal_parameter
	.dwattr $C$DW$88, DW_AT_name("ui32Base")
	.dwattr $C$DW$88, DW_AT_TI_symbol_name("ui32Base")
	.dwattr $C$DW$88, DW_AT_type(*$C$DW$T$25)
	.dwattr $C$DW$88, DW_AT_location[DW_OP_reg0]

$C$DW$89	.dwtag  DW_TAG_formal_parameter
	.dwattr $C$DW$89, DW_AT_name("ui32Flags")
	.dwattr $C$DW$89, DW_AT_TI_symbol_name("ui32Flags")
	.dwattr $C$DW$89, DW_AT_type(*$C$DW$T$25)
	.dwattr $C$DW$89, DW_AT_location[DW_OP_reg1]


;*****************************************************************************
;* FUNCTION NAME: USBIntEnableEndpoint                                       *
;*                                                                           *
;*   Regs Modified     : A1,A2,A3,A4,SP,SR                                   *
;*   Regs Used         : A1,A2,A3,A4,SP,LR,SR                                *
;*   Local Frame Size  : 0 Args + 8 Auto + 0 Save = 8 byte                   *
;*****************************************************************************
USBIntEnableEndpoint:
;* --------------------------------------------------------------------------*
	.dwcfi	cfa_offset, 0
        SUB       SP, SP, #8            ; [DPU_V7M3_PIPE] 
	.dwcfi	cfa_offset, 8
$C$DW$90	.dwtag  DW_TAG_variable
	.dwattr $C$DW$90, DW_AT_name("ui32Base")
	.dwattr $C$DW$90, DW_AT_TI_symbol_name("ui32Base")
	.dwattr $C$DW$90, DW_AT_type(*$C$DW$T$25)
	.dwattr $C$DW$90, DW_AT_location[DW_OP_breg13 0]

$C$DW$91	.dwtag  DW_TAG_variable
	.dwattr $C$DW$91, DW_AT_name("ui32Flags")
	.dwattr $C$DW$91, DW_AT_TI_symbol_name("ui32Flags")
	.dwattr $C$DW$91, DW_AT_type(*$C$DW$T$25)
	.dwattr $C$DW$91, DW_AT_location[DW_OP_breg13 4]

        STR       A2, [SP, #4]          ; [DPU_V7M3_PIPE] |744| 
        STR       A1, [SP, #0]          ; [DPU_V7M3_PIPE] |744| 
	.dwpsn	file "../driverlib/usb.c",line 753,column 5,is_stmt,isa 1
        LDR       A2, [SP, #0]          ; [DPU_V7M3_PIPE] |753| 
        LDR       A1, [SP, #4]          ; [DPU_V7M3_PIPE] |753| 
        ADDS      A2, A2, #6            ; [DPU_V7M3_PIPE] |753| 
        LDRH      A3, [A2, #0]          ; [DPU_V7M3_PIPE] |753| 
        BFC       A1, #16, #16          ; [DPU_V7M3_PIPE] |753| 
        ORRS      A1, A1, A3            ; [DPU_V7M3_PIPE] |753| 
        STRH      A1, [A2, #0]          ; [DPU_V7M3_PIPE] |753| 
	.dwpsn	file "../driverlib/usb.c",line 759,column 5,is_stmt,isa 1
        LDR       A2, $C$CON3           ; [DPU_V7M3_PIPE] |759| 
        LDR       A1, [SP, #0]          ; [DPU_V7M3_PIPE] |759| 
        LDR       A4, [SP, #4]          ; [DPU_V7M3_PIPE] |759| 
        ADDS      A1, A1, #8            ; [DPU_V7M3_PIPE] |759| 
        LDRH      A3, [A1, #0]          ; [DPU_V7M3_PIPE] |759| 
        ANDS      A2, A2, A4            ; [DPU_V7M3_PIPE] |759| 
        ORR       A3, A3, A2, LSR #16   ; [DPU_V7M3_PIPE] |759| 
        STRH      A3, [A1, #0]          ; [DPU_V7M3_PIPE] |759| 
	.dwpsn	file "../driverlib/usb.c",line 762,column 1,is_stmt,isa 1
        ADD       SP, SP, #8            ; [DPU_V7M3_PIPE] 
	.dwcfi	cfa_offset, 0
$C$DW$92	.dwtag  DW_TAG_TI_branch
	.dwattr $C$DW$92, DW_AT_low_pc(0x00)
	.dwattr $C$DW$92, DW_AT_TI_return

        BX        LR                    ; [DPU_V7M3_PIPE] 
        ; BRANCH OCCURS                  ; [] 
	.dwattr $C$DW$87, DW_AT_TI_end_file("../driverlib/usb.c")
	.dwattr $C$DW$87, DW_AT_TI_end_line(0x2fa)
	.dwattr $C$DW$87, DW_AT_TI_end_column(0x01)
	.dwendentry
	.dwendtag $C$DW$87

	.sect	".text"
	.clink
	.thumbfunc USBIntStatusEndpoint
	.thumb
	.global	USBIntStatusEndpoint

$C$DW$93	.dwtag  DW_TAG_subprogram
	.dwattr $C$DW$93, DW_AT_name("USBIntStatusEndpoint")
	.dwattr $C$DW$93, DW_AT_low_pc(USBIntStatusEndpoint)
	.dwattr $C$DW$93, DW_AT_high_pc(0x00)
	.dwattr $C$DW$93, DW_AT_TI_symbol_name("USBIntStatusEndpoint")
	.dwattr $C$DW$93, DW_AT_external
	.dwattr $C$DW$93, DW_AT_type(*$C$DW$T$25)
	.dwattr $C$DW$93, DW_AT_TI_begin_file("../driverlib/usb.c")
	.dwattr $C$DW$93, DW_AT_TI_begin_line(0x310)
	.dwattr $C$DW$93, DW_AT_TI_begin_column(0x01)
	.dwattr $C$DW$93, DW_AT_decl_file("../driverlib/usb.c")
	.dwattr $C$DW$93, DW_AT_decl_line(0x310)
	.dwattr $C$DW$93, DW_AT_decl_column(0x01)
	.dwattr $C$DW$93, DW_AT_TI_max_frame_size(0x08)
	.dwpsn	file "../driverlib/usb.c",line 785,column 1,is_stmt,address USBIntStatusEndpoint,isa 1

	.dwfde $C$DW$CIE, USBIntStatusEndpoint
$C$DW$94	.dwtag  DW_TAG_formal_parameter
	.dwattr $C$DW$94, DW_AT_name("ui32Base")
	.dwattr $C$DW$94, DW_AT_TI_symbol_name("ui32Base")
	.dwattr $C$DW$94, DW_AT_type(*$C$DW$T$25)
	.dwattr $C$DW$94, DW_AT_location[DW_OP_reg0]


;*****************************************************************************
;* FUNCTION NAME: USBIntStatusEndpoint                                       *
;*                                                                           *
;*   Regs Modified     : A1,A2,SP                                            *
;*   Regs Used         : A1,A2,SP,LR                                         *
;*   Local Frame Size  : 0 Args + 8 Auto + 0 Save = 8 byte                   *
;*****************************************************************************
USBIntStatusEndpoint:
;* --------------------------------------------------------------------------*
	.dwcfi	cfa_offset, 0
        SUB       SP, SP, #8            ; [DPU_V7M3_PIPE] 
	.dwcfi	cfa_offset, 8
$C$DW$95	.dwtag  DW_TAG_variable
	.dwattr $C$DW$95, DW_AT_name("ui32Base")
	.dwattr $C$DW$95, DW_AT_TI_symbol_name("ui32Base")
	.dwattr $C$DW$95, DW_AT_type(*$C$DW$T$25)
	.dwattr $C$DW$95, DW_AT_location[DW_OP_breg13 0]

$C$DW$96	.dwtag  DW_TAG_variable
	.dwattr $C$DW$96, DW_AT_name("ui32Status")
	.dwattr $C$DW$96, DW_AT_TI_symbol_name("ui32Status")
	.dwattr $C$DW$96, DW_AT_type(*$C$DW$T$25)
	.dwattr $C$DW$96, DW_AT_location[DW_OP_breg13 4]

        STR       A1, [SP, #0]          ; [DPU_V7M3_PIPE] |785| 
	.dwpsn	file "../driverlib/usb.c",line 796,column 5,is_stmt,isa 1
        LDR       A1, [SP, #0]          ; [DPU_V7M3_PIPE] |796| 
        LDRH      A1, [A1, #2]          ; [DPU_V7M3_PIPE] |796| 
        STR       A1, [SP, #4]          ; [DPU_V7M3_PIPE] |796| 
	.dwpsn	file "../driverlib/usb.c",line 797,column 5,is_stmt,isa 1
        LDR       A2, [SP, #0]          ; [DPU_V7M3_PIPE] |797| 
        LDR       A1, [SP, #4]          ; [DPU_V7M3_PIPE] |797| 
        LDRH      A2, [A2, #4]          ; [DPU_V7M3_PIPE] |797| 
        ORR       A1, A1, A2, LSL #16   ; [DPU_V7M3_PIPE] |797| 
        STR       A1, [SP, #4]          ; [DPU_V7M3_PIPE] |797| 
	.dwpsn	file "../driverlib/usb.c",line 802,column 5,is_stmt,isa 1
        LDR       A1, [SP, #4]          ; [DPU_V7M3_PIPE] |802| 
	.dwpsn	file "../driverlib/usb.c",line 803,column 1,is_stmt,isa 1
        ADD       SP, SP, #8            ; [DPU_V7M3_PIPE] 
	.dwcfi	cfa_offset, 0
$C$DW$97	.dwtag  DW_TAG_TI_branch
	.dwattr $C$DW$97, DW_AT_low_pc(0x00)
	.dwattr $C$DW$97, DW_AT_TI_return

        BX        LR                    ; [DPU_V7M3_PIPE] 
        ; BRANCH OCCURS                  ; [] 
	.dwattr $C$DW$93, DW_AT_TI_end_file("../driverlib/usb.c")
	.dwattr $C$DW$93, DW_AT_TI_end_line(0x323)
	.dwattr $C$DW$93, DW_AT_TI_end_column(0x01)
	.dwendentry
	.dwendtag $C$DW$93

	.sect	".text"
	.clink
	.thumbfunc _USBIntNumberGet
	.thumb

$C$DW$98	.dwtag  DW_TAG_subprogram
	.dwattr $C$DW$98, DW_AT_name("_USBIntNumberGet")
	.dwattr $C$DW$98, DW_AT_low_pc(_USBIntNumberGet)
	.dwattr $C$DW$98, DW_AT_high_pc(0x00)
	.dwattr $C$DW$98, DW_AT_TI_symbol_name("_USBIntNumberGet")
	.dwattr $C$DW$98, DW_AT_type(*$C$DW$T$25)
	.dwattr $C$DW$98, DW_AT_TI_begin_file("../driverlib/usb.c")
	.dwattr $C$DW$98, DW_AT_TI_begin_line(0x333)
	.dwattr $C$DW$98, DW_AT_TI_begin_column(0x01)
	.dwattr $C$DW$98, DW_AT_decl_file("../driverlib/usb.c")
	.dwattr $C$DW$98, DW_AT_decl_line(0x333)
	.dwattr $C$DW$98, DW_AT_decl_column(0x01)
	.dwattr $C$DW$98, DW_AT_TI_max_frame_size(0x08)
	.dwpsn	file "../driverlib/usb.c",line 820,column 1,is_stmt,address _USBIntNumberGet,isa 1

	.dwfde $C$DW$CIE, _USBIntNumberGet
$C$DW$99	.dwtag  DW_TAG_formal_parameter
	.dwattr $C$DW$99, DW_AT_name("ui32Base")
	.dwattr $C$DW$99, DW_AT_TI_symbol_name("ui32Base")
	.dwattr $C$DW$99, DW_AT_type(*$C$DW$T$25)
	.dwattr $C$DW$99, DW_AT_location[DW_OP_reg0]


;*****************************************************************************
;* FUNCTION NAME: _USBIntNumberGet                                           *
;*                                                                           *
;*   Regs Modified     : A1,A2,A3,SP,SR                                      *
;*   Regs Used         : A1,A2,A3,SP,LR,SR                                   *
;*   Local Frame Size  : 0 Args + 8 Auto + 0 Save = 8 byte                   *
;*****************************************************************************
_USBIntNumberGet:
;* --------------------------------------------------------------------------*
	.dwcfi	cfa_offset, 0
        SUB       SP, SP, #8            ; [DPU_V7M3_PIPE] 
	.dwcfi	cfa_offset, 8
$C$DW$100	.dwtag  DW_TAG_variable
	.dwattr $C$DW$100, DW_AT_name("ui32Base")
	.dwattr $C$DW$100, DW_AT_TI_symbol_name("ui32Base")
	.dwattr $C$DW$100, DW_AT_type(*$C$DW$T$25)
	.dwattr $C$DW$100, DW_AT_location[DW_OP_breg13 0]

$C$DW$101	.dwtag  DW_TAG_variable
	.dwattr $C$DW$101, DW_AT_name("ui32Int")
	.dwattr $C$DW$101, DW_AT_TI_symbol_name("ui32Int")
	.dwattr $C$DW$101, DW_AT_type(*$C$DW$T$25)
	.dwattr $C$DW$101, DW_AT_location[DW_OP_breg13 4]

        STR       A1, [SP, #0]          ; [DPU_V7M3_PIPE] |820| 
	.dwpsn	file "../driverlib/usb.c",line 823,column 5,is_stmt,isa 1
        LDR       A2, $C$CON5           ; [DPU_V7M3_PIPE] |823| 
        LDR       A1, $C$CON4           ; [DPU_V7M3_PIPE] |823| 
        LDR       A3, [A2, #0]          ; [DPU_V7M3_PIPE] |823| 
        LDR       A2, $C$CON6           ; [DPU_V7M3_PIPE] |823| 
        ANDS      A1, A1, A3            ; [DPU_V7M3_PIPE] |823| 
        CMP       A2, A1                ; [DPU_V7M3_PIPE] |823| 
        BNE       ||$C$L25||            ; [DPU_V7M3_PIPE] |823| 
        ; BRANCHCC OCCURS {||$C$L25||}   ; [] |823| 
;* --------------------------------------------------------------------------*
	.dwpsn	file "../driverlib/usb.c",line 825,column 9,is_stmt,isa 1
        MOVS      A1, #60               ; [DPU_V7M3_PIPE] |825| 
        STR       A1, [SP, #4]          ; [DPU_V7M3_PIPE] |825| 
	.dwpsn	file "../driverlib/usb.c",line 826,column 5,is_stmt,isa 1
        B         ||$C$L27||            ; [DPU_V7M3_PIPE] |826| 
        ; BRANCH OCCURS {||$C$L27||}     ; [] |826| 
;* --------------------------------------------------------------------------*
||$C$L25||:    
	.dwpsn	file "../driverlib/usb.c",line 827,column 10,is_stmt,isa 1
        LDR       A2, $C$CON5           ; [DPU_V7M3_PIPE] |827| 
        LDR       A1, $C$CON4           ; [DPU_V7M3_PIPE] |827| 
        LDR       A3, [A2, #0]          ; [DPU_V7M3_PIPE] |827| 
        LDR       A2, $C$CON7           ; [DPU_V7M3_PIPE] |827| 
        ANDS      A1, A1, A3            ; [DPU_V7M3_PIPE] |827| 
        CMP       A2, A1                ; [DPU_V7M3_PIPE] |827| 
        BNE       ||$C$L26||            ; [DPU_V7M3_PIPE] |827| 
        ; BRANCHCC OCCURS {||$C$L26||}   ; [] |827| 
;* --------------------------------------------------------------------------*
	.dwpsn	file "../driverlib/usb.c",line 829,column 9,is_stmt,isa 1
        MOVS      A1, #58               ; [DPU_V7M3_PIPE] |829| 
        STR       A1, [SP, #4]          ; [DPU_V7M3_PIPE] |829| 
	.dwpsn	file "../driverlib/usb.c",line 830,column 5,is_stmt,isa 1
        B         ||$C$L27||            ; [DPU_V7M3_PIPE] |830| 
        ; BRANCH OCCURS {||$C$L27||}     ; [] |830| 
;* --------------------------------------------------------------------------*
||$C$L26||:    
	.dwpsn	file "../driverlib/usb.c",line 833,column 9,is_stmt,isa 1
        MOVS      A1, #0                ; [DPU_V7M3_PIPE] |833| 
        STR       A1, [SP, #4]          ; [DPU_V7M3_PIPE] |833| 
;* --------------------------------------------------------------------------*
||$C$L27||:    
	.dwpsn	file "../driverlib/usb.c",line 835,column 5,is_stmt,isa 1
        LDR       A1, [SP, #4]          ; [DPU_V7M3_PIPE] |835| 
	.dwpsn	file "../driverlib/usb.c",line 836,column 1,is_stmt,isa 1
        ADD       SP, SP, #8            ; [DPU_V7M3_PIPE] 
	.dwcfi	cfa_offset, 0
$C$DW$102	.dwtag  DW_TAG_TI_branch
	.dwattr $C$DW$102, DW_AT_low_pc(0x00)
	.dwattr $C$DW$102, DW_AT_TI_return

        BX        LR                    ; [DPU_V7M3_PIPE] 
        ; BRANCH OCCURS                  ; [] 
	.dwattr $C$DW$98, DW_AT_TI_end_file("../driverlib/usb.c")
	.dwattr $C$DW$98, DW_AT_TI_end_line(0x344)
	.dwattr $C$DW$98, DW_AT_TI_end_column(0x01)
	.dwendentry
	.dwendtag $C$DW$98

	.sect	".text"
	.clink
	.thumbfunc USBIntRegister
	.thumb
	.global	USBIntRegister

$C$DW$103	.dwtag  DW_TAG_subprogram
	.dwattr $C$DW$103, DW_AT_name("USBIntRegister")
	.dwattr $C$DW$103, DW_AT_low_pc(USBIntRegister)
	.dwattr $C$DW$103, DW_AT_high_pc(0x00)
	.dwattr $C$DW$103, DW_AT_TI_symbol_name("USBIntRegister")
	.dwattr $C$DW$103, DW_AT_external
	.dwattr $C$DW$103, DW_AT_TI_begin_file("../driverlib/usb.c")
	.dwattr $C$DW$103, DW_AT_TI_begin_line(0x35c)
	.dwattr $C$DW$103, DW_AT_TI_begin_column(0x01)
	.dwattr $C$DW$103, DW_AT_decl_file("../driverlib/usb.c")
	.dwattr $C$DW$103, DW_AT_decl_line(0x35c)
	.dwattr $C$DW$103, DW_AT_decl_column(0x01)
	.dwattr $C$DW$103, DW_AT_TI_max_frame_size(0x10)
	.dwpsn	file "../driverlib/usb.c",line 861,column 1,is_stmt,address USBIntRegister,isa 1

	.dwfde $C$DW$CIE, USBIntRegister
$C$DW$104	.dwtag  DW_TAG_formal_parameter
	.dwattr $C$DW$104, DW_AT_name("ui32Base")
	.dwattr $C$DW$104, DW_AT_TI_symbol_name("ui32Base")
	.dwattr $C$DW$104, DW_AT_type(*$C$DW$T$25)
	.dwattr $C$DW$104, DW_AT_location[DW_OP_reg0]

$C$DW$105	.dwtag  DW_TAG_formal_parameter
	.dwattr $C$DW$105, DW_AT_name("pfnHandler")
	.dwattr $C$DW$105, DW_AT_TI_symbol_name("pfnHandler")
	.dwattr $C$DW$105, DW_AT_type(*$C$DW$T$33)
	.dwattr $C$DW$105, DW_AT_location[DW_OP_reg1]


;*****************************************************************************
;* FUNCTION NAME: USBIntRegister                                             *
;*                                                                           *
;*   Regs Modified     : A1,A2,A3,A4,V9,SP,LR,SR,D0,D0_hi,D1,D1_hi,D2,D2_hi, *
;*                           D3,D3_hi,D4,D4_hi,D5,D5_hi,D6,D6_hi,D7,D7_hi,   *
;*                           FPEXC,FPSCR                                     *
;*   Regs Used         : A1,A2,A3,A4,V9,SP,LR,SR,D0,D0_hi,D1,D1_hi,D2,D2_hi, *
;*                           D3,D3_hi,D4,D4_hi,D5,D5_hi,D6,D6_hi,D7,D7_hi,   *
;*                           FPEXC,FPSCR                                     *
;*   Local Frame Size  : 0 Args + 12 Auto + 4 Save = 16 byte                 *
;*****************************************************************************
USBIntRegister:
;* --------------------------------------------------------------------------*
	.dwcfi	cfa_offset, 0
        PUSH      {A2, A3, A4, LR}      ; [DPU_V7M3_PIPE] 
	.dwcfi	cfa_offset, 16
	.dwcfi	save_reg_to_mem, 14, -4
	.dwcfi	save_reg_to_mem, 3, -8
	.dwcfi	save_reg_to_mem, 2, -12
	.dwcfi	save_reg_to_mem, 1, -16
$C$DW$106	.dwtag  DW_TAG_variable
	.dwattr $C$DW$106, DW_AT_name("ui32Base")
	.dwattr $C$DW$106, DW_AT_TI_symbol_name("ui32Base")
	.dwattr $C$DW$106, DW_AT_type(*$C$DW$T$25)
	.dwattr $C$DW$106, DW_AT_location[DW_OP_breg13 0]

$C$DW$107	.dwtag  DW_TAG_variable
	.dwattr $C$DW$107, DW_AT_name("pfnHandler")
	.dwattr $C$DW$107, DW_AT_TI_symbol_name("pfnHandler")
	.dwattr $C$DW$107, DW_AT_type(*$C$DW$T$33)
	.dwattr $C$DW$107, DW_AT_location[DW_OP_breg13 4]

$C$DW$108	.dwtag  DW_TAG_variable
	.dwattr $C$DW$108, DW_AT_name("ui32Int")
	.dwattr $C$DW$108, DW_AT_TI_symbol_name("ui32Int")
	.dwattr $C$DW$108, DW_AT_type(*$C$DW$T$25)
	.dwattr $C$DW$108, DW_AT_location[DW_OP_breg13 8]

        STR       A2, [SP, #4]          ; [DPU_V7M3_PIPE] |861| 
        STR       A1, [SP, #0]          ; [DPU_V7M3_PIPE] |861| 
	.dwpsn	file "../driverlib/usb.c",line 869,column 5,is_stmt,isa 1
        LDR       A1, [SP, #0]          ; [DPU_V7M3_PIPE] |869| 
$C$DW$109	.dwtag  DW_TAG_TI_branch
	.dwattr $C$DW$109, DW_AT_low_pc(0x00)
	.dwattr $C$DW$109, DW_AT_name("_USBIntNumberGet")
	.dwattr $C$DW$109, DW_AT_TI_call

        BL        _USBIntNumberGet      ; [DPU_V7M3_PIPE] |869| 
        ; CALL OCCURS {_USBIntNumberGet }  ; [] |869| 
        STR       A1, [SP, #8]          ; [DPU_V7M3_PIPE] |869| 
	.dwpsn	file "../driverlib/usb.c",line 876,column 5,is_stmt,isa 1
        LDR       A2, [SP, #4]          ; [DPU_V7M3_PIPE] |876| 
        LDR       A1, [SP, #8]          ; [DPU_V7M3_PIPE] |876| 
$C$DW$110	.dwtag  DW_TAG_TI_branch
	.dwattr $C$DW$110, DW_AT_low_pc(0x00)
	.dwattr $C$DW$110, DW_AT_name("IntRegister")
	.dwattr $C$DW$110, DW_AT_TI_call

        BL        IntRegister           ; [DPU_V7M3_PIPE] |876| 
        ; CALL OCCURS {IntRegister }     ; [] |876| 
	.dwpsn	file "../driverlib/usb.c",line 881,column 5,is_stmt,isa 1
        LDR       A1, [SP, #8]          ; [DPU_V7M3_PIPE] |881| 
$C$DW$111	.dwtag  DW_TAG_TI_branch
	.dwattr $C$DW$111, DW_AT_low_pc(0x00)
	.dwattr $C$DW$111, DW_AT_name("IntEnable")
	.dwattr $C$DW$111, DW_AT_TI_call

        BL        IntEnable             ; [DPU_V7M3_PIPE] |881| 
        ; CALL OCCURS {IntEnable }       ; [] |881| 
	.dwpsn	file "../driverlib/usb.c",line 882,column 1,is_stmt,isa 1
$C$DW$112	.dwtag  DW_TAG_TI_branch
	.dwattr $C$DW$112, DW_AT_low_pc(0x00)
	.dwattr $C$DW$112, DW_AT_TI_return

        POP       {A2, A3, A4, PC}      ; [DPU_V7M3_PIPE] 
	.dwcfi	cfa_offset, 0
	.dwcfi	restore_reg, 3
	.dwcfi	restore_reg, 2
	.dwcfi	restore_reg, 1
        ; BRANCH OCCURS                  ; [] 
	.dwattr $C$DW$103, DW_AT_TI_end_file("../driverlib/usb.c")
	.dwattr $C$DW$103, DW_AT_TI_end_line(0x372)
	.dwattr $C$DW$103, DW_AT_TI_end_column(0x01)
	.dwendentry
	.dwendtag $C$DW$103

	.sect	".text"
	.clink
	.thumbfunc USBIntUnregister
	.thumb
	.global	USBIntUnregister

$C$DW$113	.dwtag  DW_TAG_subprogram
	.dwattr $C$DW$113, DW_AT_name("USBIntUnregister")
	.dwattr $C$DW$113, DW_AT_low_pc(USBIntUnregister)
	.dwattr $C$DW$113, DW_AT_high_pc(0x00)
	.dwattr $C$DW$113, DW_AT_TI_symbol_name("USBIntUnregister")
	.dwattr $C$DW$113, DW_AT_external
	.dwattr $C$DW$113, DW_AT_TI_begin_file("../driverlib/usb.c")
	.dwattr $C$DW$113, DW_AT_TI_begin_line(0x384)
	.dwattr $C$DW$113, DW_AT_TI_begin_column(0x01)
	.dwattr $C$DW$113, DW_AT_decl_file("../driverlib/usb.c")
	.dwattr $C$DW$113, DW_AT_decl_line(0x384)
	.dwattr $C$DW$113, DW_AT_decl_column(0x01)
	.dwattr $C$DW$113, DW_AT_TI_max_frame_size(0x10)
	.dwpsn	file "../driverlib/usb.c",line 901,column 1,is_stmt,address USBIntUnregister,isa 1

	.dwfde $C$DW$CIE, USBIntUnregister
$C$DW$114	.dwtag  DW_TAG_formal_parameter
	.dwattr $C$DW$114, DW_AT_name("ui32Base")
	.dwattr $C$DW$114, DW_AT_TI_symbol_name("ui32Base")
	.dwattr $C$DW$114, DW_AT_type(*$C$DW$T$25)
	.dwattr $C$DW$114, DW_AT_location[DW_OP_reg0]


;*****************************************************************************
;* FUNCTION NAME: USBIntUnregister                                           *
;*                                                                           *
;*   Regs Modified     : A1,A2,A3,A4,V9,SP,LR,SR,D0,D0_hi,D1,D1_hi,D2,D2_hi, *
;*                           D3,D3_hi,D4,D4_hi,D5,D5_hi,D6,D6_hi,D7,D7_hi,   *
;*                           FPEXC,FPSCR                                     *
;*   Regs Used         : A1,A2,A3,A4,V9,SP,LR,SR,D0,D0_hi,D1,D1_hi,D2,D2_hi, *
;*                           D3,D3_hi,D4,D4_hi,D5,D5_hi,D6,D6_hi,D7,D7_hi,   *
;*                           FPEXC,FPSCR                                     *
;*   Local Frame Size  : 0 Args + 8 Auto + 4 Save = 12 byte                  *
;*****************************************************************************
USBIntUnregister:
;* --------------------------------------------------------------------------*
	.dwcfi	cfa_offset, 0
        PUSH      {A2, A3, A4, LR}      ; [DPU_V7M3_PIPE] 
	.dwcfi	cfa_offset, 16
	.dwcfi	save_reg_to_mem, 14, -4
	.dwcfi	save_reg_to_mem, 3, -8
	.dwcfi	save_reg_to_mem, 2, -12
	.dwcfi	save_reg_to_mem, 1, -16
$C$DW$115	.dwtag  DW_TAG_variable
	.dwattr $C$DW$115, DW_AT_name("ui32Base")
	.dwattr $C$DW$115, DW_AT_TI_symbol_name("ui32Base")
	.dwattr $C$DW$115, DW_AT_type(*$C$DW$T$25)
	.dwattr $C$DW$115, DW_AT_location[DW_OP_breg13 0]

$C$DW$116	.dwtag  DW_TAG_variable
	.dwattr $C$DW$116, DW_AT_name("ui32Int")
	.dwattr $C$DW$116, DW_AT_TI_symbol_name("ui32Int")
	.dwattr $C$DW$116, DW_AT_type(*$C$DW$T$25)
	.dwattr $C$DW$116, DW_AT_location[DW_OP_breg13 4]

        STR       A1, [SP, #0]          ; [DPU_V7M3_PIPE] |901| 
	.dwpsn	file "../driverlib/usb.c",line 909,column 5,is_stmt,isa 1
        LDR       A1, [SP, #0]          ; [DPU_V7M3_PIPE] |909| 
$C$DW$117	.dwtag  DW_TAG_TI_branch
	.dwattr $C$DW$117, DW_AT_low_pc(0x00)
	.dwattr $C$DW$117, DW_AT_name("_USBIntNumberGet")
	.dwattr $C$DW$117, DW_AT_TI_call

        BL        _USBIntNumberGet      ; [DPU_V7M3_PIPE] |909| 
        ; CALL OCCURS {_USBIntNumberGet }  ; [] |909| 
        STR       A1, [SP, #4]          ; [DPU_V7M3_PIPE] |909| 
	.dwpsn	file "../driverlib/usb.c",line 916,column 5,is_stmt,isa 1
        LDR       A1, [SP, #4]          ; [DPU_V7M3_PIPE] |916| 
$C$DW$118	.dwtag  DW_TAG_TI_branch
	.dwattr $C$DW$118, DW_AT_low_pc(0x00)
	.dwattr $C$DW$118, DW_AT_name("IntDisable")
	.dwattr $C$DW$118, DW_AT_TI_call

        BL        IntDisable            ; [DPU_V7M3_PIPE] |916| 
        ; CALL OCCURS {IntDisable }      ; [] |916| 
	.dwpsn	file "../driverlib/usb.c",line 921,column 5,is_stmt,isa 1
        LDR       A1, [SP, #4]          ; [DPU_V7M3_PIPE] |921| 
$C$DW$119	.dwtag  DW_TAG_TI_branch
	.dwattr $C$DW$119, DW_AT_low_pc(0x00)
	.dwattr $C$DW$119, DW_AT_name("IntUnregister")
	.dwattr $C$DW$119, DW_AT_TI_call

        BL        IntUnregister         ; [DPU_V7M3_PIPE] |921| 
        ; CALL OCCURS {IntUnregister }   ; [] |921| 
	.dwpsn	file "../driverlib/usb.c",line 922,column 1,is_stmt,isa 1
$C$DW$120	.dwtag  DW_TAG_TI_branch
	.dwattr $C$DW$120, DW_AT_low_pc(0x00)
	.dwattr $C$DW$120, DW_AT_TI_return

        POP       {A2, A3, A4, PC}      ; [DPU_V7M3_PIPE] 
	.dwcfi	cfa_offset, 0
	.dwcfi	restore_reg, 3
	.dwcfi	restore_reg, 2
	.dwcfi	restore_reg, 1
        ; BRANCH OCCURS                  ; [] 
	.dwattr $C$DW$113, DW_AT_TI_end_file("../driverlib/usb.c")
	.dwattr $C$DW$113, DW_AT_TI_end_line(0x39a)
	.dwattr $C$DW$113, DW_AT_TI_end_column(0x01)
	.dwendentry
	.dwendtag $C$DW$113

	.sect	".text"
	.clink
	.thumbfunc USBEndpointStatus
	.thumb
	.global	USBEndpointStatus

$C$DW$121	.dwtag  DW_TAG_subprogram
	.dwattr $C$DW$121, DW_AT_name("USBEndpointStatus")
	.dwattr $C$DW$121, DW_AT_low_pc(USBEndpointStatus)
	.dwattr $C$DW$121, DW_AT_high_pc(0x00)
	.dwattr $C$DW$121, DW_AT_TI_symbol_name("USBEndpointStatus")
	.dwattr $C$DW$121, DW_AT_external
	.dwattr $C$DW$121, DW_AT_type(*$C$DW$T$25)
	.dwattr $C$DW$121, DW_AT_TI_begin_file("../driverlib/usb.c")
	.dwattr $C$DW$121, DW_AT_TI_begin_line(0x3e3)
	.dwattr $C$DW$121, DW_AT_TI_begin_column(0x01)
	.dwattr $C$DW$121, DW_AT_decl_file("../driverlib/usb.c")
	.dwattr $C$DW$121, DW_AT_decl_line(0x3e3)
	.dwattr $C$DW$121, DW_AT_decl_column(0x01)
	.dwattr $C$DW$121, DW_AT_TI_max_frame_size(0x10)
	.dwpsn	file "../driverlib/usb.c",line 996,column 1,is_stmt,address USBEndpointStatus,isa 1

	.dwfde $C$DW$CIE, USBEndpointStatus
$C$DW$122	.dwtag  DW_TAG_formal_parameter
	.dwattr $C$DW$122, DW_AT_name("ui32Base")
	.dwattr $C$DW$122, DW_AT_TI_symbol_name("ui32Base")
	.dwattr $C$DW$122, DW_AT_type(*$C$DW$T$25)
	.dwattr $C$DW$122, DW_AT_location[DW_OP_reg0]

$C$DW$123	.dwtag  DW_TAG_formal_parameter
	.dwattr $C$DW$123, DW_AT_name("ui32Endpoint")
	.dwattr $C$DW$123, DW_AT_TI_symbol_name("ui32Endpoint")
	.dwattr $C$DW$123, DW_AT_type(*$C$DW$T$25)
	.dwattr $C$DW$123, DW_AT_location[DW_OP_reg1]


;*****************************************************************************
;* FUNCTION NAME: USBEndpointStatus                                          *
;*                                                                           *
;*   Regs Modified     : A1,A2,SP,SR                                         *
;*   Regs Used         : A1,A2,SP,LR,SR                                      *
;*   Local Frame Size  : 0 Args + 12 Auto + 0 Save = 12 byte                 *
;*****************************************************************************
USBEndpointStatus:
;* --------------------------------------------------------------------------*
	.dwcfi	cfa_offset, 0
        SUB       SP, SP, #16           ; [DPU_V7M3_PIPE] 
	.dwcfi	cfa_offset, 16
$C$DW$124	.dwtag  DW_TAG_variable
	.dwattr $C$DW$124, DW_AT_name("ui32Base")
	.dwattr $C$DW$124, DW_AT_TI_symbol_name("ui32Base")
	.dwattr $C$DW$124, DW_AT_type(*$C$DW$T$25)
	.dwattr $C$DW$124, DW_AT_location[DW_OP_breg13 0]

$C$DW$125	.dwtag  DW_TAG_variable
	.dwattr $C$DW$125, DW_AT_name("ui32Endpoint")
	.dwattr $C$DW$125, DW_AT_TI_symbol_name("ui32Endpoint")
	.dwattr $C$DW$125, DW_AT_type(*$C$DW$T$25)
	.dwattr $C$DW$125, DW_AT_location[DW_OP_breg13 4]

$C$DW$126	.dwtag  DW_TAG_variable
	.dwattr $C$DW$126, DW_AT_name("ui32Status")
	.dwattr $C$DW$126, DW_AT_TI_symbol_name("ui32Status")
	.dwattr $C$DW$126, DW_AT_type(*$C$DW$T$25)
	.dwattr $C$DW$126, DW_AT_location[DW_OP_breg13 8]

        STR       A2, [SP, #4]          ; [DPU_V7M3_PIPE] |996| 
        STR       A1, [SP, #0]          ; [DPU_V7M3_PIPE] |996| 
	.dwpsn	file "../driverlib/usb.c",line 1011,column 5,is_stmt,isa 1
        LDR       A2, [SP, #4]          ; [DPU_V7M3_PIPE] |1011| 
        LDR       A1, [SP, #0]          ; [DPU_V7M3_PIPE] |1011| 
        ADDS      A1, A1, A2            ; [DPU_V7M3_PIPE] |1011| 
        LDRH      A1, [A1, #258]        ; [DPU_V7M3_PIPE] |1011| 
        STR       A1, [SP, #8]          ; [DPU_V7M3_PIPE] |1011| 
	.dwpsn	file "../driverlib/usb.c",line 1016,column 5,is_stmt,isa 1
        LDR       A2, [SP, #4]          ; [DPU_V7M3_PIPE] |1016| 
        LDR       A1, [SP, #0]          ; [DPU_V7M3_PIPE] |1016| 
        ADDS      A1, A1, A2            ; [DPU_V7M3_PIPE] |1016| 
        LDR       A2, [SP, #8]          ; [DPU_V7M3_PIPE] |1016| 
        LDRH      A1, [A1, #262]        ; [DPU_V7M3_PIPE] |1016| 
        ORR       A2, A2, A1, LSL #16   ; [DPU_V7M3_PIPE] |1016| 
        STR       A2, [SP, #8]          ; [DPU_V7M3_PIPE] |1016| 
	.dwpsn	file "../driverlib/usb.c",line 1023,column 5,is_stmt,isa 1
        LDR       A1, [SP, #8]          ; [DPU_V7M3_PIPE] |1023| 
	.dwpsn	file "../driverlib/usb.c",line 1024,column 1,is_stmt,isa 1
        ADD       SP, SP, #16           ; [DPU_V7M3_PIPE] 
	.dwcfi	cfa_offset, 0
$C$DW$127	.dwtag  DW_TAG_TI_branch
	.dwattr $C$DW$127, DW_AT_low_pc(0x00)
	.dwattr $C$DW$127, DW_AT_TI_return

        BX        LR                    ; [DPU_V7M3_PIPE] 
        ; BRANCH OCCURS                  ; [] 
	.dwattr $C$DW$121, DW_AT_TI_end_file("../driverlib/usb.c")
	.dwattr $C$DW$121, DW_AT_TI_end_line(0x400)
	.dwattr $C$DW$121, DW_AT_TI_end_column(0x01)
	.dwendentry
	.dwendtag $C$DW$121

	.sect	".text"
	.clink
	.thumbfunc USBHostEndpointStatusClear
	.thumb
	.global	USBHostEndpointStatusClear

$C$DW$128	.dwtag  DW_TAG_subprogram
	.dwattr $C$DW$128, DW_AT_name("USBHostEndpointStatusClear")
	.dwattr $C$DW$128, DW_AT_low_pc(USBHostEndpointStatusClear)
	.dwattr $C$DW$128, DW_AT_high_pc(0x00)
	.dwattr $C$DW$128, DW_AT_TI_symbol_name("USBHostEndpointStatusClear")
	.dwattr $C$DW$128, DW_AT_external
	.dwattr $C$DW$128, DW_AT_TI_begin_file("../driverlib/usb.c")
	.dwattr $C$DW$128, DW_AT_TI_begin_line(0x414)
	.dwattr $C$DW$128, DW_AT_TI_begin_column(0x01)
	.dwattr $C$DW$128, DW_AT_decl_file("../driverlib/usb.c")
	.dwattr $C$DW$128, DW_AT_decl_line(0x414)
	.dwattr $C$DW$128, DW_AT_decl_column(0x01)
	.dwattr $C$DW$128, DW_AT_TI_max_frame_size(0x10)
	.dwpsn	file "../driverlib/usb.c",line 1046,column 1,is_stmt,address USBHostEndpointStatusClear,isa 1

	.dwfde $C$DW$CIE, USBHostEndpointStatusClear
$C$DW$129	.dwtag  DW_TAG_formal_parameter
	.dwattr $C$DW$129, DW_AT_name("ui32Base")
	.dwattr $C$DW$129, DW_AT_TI_symbol_name("ui32Base")
	.dwattr $C$DW$129, DW_AT_type(*$C$DW$T$25)
	.dwattr $C$DW$129, DW_AT_location[DW_OP_reg0]

$C$DW$130	.dwtag  DW_TAG_formal_parameter
	.dwattr $C$DW$130, DW_AT_name("ui32Endpoint")
	.dwattr $C$DW$130, DW_AT_TI_symbol_name("ui32Endpoint")
	.dwattr $C$DW$130, DW_AT_type(*$C$DW$T$25)
	.dwattr $C$DW$130, DW_AT_location[DW_OP_reg1]

$C$DW$131	.dwtag  DW_TAG_formal_parameter
	.dwattr $C$DW$131, DW_AT_name("ui32Flags")
	.dwattr $C$DW$131, DW_AT_TI_symbol_name("ui32Flags")
	.dwattr $C$DW$131, DW_AT_type(*$C$DW$T$25)
	.dwattr $C$DW$131, DW_AT_location[DW_OP_reg2]


;*****************************************************************************
;* FUNCTION NAME: USBHostEndpointStatusClear                                 *
;*                                                                           *
;*   Regs Modified     : A1,A2,A3,SP,SR                                      *
;*   Regs Used         : A1,A2,A3,SP,LR,SR                                   *
;*   Local Frame Size  : 0 Args + 12 Auto + 0 Save = 12 byte                 *
;*****************************************************************************
USBHostEndpointStatusClear:
;* --------------------------------------------------------------------------*
	.dwcfi	cfa_offset, 0
        SUB       SP, SP, #16           ; [DPU_V7M3_PIPE] 
	.dwcfi	cfa_offset, 16
$C$DW$132	.dwtag  DW_TAG_variable
	.dwattr $C$DW$132, DW_AT_name("ui32Base")
	.dwattr $C$DW$132, DW_AT_TI_symbol_name("ui32Base")
	.dwattr $C$DW$132, DW_AT_type(*$C$DW$T$25)
	.dwattr $C$DW$132, DW_AT_location[DW_OP_breg13 0]

$C$DW$133	.dwtag  DW_TAG_variable
	.dwattr $C$DW$133, DW_AT_name("ui32Endpoint")
	.dwattr $C$DW$133, DW_AT_TI_symbol_name("ui32Endpoint")
	.dwattr $C$DW$133, DW_AT_type(*$C$DW$T$25)
	.dwattr $C$DW$133, DW_AT_location[DW_OP_breg13 4]

$C$DW$134	.dwtag  DW_TAG_variable
	.dwattr $C$DW$134, DW_AT_name("ui32Flags")
	.dwattr $C$DW$134, DW_AT_TI_symbol_name("ui32Flags")
	.dwattr $C$DW$134, DW_AT_type(*$C$DW$T$25)
	.dwattr $C$DW$134, DW_AT_location[DW_OP_breg13 8]

        STR       A3, [SP, #8]          ; [DPU_V7M3_PIPE] |1046| 
        STR       A2, [SP, #4]          ; [DPU_V7M3_PIPE] |1046| 
        STR       A1, [SP, #0]          ; [DPU_V7M3_PIPE] |1046| 
	.dwpsn	file "../driverlib/usb.c",line 1059,column 5,is_stmt,isa 1
        LDR       A1, [SP, #4]          ; [DPU_V7M3_PIPE] |1059| 
        CBNZ      A1, ||$C$L28||        ; [] 
        ; BRANCHCC OCCURS {||$C$L28||}   ; [] |1059| 
;* --------------------------------------------------------------------------*
	.dwpsn	file "../driverlib/usb.c",line 1061,column 9,is_stmt,isa 1
        LDR       A1, [SP, #0]          ; [DPU_V7M3_PIPE] |1061| 
        LDR       A3, [SP, #8]          ; [DPU_V7M3_PIPE] |1061| 
        ADD       A1, A1, #258          ; [DPU_V7M3_PIPE] |1061| 
        LDRB      A2, [A1, #0]          ; [DPU_V7M3_PIPE] |1061| 
        BICS      A2, A2, A3            ; [DPU_V7M3_PIPE] |1061| 
        STRB      A2, [A1, #0]          ; [DPU_V7M3_PIPE] |1061| 
	.dwpsn	file "../driverlib/usb.c",line 1062,column 5,is_stmt,isa 1
        B         ||$C$L29||            ; [DPU_V7M3_PIPE] |1062| 
        ; BRANCH OCCURS {||$C$L29||}     ; [] |1062| 
;* --------------------------------------------------------------------------*
||$C$L28||:    
	.dwpsn	file "../driverlib/usb.c",line 1065,column 9,is_stmt,isa 1
        LDR       A2, [SP, #4]          ; [DPU_V7M3_PIPE] |1065| 
        LDR       A1, [SP, #0]          ; [DPU_V7M3_PIPE] |1065| 
        LDR       A3, [SP, #8]          ; [DPU_V7M3_PIPE] |1065| 
        ADDS      A1, A1, A2            ; [DPU_V7M3_PIPE] |1065| 
        ADD       A1, A1, #258          ; [DPU_V7M3_PIPE] |1065| 
        LDRB      A2, [A1, #0]          ; [DPU_V7M3_PIPE] |1065| 
        BICS      A2, A2, A3            ; [DPU_V7M3_PIPE] |1065| 
        STRB      A2, [A1, #0]          ; [DPU_V7M3_PIPE] |1065| 
	.dwpsn	file "../driverlib/usb.c",line 1067,column 9,is_stmt,isa 1
        LDR       A2, [SP, #4]          ; [DPU_V7M3_PIPE] |1067| 
        LDR       A1, [SP, #0]          ; [DPU_V7M3_PIPE] |1067| 
        LDR       A3, [SP, #8]          ; [DPU_V7M3_PIPE] |1067| 
        ADDS      A1, A1, A2            ; [DPU_V7M3_PIPE] |1067| 
        ADD       A1, A1, #262          ; [DPU_V7M3_PIPE] |1067| 
        LDRB      A2, [A1, #0]          ; [DPU_V7M3_PIPE] |1067| 
        BIC       A2, A2, A3, LSR #16   ; [DPU_V7M3_PIPE] |1067| 
        STRB      A2, [A1, #0]          ; [DPU_V7M3_PIPE] |1067| 
	.dwpsn	file "../driverlib/usb.c",line 1070,column 1,is_stmt,isa 1
;* --------------------------------------------------------------------------*
||$C$L29||:    
        ADD       SP, SP, #16           ; [DPU_V7M3_PIPE] 
	.dwcfi	cfa_offset, 0
$C$DW$135	.dwtag  DW_TAG_TI_branch
	.dwattr $C$DW$135, DW_AT_low_pc(0x00)
	.dwattr $C$DW$135, DW_AT_TI_return

        BX        LR                    ; [DPU_V7M3_PIPE] 
        ; BRANCH OCCURS                  ; [] 
	.dwattr $C$DW$128, DW_AT_TI_end_file("../driverlib/usb.c")
	.dwattr $C$DW$128, DW_AT_TI_end_line(0x42e)
	.dwattr $C$DW$128, DW_AT_TI_end_column(0x01)
	.dwendentry
	.dwendtag $C$DW$128

	.sect	".text"
	.clink
	.thumbfunc USBDevEndpointStatusClear
	.thumb
	.global	USBDevEndpointStatusClear

$C$DW$136	.dwtag  DW_TAG_subprogram
	.dwattr $C$DW$136, DW_AT_name("USBDevEndpointStatusClear")
	.dwattr $C$DW$136, DW_AT_low_pc(USBDevEndpointStatusClear)
	.dwattr $C$DW$136, DW_AT_high_pc(0x00)
	.dwattr $C$DW$136, DW_AT_TI_symbol_name("USBDevEndpointStatusClear")
	.dwattr $C$DW$136, DW_AT_external
	.dwattr $C$DW$136, DW_AT_TI_begin_file("../driverlib/usb.c")
	.dwattr $C$DW$136, DW_AT_TI_begin_line(0x442)
	.dwattr $C$DW$136, DW_AT_TI_begin_column(0x01)
	.dwattr $C$DW$136, DW_AT_decl_file("../driverlib/usb.c")
	.dwattr $C$DW$136, DW_AT_decl_line(0x442)
	.dwattr $C$DW$136, DW_AT_decl_column(0x01)
	.dwattr $C$DW$136, DW_AT_TI_max_frame_size(0x10)
	.dwpsn	file "../driverlib/usb.c",line 1092,column 1,is_stmt,address USBDevEndpointStatusClear,isa 1

	.dwfde $C$DW$CIE, USBDevEndpointStatusClear
$C$DW$137	.dwtag  DW_TAG_formal_parameter
	.dwattr $C$DW$137, DW_AT_name("ui32Base")
	.dwattr $C$DW$137, DW_AT_TI_symbol_name("ui32Base")
	.dwattr $C$DW$137, DW_AT_type(*$C$DW$T$25)
	.dwattr $C$DW$137, DW_AT_location[DW_OP_reg0]

$C$DW$138	.dwtag  DW_TAG_formal_parameter
	.dwattr $C$DW$138, DW_AT_name("ui32Endpoint")
	.dwattr $C$DW$138, DW_AT_TI_symbol_name("ui32Endpoint")
	.dwattr $C$DW$138, DW_AT_type(*$C$DW$T$25)
	.dwattr $C$DW$138, DW_AT_location[DW_OP_reg1]

$C$DW$139	.dwtag  DW_TAG_formal_parameter
	.dwattr $C$DW$139, DW_AT_name("ui32Flags")
	.dwattr $C$DW$139, DW_AT_TI_symbol_name("ui32Flags")
	.dwattr $C$DW$139, DW_AT_type(*$C$DW$T$25)
	.dwattr $C$DW$139, DW_AT_location[DW_OP_reg2]


;*****************************************************************************
;* FUNCTION NAME: USBDevEndpointStatusClear                                  *
;*                                                                           *
;*   Regs Modified     : A1,A2,A3,SP,SR                                      *
;*   Regs Used         : A1,A2,A3,SP,LR,SR                                   *
;*   Local Frame Size  : 0 Args + 12 Auto + 0 Save = 12 byte                 *
;*****************************************************************************
USBDevEndpointStatusClear:
;* --------------------------------------------------------------------------*
	.dwcfi	cfa_offset, 0
        SUB       SP, SP, #16           ; [DPU_V7M3_PIPE] 
	.dwcfi	cfa_offset, 16
$C$DW$140	.dwtag  DW_TAG_variable
	.dwattr $C$DW$140, DW_AT_name("ui32Base")
	.dwattr $C$DW$140, DW_AT_TI_symbol_name("ui32Base")
	.dwattr $C$DW$140, DW_AT_type(*$C$DW$T$25)
	.dwattr $C$DW$140, DW_AT_location[DW_OP_breg13 0]

$C$DW$141	.dwtag  DW_TAG_variable
	.dwattr $C$DW$141, DW_AT_name("ui32Endpoint")
	.dwattr $C$DW$141, DW_AT_TI_symbol_name("ui32Endpoint")
	.dwattr $C$DW$141, DW_AT_type(*$C$DW$T$25)
	.dwattr $C$DW$141, DW_AT_location[DW_OP_breg13 4]

$C$DW$142	.dwtag  DW_TAG_variable
	.dwattr $C$DW$142, DW_AT_name("ui32Flags")
	.dwattr $C$DW$142, DW_AT_TI_symbol_name("ui32Flags")
	.dwattr $C$DW$142, DW_AT_type(*$C$DW$T$25)
	.dwattr $C$DW$142, DW_AT_location[DW_OP_breg13 8]

        STR       A3, [SP, #8]          ; [DPU_V7M3_PIPE] |1092| 
        STR       A2, [SP, #4]          ; [DPU_V7M3_PIPE] |1092| 
        STR       A1, [SP, #0]          ; [DPU_V7M3_PIPE] |1092| 
	.dwpsn	file "../driverlib/usb.c",line 1106,column 5,is_stmt,isa 1
        LDR       A1, [SP, #4]          ; [DPU_V7M3_PIPE] |1106| 
        CBNZ      A1, ||$C$L32||        ; [] 
        ; BRANCHCC OCCURS {||$C$L32||}   ; [] |1106| 
;* --------------------------------------------------------------------------*
	.dwpsn	file "../driverlib/usb.c",line 1111,column 9,is_stmt,isa 1
        LDR       A1, [SP, #8]          ; [DPU_V7M3_PIPE] |1111| 
        LSRS      A1, A1, #1            ; [DPU_V7M3_PIPE] |1111| 
        BCC       ||$C$L30||            ; [DPU_V7M3_PIPE] |1111| 
        ; BRANCHCC OCCURS {||$C$L30||}   ; [] |1111| 
;* --------------------------------------------------------------------------*
	.dwpsn	file "../driverlib/usb.c",line 1113,column 13,is_stmt,isa 1
        LDR       A1, [SP, #0]          ; [DPU_V7M3_PIPE] |1113| 
        ADD       A1, A1, #258          ; [DPU_V7M3_PIPE] |1113| 
        LDRB      A2, [A1, #0]          ; [DPU_V7M3_PIPE] |1113| 
        ORR       A2, A2, #64           ; [DPU_V7M3_PIPE] |1113| 
        STRB      A2, [A1, #0]          ; [DPU_V7M3_PIPE] |1113| 
;* --------------------------------------------------------------------------*
||$C$L30||:    
	.dwpsn	file "../driverlib/usb.c",line 1119,column 9,is_stmt,isa 1
        LDR       A1, [SP, #8]          ; [DPU_V7M3_PIPE] |1119| 
        LSRS      A1, A1, #5            ; [DPU_V7M3_PIPE] |1119| 
        BCC       ||$C$L31||            ; [DPU_V7M3_PIPE] |1119| 
        ; BRANCHCC OCCURS {||$C$L31||}   ; [] |1119| 
;* --------------------------------------------------------------------------*
	.dwpsn	file "../driverlib/usb.c",line 1121,column 13,is_stmt,isa 1
        LDR       A1, [SP, #0]          ; [DPU_V7M3_PIPE] |1121| 
        ADD       A1, A1, #258          ; [DPU_V7M3_PIPE] |1121| 
        LDRB      A2, [A1, #0]          ; [DPU_V7M3_PIPE] |1121| 
        ORR       A2, A2, #128          ; [DPU_V7M3_PIPE] |1121| 
        STRB      A2, [A1, #0]          ; [DPU_V7M3_PIPE] |1121| 
;* --------------------------------------------------------------------------*
||$C$L31||:    
	.dwpsn	file "../driverlib/usb.c",line 1127,column 9,is_stmt,isa 1
        LDR       A1, [SP, #8]          ; [DPU_V7M3_PIPE] |1127| 
        LSRS      A1, A1, #3            ; [DPU_V7M3_PIPE] |1127| 
        BCC       ||$C$L33||            ; [DPU_V7M3_PIPE] |1127| 
        ; BRANCHCC OCCURS {||$C$L33||}   ; [] |1127| 
;* --------------------------------------------------------------------------*
	.dwpsn	file "../driverlib/usb.c",line 1129,column 13,is_stmt,isa 1
        LDR       A1, [SP, #0]          ; [DPU_V7M3_PIPE] |1129| 
        ADD       A1, A1, #258          ; [DPU_V7M3_PIPE] |1129| 
        LDRB      A2, [A1, #0]          ; [DPU_V7M3_PIPE] |1129| 
        BIC       A2, A2, #4            ; [DPU_V7M3_PIPE] |1129| 
        STRB      A2, [A1, #0]          ; [DPU_V7M3_PIPE] |1129| 
	.dwpsn	file "../driverlib/usb.c",line 1131,column 5,is_stmt,isa 1
        B         ||$C$L33||            ; [DPU_V7M3_PIPE] |1131| 
        ; BRANCH OCCURS {||$C$L33||}     ; [] |1131| 
;* --------------------------------------------------------------------------*
||$C$L32||:    
	.dwpsn	file "../driverlib/usb.c",line 1138,column 9,is_stmt,isa 1
        LDR       A2, [SP, #4]          ; [DPU_V7M3_PIPE] |1138| 
        LDR       A1, [SP, #0]          ; [DPU_V7M3_PIPE] |1138| 
        ADDS      A1, A1, A2            ; [DPU_V7M3_PIPE] |1138| 
        ADD       A1, A1, #258          ; [DPU_V7M3_PIPE] |1138| 
        LDR       A2, [SP, #8]          ; [DPU_V7M3_PIPE] |1138| 
        LDRB      A3, [A1, #0]          ; [DPU_V7M3_PIPE] |1138| 
        AND       A2, A2, #36           ; [DPU_V7M3_PIPE] |1138| 
        BICS      A3, A3, A2            ; [DPU_V7M3_PIPE] |1138| 
        STRB      A3, [A1, #0]          ; [DPU_V7M3_PIPE] |1138| 
	.dwpsn	file "../driverlib/usb.c",line 1146,column 9,is_stmt,isa 1
        LDR       A2, [SP, #4]          ; [DPU_V7M3_PIPE] |1146| 
        LDR       A1, [SP, #0]          ; [DPU_V7M3_PIPE] |1146| 
        LDR       A3, [SP, #8]          ; [DPU_V7M3_PIPE] |1146| 
        ADDS      A1, A1, A2            ; [DPU_V7M3_PIPE] |1146| 
        ADD       A1, A1, #262          ; [DPU_V7M3_PIPE] |1146| 
        LDRB      A2, [A1, #0]          ; [DPU_V7M3_PIPE] |1146| 
        AND       A3, A3, #4980736      ; [DPU_V7M3_PIPE] |1146| 
        BIC       A2, A2, A3, LSR #16   ; [DPU_V7M3_PIPE] |1146| 
        STRB      A2, [A1, #0]          ; [DPU_V7M3_PIPE] |1146| 
	.dwpsn	file "../driverlib/usb.c",line 1150,column 1,is_stmt,isa 1
;* --------------------------------------------------------------------------*
||$C$L33||:    
        ADD       SP, SP, #16           ; [DPU_V7M3_PIPE] 
	.dwcfi	cfa_offset, 0
$C$DW$143	.dwtag  DW_TAG_TI_branch
	.dwattr $C$DW$143, DW_AT_low_pc(0x00)
	.dwattr $C$DW$143, DW_AT_TI_return

        BX        LR                    ; [DPU_V7M3_PIPE] 
        ; BRANCH OCCURS                  ; [] 
	.dwattr $C$DW$136, DW_AT_TI_end_file("../driverlib/usb.c")
	.dwattr $C$DW$136, DW_AT_TI_end_line(0x47e)
	.dwattr $C$DW$136, DW_AT_TI_end_column(0x01)
	.dwendentry
	.dwendtag $C$DW$136

;******************************************************************************
;* CONSTANT TABLE                                                             *
;******************************************************************************
	.sect	".text"
	.align	4
||$C$CON1||:	.bits		0x40050448,32

	.sect	".text"
	.clink
	.thumbfunc USBHostEndpointDataToggle
	.thumb
	.global	USBHostEndpointDataToggle

$C$DW$144	.dwtag  DW_TAG_subprogram
	.dwattr $C$DW$144, DW_AT_name("USBHostEndpointDataToggle")
	.dwattr $C$DW$144, DW_AT_low_pc(USBHostEndpointDataToggle)
	.dwattr $C$DW$144, DW_AT_high_pc(0x00)
	.dwattr $C$DW$144, DW_AT_TI_symbol_name("USBHostEndpointDataToggle")
	.dwattr $C$DW$144, DW_AT_external
	.dwattr $C$DW$144, DW_AT_TI_begin_file("../driverlib/usb.c")
	.dwattr $C$DW$144, DW_AT_TI_begin_line(0x496)
	.dwattr $C$DW$144, DW_AT_TI_begin_column(0x01)
	.dwattr $C$DW$144, DW_AT_decl_file("../driverlib/usb.c")
	.dwattr $C$DW$144, DW_AT_decl_line(0x496)
	.dwattr $C$DW$144, DW_AT_decl_column(0x01)
	.dwattr $C$DW$144, DW_AT_TI_max_frame_size(0x18)
	.dwpsn	file "../driverlib/usb.c",line 1176,column 1,is_stmt,address USBHostEndpointDataToggle,isa 1

	.dwfde $C$DW$CIE, USBHostEndpointDataToggle
$C$DW$145	.dwtag  DW_TAG_formal_parameter
	.dwattr $C$DW$145, DW_AT_name("ui32Base")
	.dwattr $C$DW$145, DW_AT_TI_symbol_name("ui32Base")
	.dwattr $C$DW$145, DW_AT_type(*$C$DW$T$25)
	.dwattr $C$DW$145, DW_AT_location[DW_OP_reg0]

$C$DW$146	.dwtag  DW_TAG_formal_parameter
	.dwattr $C$DW$146, DW_AT_name("ui32Endpoint")
	.dwattr $C$DW$146, DW_AT_TI_symbol_name("ui32Endpoint")
	.dwattr $C$DW$146, DW_AT_type(*$C$DW$T$25)
	.dwattr $C$DW$146, DW_AT_location[DW_OP_reg1]

$C$DW$147	.dwtag  DW_TAG_formal_parameter
	.dwattr $C$DW$147, DW_AT_name("bDataToggle")
	.dwattr $C$DW$147, DW_AT_TI_symbol_name("bDataToggle")
	.dwattr $C$DW$147, DW_AT_type(*$C$DW$T$10)
	.dwattr $C$DW$147, DW_AT_location[DW_OP_reg2]

$C$DW$148	.dwtag  DW_TAG_formal_parameter
	.dwattr $C$DW$148, DW_AT_name("ui32Flags")
	.dwattr $C$DW$148, DW_AT_TI_symbol_name("ui32Flags")
	.dwattr $C$DW$148, DW_AT_type(*$C$DW$T$25)
	.dwattr $C$DW$148, DW_AT_location[DW_OP_reg3]


;*****************************************************************************
;* FUNCTION NAME: USBHostEndpointDataToggle                                  *
;*                                                                           *
;*   Regs Modified     : A1,A2,A3,A4,SP,SR                                   *
;*   Regs Used         : A1,A2,A3,A4,SP,LR,SR                                *
;*   Local Frame Size  : 0 Args + 20 Auto + 0 Save = 20 byte                 *
;*****************************************************************************
USBHostEndpointDataToggle:
;* --------------------------------------------------------------------------*
	.dwcfi	cfa_offset, 0
        SUB       SP, SP, #24           ; [DPU_V7M3_PIPE] 
	.dwcfi	cfa_offset, 24
$C$DW$149	.dwtag  DW_TAG_variable
	.dwattr $C$DW$149, DW_AT_name("ui32Base")
	.dwattr $C$DW$149, DW_AT_TI_symbol_name("ui32Base")
	.dwattr $C$DW$149, DW_AT_type(*$C$DW$T$25)
	.dwattr $C$DW$149, DW_AT_location[DW_OP_breg13 0]

$C$DW$150	.dwtag  DW_TAG_variable
	.dwattr $C$DW$150, DW_AT_name("ui32Endpoint")
	.dwattr $C$DW$150, DW_AT_TI_symbol_name("ui32Endpoint")
	.dwattr $C$DW$150, DW_AT_type(*$C$DW$T$25)
	.dwattr $C$DW$150, DW_AT_location[DW_OP_breg13 4]

$C$DW$151	.dwtag  DW_TAG_variable
	.dwattr $C$DW$151, DW_AT_name("ui32Flags")
	.dwattr $C$DW$151, DW_AT_TI_symbol_name("ui32Flags")
	.dwattr $C$DW$151, DW_AT_type(*$C$DW$T$25)
	.dwattr $C$DW$151, DW_AT_location[DW_OP_breg13 8]

$C$DW$152	.dwtag  DW_TAG_variable
	.dwattr $C$DW$152, DW_AT_name("ui32DataToggle")
	.dwattr $C$DW$152, DW_AT_TI_symbol_name("ui32DataToggle")
	.dwattr $C$DW$152, DW_AT_type(*$C$DW$T$25)
	.dwattr $C$DW$152, DW_AT_location[DW_OP_breg13 12]

$C$DW$153	.dwtag  DW_TAG_variable
	.dwattr $C$DW$153, DW_AT_name("bDataToggle")
	.dwattr $C$DW$153, DW_AT_TI_symbol_name("bDataToggle")
	.dwattr $C$DW$153, DW_AT_type(*$C$DW$T$40)
	.dwattr $C$DW$153, DW_AT_location[DW_OP_breg13 16]

        STR       A4, [SP, #8]          ; [DPU_V7M3_PIPE] |1176| 
        STRB      A3, [SP, #16]         ; [DPU_V7M3_PIPE] |1176| 
        STR       A2, [SP, #4]          ; [DPU_V7M3_PIPE] |1176| 
        STR       A1, [SP, #0]          ; [DPU_V7M3_PIPE] |1176| 
	.dwpsn	file "../driverlib/usb.c",line 1191,column 5,is_stmt,isa 1
        MOVS      A1, #0                ; [DPU_V7M3_PIPE] |1191| 
        STR       A1, [SP, #12]         ; [DPU_V7M3_PIPE] |1191| 
	.dwpsn	file "../driverlib/usb.c",line 1196,column 5,is_stmt,isa 1
        LDRB      A1, [SP, #16]         ; [DPU_V7M3_PIPE] |1196| 
        CBZ       A1, ||$C$L36||        ; [] 
        ; BRANCHCC OCCURS {||$C$L36||}   ; [] |1196| 
;* --------------------------------------------------------------------------*
	.dwpsn	file "../driverlib/usb.c",line 1201,column 9,is_stmt,isa 1
        LDR       A1, [SP, #4]          ; [DPU_V7M3_PIPE] |1201| 
        CBNZ      A1, ||$C$L34||        ; [] 
        ; BRANCHCC OCCURS {||$C$L34||}   ; [] |1201| 
;* --------------------------------------------------------------------------*
	.dwpsn	file "../driverlib/usb.c",line 1203,column 13,is_stmt,isa 1
        MOVS      A1, #2                ; [DPU_V7M3_PIPE] |1203| 
        STR       A1, [SP, #12]         ; [DPU_V7M3_PIPE] |1203| 
	.dwpsn	file "../driverlib/usb.c",line 1204,column 9,is_stmt,isa 1
        B         ||$C$L36||            ; [DPU_V7M3_PIPE] |1204| 
        ; BRANCH OCCURS {||$C$L36||}     ; [] |1204| 
;* --------------------------------------------------------------------------*
||$C$L34||:    
	.dwpsn	file "../driverlib/usb.c",line 1205,column 14,is_stmt,isa 1
        LDR       A1, [SP, #8]          ; [DPU_V7M3_PIPE] |1205| 
        CBNZ      A1, ||$C$L35||        ; [] 
        ; BRANCHCC OCCURS {||$C$L35||}   ; [] |1205| 
;* --------------------------------------------------------------------------*
	.dwpsn	file "../driverlib/usb.c",line 1207,column 13,is_stmt,isa 1
        MOVS      A1, #2                ; [DPU_V7M3_PIPE] |1207| 
        STR       A1, [SP, #12]         ; [DPU_V7M3_PIPE] |1207| 
	.dwpsn	file "../driverlib/usb.c",line 1208,column 9,is_stmt,isa 1
        B         ||$C$L36||            ; [DPU_V7M3_PIPE] |1208| 
        ; BRANCH OCCURS {||$C$L36||}     ; [] |1208| 
;* --------------------------------------------------------------------------*
||$C$L35||:    
	.dwpsn	file "../driverlib/usb.c",line 1211,column 13,is_stmt,isa 1
        MOVS      A1, #1                ; [DPU_V7M3_PIPE] |1211| 
        STR       A1, [SP, #12]         ; [DPU_V7M3_PIPE] |1211| 
;* --------------------------------------------------------------------------*
||$C$L36||:    
	.dwpsn	file "../driverlib/usb.c",line 1218,column 5,is_stmt,isa 1
        LDR       A1, [SP, #4]          ; [DPU_V7M3_PIPE] |1218| 
        CBNZ      A1, ||$C$L37||        ; [] 
        ; BRANCHCC OCCURS {||$C$L37||}   ; [] |1218| 
;* --------------------------------------------------------------------------*
	.dwpsn	file "../driverlib/usb.c",line 1223,column 9,is_stmt,isa 1
        LDR       A1, [SP, #0]          ; [DPU_V7M3_PIPE] |1223| 
        LDR       A2, [SP, #12]         ; [DPU_V7M3_PIPE] |1223| 
        LDR       A3, [SP, #0]          ; [DPU_V7M3_PIPE] |1223| 
        LDRB      A1, [A1, #259]        ; [DPU_V7M3_PIPE] |1223| 
        BIC       A1, A1, #6            ; [DPU_V7M3_PIPE] |1223| 
        ORRS      A2, A2, A1            ; [DPU_V7M3_PIPE] |1223| 
        ORR       A2, A2, #4            ; [DPU_V7M3_PIPE] |1223| 
        STRB      A2, [A3, #259]        ; [DPU_V7M3_PIPE] |1223| 
	.dwpsn	file "../driverlib/usb.c",line 1227,column 5,is_stmt,isa 1
        B         ||$C$L39||            ; [DPU_V7M3_PIPE] |1227| 
        ; BRANCH OCCURS {||$C$L39||}     ; [] |1227| 
;* --------------------------------------------------------------------------*
||$C$L37||:    
	.dwpsn	file "../driverlib/usb.c",line 1228,column 10,is_stmt,isa 1
        LDR       A1, [SP, #8]          ; [DPU_V7M3_PIPE] |1228| 
        CBNZ      A1, ||$C$L38||        ; [] 
        ; BRANCHCC OCCURS {||$C$L38||}   ; [] |1228| 
;* --------------------------------------------------------------------------*
	.dwpsn	file "../driverlib/usb.c",line 1233,column 9,is_stmt,isa 1
        LDR       A2, [SP, #4]          ; [DPU_V7M3_PIPE] |1233| 
        LDR       A1, [SP, #0]          ; [DPU_V7M3_PIPE] |1233| 
        LDR       A4, [SP, #4]          ; [DPU_V7M3_PIPE] |1233| 
        LDR       A3, [SP, #0]          ; [DPU_V7M3_PIPE] |1233| 
        ADDS      A1, A1, A2            ; [DPU_V7M3_PIPE] |1233| 
        LDRB      A1, [A1, #263]        ; [DPU_V7M3_PIPE] |1233| 
        LDR       A2, [SP, #12]         ; [DPU_V7M3_PIPE] |1233| 
        ADDS      A3, A3, A4            ; [DPU_V7M3_PIPE] |1233| 
        BIC       A1, A1, #6            ; [DPU_V7M3_PIPE] |1233| 
        ORRS      A2, A2, A1            ; [DPU_V7M3_PIPE] |1233| 
        ORR       A2, A2, #4            ; [DPU_V7M3_PIPE] |1233| 
        STRB      A2, [A3, #263]        ; [DPU_V7M3_PIPE] |1233| 
	.dwpsn	file "../driverlib/usb.c",line 1237,column 5,is_stmt,isa 1
        B         ||$C$L39||            ; [DPU_V7M3_PIPE] |1237| 
        ; BRANCH OCCURS {||$C$L39||}     ; [] |1237| 
;* --------------------------------------------------------------------------*
||$C$L38||:    
	.dwpsn	file "../driverlib/usb.c",line 1243,column 9,is_stmt,isa 1
        LDR       A2, [SP, #4]          ; [DPU_V7M3_PIPE] |1243| 
        LDR       A1, [SP, #0]          ; [DPU_V7M3_PIPE] |1243| 
        LDR       A4, [SP, #4]          ; [DPU_V7M3_PIPE] |1243| 
        LDR       A3, [SP, #0]          ; [DPU_V7M3_PIPE] |1243| 
        ADDS      A1, A1, A2            ; [DPU_V7M3_PIPE] |1243| 
        LDRB      A1, [A1, #259]        ; [DPU_V7M3_PIPE] |1243| 
        LDR       A2, [SP, #12]         ; [DPU_V7M3_PIPE] |1243| 
        ADDS      A3, A3, A4            ; [DPU_V7M3_PIPE] |1243| 
        BIC       A1, A1, #3            ; [DPU_V7M3_PIPE] |1243| 
        ORRS      A2, A2, A1            ; [DPU_V7M3_PIPE] |1243| 
        ORR       A2, A2, #2            ; [DPU_V7M3_PIPE] |1243| 
        STRB      A2, [A3, #259]        ; [DPU_V7M3_PIPE] |1243| 
	.dwpsn	file "../driverlib/usb.c",line 1248,column 1,is_stmt,isa 1
;* --------------------------------------------------------------------------*
||$C$L39||:    
        ADD       SP, SP, #24           ; [DPU_V7M3_PIPE] 
	.dwcfi	cfa_offset, 0
$C$DW$154	.dwtag  DW_TAG_TI_branch
	.dwattr $C$DW$154, DW_AT_low_pc(0x00)
	.dwattr $C$DW$154, DW_AT_TI_return

        BX        LR                    ; [DPU_V7M3_PIPE] 
        ; BRANCH OCCURS                  ; [] 
	.dwattr $C$DW$144, DW_AT_TI_end_file("../driverlib/usb.c")
	.dwattr $C$DW$144, DW_AT_TI_end_line(0x4e0)
	.dwattr $C$DW$144, DW_AT_TI_end_column(0x01)
	.dwendentry
	.dwendtag $C$DW$144

;******************************************************************************
;* CONSTANT TABLE                                                             *
;******************************************************************************
	.sect	".text"
	.align	4
||$C$CON2||:	.bits		0x4005044c,32

	.sect	".text"
	.clink
	.thumbfunc USBEndpointDataToggleClear
	.thumb
	.global	USBEndpointDataToggleClear

$C$DW$155	.dwtag  DW_TAG_subprogram
	.dwattr $C$DW$155, DW_AT_name("USBEndpointDataToggleClear")
	.dwattr $C$DW$155, DW_AT_low_pc(USBEndpointDataToggleClear)
	.dwattr $C$DW$155, DW_AT_high_pc(0x00)
	.dwattr $C$DW$155, DW_AT_TI_symbol_name("USBEndpointDataToggleClear")
	.dwattr $C$DW$155, DW_AT_external
	.dwattr $C$DW$155, DW_AT_TI_begin_file("../driverlib/usb.c")
	.dwattr $C$DW$155, DW_AT_TI_begin_line(0x4f5)
	.dwattr $C$DW$155, DW_AT_TI_begin_column(0x01)
	.dwattr $C$DW$155, DW_AT_decl_file("../driverlib/usb.c")
	.dwattr $C$DW$155, DW_AT_decl_line(0x4f5)
	.dwattr $C$DW$155, DW_AT_decl_column(0x01)
	.dwattr $C$DW$155, DW_AT_TI_max_frame_size(0x10)
	.dwpsn	file "../driverlib/usb.c",line 1271,column 1,is_stmt,address USBEndpointDataToggleClear,isa 1

	.dwfde $C$DW$CIE, USBEndpointDataToggleClear
$C$DW$156	.dwtag  DW_TAG_formal_parameter
	.dwattr $C$DW$156, DW_AT_name("ui32Base")
	.dwattr $C$DW$156, DW_AT_TI_symbol_name("ui32Base")
	.dwattr $C$DW$156, DW_AT_type(*$C$DW$T$25)
	.dwattr $C$DW$156, DW_AT_location[DW_OP_reg0]

$C$DW$157	.dwtag  DW_TAG_formal_parameter
	.dwattr $C$DW$157, DW_AT_name("ui32Endpoint")
	.dwattr $C$DW$157, DW_AT_TI_symbol_name("ui32Endpoint")
	.dwattr $C$DW$157, DW_AT_type(*$C$DW$T$25)
	.dwattr $C$DW$157, DW_AT_location[DW_OP_reg1]

$C$DW$158	.dwtag  DW_TAG_formal_parameter
	.dwattr $C$DW$158, DW_AT_name("ui32Flags")
	.dwattr $C$DW$158, DW_AT_TI_symbol_name("ui32Flags")
	.dwattr $C$DW$158, DW_AT_type(*$C$DW$T$25)
	.dwattr $C$DW$158, DW_AT_location[DW_OP_reg2]


;*****************************************************************************
;* FUNCTION NAME: USBEndpointDataToggleClear                                 *
;*                                                                           *
;*   Regs Modified     : A1,A2,SP,SR                                         *
;*   Regs Used         : A1,A2,A3,SP,LR,SR                                   *
;*   Local Frame Size  : 0 Args + 12 Auto + 0 Save = 12 byte                 *
;*****************************************************************************
USBEndpointDataToggleClear:
;* --------------------------------------------------------------------------*
	.dwcfi	cfa_offset, 0
        SUB       SP, SP, #16           ; [DPU_V7M3_PIPE] 
	.dwcfi	cfa_offset, 16
$C$DW$159	.dwtag  DW_TAG_variable
	.dwattr $C$DW$159, DW_AT_name("ui32Base")
	.dwattr $C$DW$159, DW_AT_TI_symbol_name("ui32Base")
	.dwattr $C$DW$159, DW_AT_type(*$C$DW$T$25)
	.dwattr $C$DW$159, DW_AT_location[DW_OP_breg13 0]

$C$DW$160	.dwtag  DW_TAG_variable
	.dwattr $C$DW$160, DW_AT_name("ui32Endpoint")
	.dwattr $C$DW$160, DW_AT_TI_symbol_name("ui32Endpoint")
	.dwattr $C$DW$160, DW_AT_type(*$C$DW$T$25)
	.dwattr $C$DW$160, DW_AT_location[DW_OP_breg13 4]

$C$DW$161	.dwtag  DW_TAG_variable
	.dwattr $C$DW$161, DW_AT_name("ui32Flags")
	.dwattr $C$DW$161, DW_AT_TI_symbol_name("ui32Flags")
	.dwattr $C$DW$161, DW_AT_type(*$C$DW$T$25)
	.dwattr $C$DW$161, DW_AT_location[DW_OP_breg13 8]

        STR       A3, [SP, #8]          ; [DPU_V7M3_PIPE] |1271| 
        STR       A2, [SP, #4]          ; [DPU_V7M3_PIPE] |1271| 
        STR       A1, [SP, #0]          ; [DPU_V7M3_PIPE] |1271| 
	.dwpsn	file "../driverlib/usb.c",line 1284,column 5,is_stmt,isa 1
        LDR       A1, [SP, #8]          ; [DPU_V7M3_PIPE] |1284| 
        LSRS      A1, A1, #14           ; [DPU_V7M3_PIPE] |1284| 
        BCC       ||$C$L40||            ; [DPU_V7M3_PIPE] |1284| 
        ; BRANCHCC OCCURS {||$C$L40||}   ; [] |1284| 
;* --------------------------------------------------------------------------*
	.dwpsn	file "../driverlib/usb.c",line 1286,column 9,is_stmt,isa 1
        LDR       A2, [SP, #4]          ; [DPU_V7M3_PIPE] |1286| 
        LDR       A1, [SP, #0]          ; [DPU_V7M3_PIPE] |1286| 
        ADDS      A1, A1, A2            ; [DPU_V7M3_PIPE] |1286| 
        ADD       A1, A1, #258          ; [DPU_V7M3_PIPE] |1286| 
        LDRB      A2, [A1, #0]          ; [DPU_V7M3_PIPE] |1286| 
        ORR       A2, A2, #64           ; [DPU_V7M3_PIPE] |1286| 
        STRB      A2, [A1, #0]          ; [DPU_V7M3_PIPE] |1286| 
	.dwpsn	file "../driverlib/usb.c",line 1288,column 5,is_stmt,isa 1
        B         ||$C$L41||            ; [DPU_V7M3_PIPE] |1288| 
        ; BRANCH OCCURS {||$C$L41||}     ; [] |1288| 
;* --------------------------------------------------------------------------*
||$C$L40||:    
	.dwpsn	file "../driverlib/usb.c",line 1291,column 9,is_stmt,isa 1
        LDR       A2, [SP, #4]          ; [DPU_V7M3_PIPE] |1291| 
        LDR       A1, [SP, #0]          ; [DPU_V7M3_PIPE] |1291| 
        ADDS      A1, A1, A2            ; [DPU_V7M3_PIPE] |1291| 
        ADD       A1, A1, #262          ; [DPU_V7M3_PIPE] |1291| 
        LDRB      A2, [A1, #0]          ; [DPU_V7M3_PIPE] |1291| 
        ORR       A2, A2, #128          ; [DPU_V7M3_PIPE] |1291| 
        STRB      A2, [A1, #0]          ; [DPU_V7M3_PIPE] |1291| 
	.dwpsn	file "../driverlib/usb.c",line 1294,column 1,is_stmt,isa 1
;* --------------------------------------------------------------------------*
||$C$L41||:    
        ADD       SP, SP, #16           ; [DPU_V7M3_PIPE] 
	.dwcfi	cfa_offset, 0
$C$DW$162	.dwtag  DW_TAG_TI_branch
	.dwattr $C$DW$162, DW_AT_low_pc(0x00)
	.dwattr $C$DW$162, DW_AT_TI_return

        BX        LR                    ; [DPU_V7M3_PIPE] 
        ; BRANCH OCCURS                  ; [] 
	.dwattr $C$DW$155, DW_AT_TI_end_file("../driverlib/usb.c")
	.dwattr $C$DW$155, DW_AT_TI_end_line(0x50e)
	.dwattr $C$DW$155, DW_AT_TI_end_column(0x01)
	.dwendentry
	.dwendtag $C$DW$155

;******************************************************************************
;* CONSTANT TABLE                                                             *
;******************************************************************************
	.sect	".text"
	.align	4
||$C$CON3||:	.bits		0xfffe0000,32

	.sect	".text"
	.clink
	.thumbfunc USBHostEndpointPing
	.thumb
	.global	USBHostEndpointPing

$C$DW$163	.dwtag  DW_TAG_subprogram
	.dwattr $C$DW$163, DW_AT_name("USBHostEndpointPing")
	.dwattr $C$DW$163, DW_AT_low_pc(USBHostEndpointPing)
	.dwattr $C$DW$163, DW_AT_high_pc(0x00)
	.dwattr $C$DW$163, DW_AT_TI_symbol_name("USBHostEndpointPing")
	.dwattr $C$DW$163, DW_AT_external
	.dwattr $C$DW$163, DW_AT_TI_begin_file("../driverlib/usb.c")
	.dwattr $C$DW$163, DW_AT_TI_begin_line(0x531)
	.dwattr $C$DW$163, DW_AT_TI_begin_column(0x01)
	.dwattr $C$DW$163, DW_AT_decl_file("../driverlib/usb.c")
	.dwattr $C$DW$163, DW_AT_decl_line(0x531)
	.dwattr $C$DW$163, DW_AT_decl_column(0x01)
	.dwattr $C$DW$163, DW_AT_TI_max_frame_size(0x10)
	.dwpsn	file "../driverlib/usb.c",line 1330,column 1,is_stmt,address USBHostEndpointPing,isa 1

	.dwfde $C$DW$CIE, USBHostEndpointPing
$C$DW$164	.dwtag  DW_TAG_formal_parameter
	.dwattr $C$DW$164, DW_AT_name("ui32Base")
	.dwattr $C$DW$164, DW_AT_TI_symbol_name("ui32Base")
	.dwattr $C$DW$164, DW_AT_type(*$C$DW$T$25)
	.dwattr $C$DW$164, DW_AT_location[DW_OP_reg0]

$C$DW$165	.dwtag  DW_TAG_formal_parameter
	.dwattr $C$DW$165, DW_AT_name("ui32Endpoint")
	.dwattr $C$DW$165, DW_AT_TI_symbol_name("ui32Endpoint")
	.dwattr $C$DW$165, DW_AT_type(*$C$DW$T$25)
	.dwattr $C$DW$165, DW_AT_location[DW_OP_reg1]

$C$DW$166	.dwtag  DW_TAG_formal_parameter
	.dwattr $C$DW$166, DW_AT_name("bEnable")
	.dwattr $C$DW$166, DW_AT_TI_symbol_name("bEnable")
	.dwattr $C$DW$166, DW_AT_type(*$C$DW$T$10)
	.dwattr $C$DW$166, DW_AT_location[DW_OP_reg2]


;*****************************************************************************
;* FUNCTION NAME: USBHostEndpointPing                                        *
;*                                                                           *
;*   Regs Modified     : A1,A2,SP                                            *
;*   Regs Used         : A1,A2,A3,SP,LR                                      *
;*   Local Frame Size  : 0 Args + 12 Auto + 0 Save = 12 byte                 *
;*****************************************************************************
USBHostEndpointPing:
;* --------------------------------------------------------------------------*
	.dwcfi	cfa_offset, 0
        SUB       SP, SP, #16           ; [DPU_V7M3_PIPE] 
	.dwcfi	cfa_offset, 16
$C$DW$167	.dwtag  DW_TAG_variable
	.dwattr $C$DW$167, DW_AT_name("ui32Base")
	.dwattr $C$DW$167, DW_AT_TI_symbol_name("ui32Base")
	.dwattr $C$DW$167, DW_AT_type(*$C$DW$T$25)
	.dwattr $C$DW$167, DW_AT_location[DW_OP_breg13 0]

$C$DW$168	.dwtag  DW_TAG_variable
	.dwattr $C$DW$168, DW_AT_name("ui32Endpoint")
	.dwattr $C$DW$168, DW_AT_TI_symbol_name("ui32Endpoint")
	.dwattr $C$DW$168, DW_AT_type(*$C$DW$T$25)
	.dwattr $C$DW$168, DW_AT_location[DW_OP_breg13 4]

$C$DW$169	.dwtag  DW_TAG_variable
	.dwattr $C$DW$169, DW_AT_name("bEnable")
	.dwattr $C$DW$169, DW_AT_TI_symbol_name("bEnable")
	.dwattr $C$DW$169, DW_AT_type(*$C$DW$T$40)
	.dwattr $C$DW$169, DW_AT_location[DW_OP_breg13 8]

        STRB      A3, [SP, #8]          ; [DPU_V7M3_PIPE] |1330| 
        STR       A2, [SP, #4]          ; [DPU_V7M3_PIPE] |1330| 
        STR       A1, [SP, #0]          ; [DPU_V7M3_PIPE] |1330| 
	.dwpsn	file "../driverlib/usb.c",line 1340,column 5,is_stmt,isa 1
        LDRB      A1, [SP, #8]          ; [DPU_V7M3_PIPE] |1340| 
        CBZ       A1, ||$C$L42||        ; [] 
        ; BRANCHCC OCCURS {||$C$L42||}   ; [] |1340| 
;* --------------------------------------------------------------------------*
	.dwpsn	file "../driverlib/usb.c",line 1342,column 9,is_stmt,isa 1
        LDR       A2, $C$CON8           ; [DPU_V7M3_PIPE] |1342| 
        LDRB      A1, [A2, #0]          ; [DPU_V7M3_PIPE] |1342| 
        BIC       A1, A1, #8            ; [DPU_V7M3_PIPE] |1342| 
        STRB      A1, [A2, #0]          ; [DPU_V7M3_PIPE] |1342| 
	.dwpsn	file "../driverlib/usb.c",line 1343,column 5,is_stmt,isa 1
        B         ||$C$L43||            ; [DPU_V7M3_PIPE] |1343| 
        ; BRANCH OCCURS {||$C$L43||}     ; [] |1343| 
;* --------------------------------------------------------------------------*
||$C$L42||:    
	.dwpsn	file "../driverlib/usb.c",line 1346,column 9,is_stmt,isa 1
        LDR       A2, $C$CON8           ; [DPU_V7M3_PIPE] |1346| 
        LDRB      A1, [A2, #0]          ; [DPU_V7M3_PIPE] |1346| 
        ORR       A1, A1, #8            ; [DPU_V7M3_PIPE] |1346| 
        STRB      A1, [A2, #0]          ; [DPU_V7M3_PIPE] |1346| 
	.dwpsn	file "../driverlib/usb.c",line 1348,column 1,is_stmt,isa 1
;* --------------------------------------------------------------------------*
||$C$L43||:    
        ADD       SP, SP, #16           ; [DPU_V7M3_PIPE] 
	.dwcfi	cfa_offset, 0
$C$DW$170	.dwtag  DW_TAG_TI_branch
	.dwattr $C$DW$170, DW_AT_low_pc(0x00)
	.dwattr $C$DW$170, DW_AT_TI_return

        BX        LR                    ; [DPU_V7M3_PIPE] 
        ; BRANCH OCCURS                  ; [] 
	.dwattr $C$DW$163, DW_AT_TI_end_file("../driverlib/usb.c")
	.dwattr $C$DW$163, DW_AT_TI_end_line(0x544)
	.dwattr $C$DW$163, DW_AT_TI_end_column(0x01)
	.dwendentry
	.dwendtag $C$DW$163

	.sect	".text"
	.clink
	.thumbfunc USBDevEndpointStall
	.thumb
	.global	USBDevEndpointStall

$C$DW$171	.dwtag  DW_TAG_subprogram
	.dwattr $C$DW$171, DW_AT_name("USBDevEndpointStall")
	.dwattr $C$DW$171, DW_AT_low_pc(USBDevEndpointStall)
	.dwattr $C$DW$171, DW_AT_high_pc(0x00)
	.dwattr $C$DW$171, DW_AT_TI_symbol_name("USBDevEndpointStall")
	.dwattr $C$DW$171, DW_AT_external
	.dwattr $C$DW$171, DW_AT_TI_begin_file("../driverlib/usb.c")
	.dwattr $C$DW$171, DW_AT_TI_begin_line(0x55a)
	.dwattr $C$DW$171, DW_AT_TI_begin_column(0x01)
	.dwattr $C$DW$171, DW_AT_decl_file("../driverlib/usb.c")
	.dwattr $C$DW$171, DW_AT_decl_line(0x55a)
	.dwattr $C$DW$171, DW_AT_decl_column(0x01)
	.dwattr $C$DW$171, DW_AT_TI_max_frame_size(0x10)
	.dwpsn	file "../driverlib/usb.c",line 1372,column 1,is_stmt,address USBDevEndpointStall,isa 1

	.dwfde $C$DW$CIE, USBDevEndpointStall
$C$DW$172	.dwtag  DW_TAG_formal_parameter
	.dwattr $C$DW$172, DW_AT_name("ui32Base")
	.dwattr $C$DW$172, DW_AT_TI_symbol_name("ui32Base")
	.dwattr $C$DW$172, DW_AT_type(*$C$DW$T$25)
	.dwattr $C$DW$172, DW_AT_location[DW_OP_reg0]

$C$DW$173	.dwtag  DW_TAG_formal_parameter
	.dwattr $C$DW$173, DW_AT_name("ui32Endpoint")
	.dwattr $C$DW$173, DW_AT_TI_symbol_name("ui32Endpoint")
	.dwattr $C$DW$173, DW_AT_type(*$C$DW$T$25)
	.dwattr $C$DW$173, DW_AT_location[DW_OP_reg1]

$C$DW$174	.dwtag  DW_TAG_formal_parameter
	.dwattr $C$DW$174, DW_AT_name("ui32Flags")
	.dwattr $C$DW$174, DW_AT_TI_symbol_name("ui32Flags")
	.dwattr $C$DW$174, DW_AT_type(*$C$DW$T$25)
	.dwattr $C$DW$174, DW_AT_location[DW_OP_reg2]


;*****************************************************************************
;* FUNCTION NAME: USBDevEndpointStall                                        *
;*                                                                           *
;*   Regs Modified     : A1,A2,SP,SR                                         *
;*   Regs Used         : A1,A2,A3,SP,LR,SR                                   *
;*   Local Frame Size  : 0 Args + 12 Auto + 0 Save = 12 byte                 *
;*****************************************************************************
USBDevEndpointStall:
;* --------------------------------------------------------------------------*
	.dwcfi	cfa_offset, 0
        SUB       SP, SP, #16           ; [DPU_V7M3_PIPE] 
	.dwcfi	cfa_offset, 16
$C$DW$175	.dwtag  DW_TAG_variable
	.dwattr $C$DW$175, DW_AT_name("ui32Base")
	.dwattr $C$DW$175, DW_AT_TI_symbol_name("ui32Base")
	.dwattr $C$DW$175, DW_AT_type(*$C$DW$T$25)
	.dwattr $C$DW$175, DW_AT_location[DW_OP_breg13 0]

$C$DW$176	.dwtag  DW_TAG_variable
	.dwattr $C$DW$176, DW_AT_name("ui32Endpoint")
	.dwattr $C$DW$176, DW_AT_TI_symbol_name("ui32Endpoint")
	.dwattr $C$DW$176, DW_AT_type(*$C$DW$T$25)
	.dwattr $C$DW$176, DW_AT_location[DW_OP_breg13 4]

$C$DW$177	.dwtag  DW_TAG_variable
	.dwattr $C$DW$177, DW_AT_name("ui32Flags")
	.dwattr $C$DW$177, DW_AT_TI_symbol_name("ui32Flags")
	.dwattr $C$DW$177, DW_AT_type(*$C$DW$T$25)
	.dwattr $C$DW$177, DW_AT_location[DW_OP_breg13 8]

        STR       A3, [SP, #8]          ; [DPU_V7M3_PIPE] |1372| 
        STR       A2, [SP, #4]          ; [DPU_V7M3_PIPE] |1372| 
        STR       A1, [SP, #0]          ; [DPU_V7M3_PIPE] |1372| 
	.dwpsn	file "../driverlib/usb.c",line 1386,column 5,is_stmt,isa 1
        LDR       A1, [SP, #4]          ; [DPU_V7M3_PIPE] |1386| 
        CBNZ      A1, ||$C$L44||        ; [] 
        ; BRANCHCC OCCURS {||$C$L44||}   ; [] |1386| 
;* --------------------------------------------------------------------------*
	.dwpsn	file "../driverlib/usb.c",line 1391,column 9,is_stmt,isa 1
        LDR       A1, [SP, #0]          ; [DPU_V7M3_PIPE] |1391| 
        ADD       A1, A1, #258          ; [DPU_V7M3_PIPE] |1391| 
        LDRB      A2, [A1, #0]          ; [DPU_V7M3_PIPE] |1391| 
        ORR       A2, A2, #96           ; [DPU_V7M3_PIPE] |1391| 
        STRB      A2, [A1, #0]          ; [DPU_V7M3_PIPE] |1391| 
	.dwpsn	file "../driverlib/usb.c",line 1392,column 5,is_stmt,isa 1
        B         ||$C$L46||            ; [DPU_V7M3_PIPE] |1392| 
        ; BRANCH OCCURS {||$C$L46||}     ; [] |1392| 
;* --------------------------------------------------------------------------*
||$C$L44||:    
	.dwpsn	file "../driverlib/usb.c",line 1393,column 10,is_stmt,isa 1
        LDR       A1, [SP, #8]          ; [DPU_V7M3_PIPE] |1393| 
        CMP       A1, #8192             ; [DPU_V7M3_PIPE] |1393| 
        BNE       ||$C$L45||            ; [DPU_V7M3_PIPE] |1393| 
        ; BRANCHCC OCCURS {||$C$L45||}   ; [] |1393| 
;* --------------------------------------------------------------------------*
	.dwpsn	file "../driverlib/usb.c",line 1398,column 9,is_stmt,isa 1
        LDR       A2, [SP, #4]          ; [DPU_V7M3_PIPE] |1398| 
        LDR       A1, [SP, #0]          ; [DPU_V7M3_PIPE] |1398| 
        ADDS      A1, A1, A2            ; [DPU_V7M3_PIPE] |1398| 
        ADD       A1, A1, #258          ; [DPU_V7M3_PIPE] |1398| 
        LDRB      A2, [A1, #0]          ; [DPU_V7M3_PIPE] |1398| 
        ORR       A2, A2, #16           ; [DPU_V7M3_PIPE] |1398| 
        STRB      A2, [A1, #0]          ; [DPU_V7M3_PIPE] |1398| 
	.dwpsn	file "../driverlib/usb.c",line 1400,column 5,is_stmt,isa 1
        B         ||$C$L46||            ; [DPU_V7M3_PIPE] |1400| 
        ; BRANCH OCCURS {||$C$L46||}     ; [] |1400| 
;* --------------------------------------------------------------------------*
||$C$L45||:    
	.dwpsn	file "../driverlib/usb.c",line 1406,column 9,is_stmt,isa 1
        LDR       A2, [SP, #4]          ; [DPU_V7M3_PIPE] |1406| 
        LDR       A1, [SP, #0]          ; [DPU_V7M3_PIPE] |1406| 
        ADDS      A1, A1, A2            ; [DPU_V7M3_PIPE] |1406| 
        ADD       A1, A1, #262          ; [DPU_V7M3_PIPE] |1406| 
        LDRB      A2, [A1, #0]          ; [DPU_V7M3_PIPE] |1406| 
        ORR       A2, A2, #32           ; [DPU_V7M3_PIPE] |1406| 
        STRB      A2, [A1, #0]          ; [DPU_V7M3_PIPE] |1406| 
	.dwpsn	file "../driverlib/usb.c",line 1409,column 1,is_stmt,isa 1
;* --------------------------------------------------------------------------*
||$C$L46||:    
        ADD       SP, SP, #16           ; [DPU_V7M3_PIPE] 
	.dwcfi	cfa_offset, 0
$C$DW$178	.dwtag  DW_TAG_TI_branch
	.dwattr $C$DW$178, DW_AT_low_pc(0x00)
	.dwattr $C$DW$178, DW_AT_TI_return

        BX        LR                    ; [DPU_V7M3_PIPE] 
        ; BRANCH OCCURS                  ; [] 
	.dwattr $C$DW$171, DW_AT_TI_end_file("../driverlib/usb.c")
	.dwattr $C$DW$171, DW_AT_TI_end_line(0x581)
	.dwattr $C$DW$171, DW_AT_TI_end_column(0x01)
	.dwendentry
	.dwendtag $C$DW$171

;******************************************************************************
;* CONSTANT TABLE                                                             *
;******************************************************************************
	.sect	".text"
	.align	4
||$C$CON4||:	.bits		0x70ff0000,32

	.align	4
||$C$CON5||:	.bits		0x400fe000,32

	.align	4
||$C$CON6||:	.bits		0x10050000,32

	.align	4
||$C$CON7||:	.bits		0x100a0000,32

	.sect	".text"
	.clink
	.thumbfunc USBDevEndpointStallClear
	.thumb
	.global	USBDevEndpointStallClear

$C$DW$179	.dwtag  DW_TAG_subprogram
	.dwattr $C$DW$179, DW_AT_name("USBDevEndpointStallClear")
	.dwattr $C$DW$179, DW_AT_low_pc(USBDevEndpointStallClear)
	.dwattr $C$DW$179, DW_AT_high_pc(0x00)
	.dwattr $C$DW$179, DW_AT_TI_symbol_name("USBDevEndpointStallClear")
	.dwattr $C$DW$179, DW_AT_external
	.dwattr $C$DW$179, DW_AT_TI_begin_file("../driverlib/usb.c")
	.dwattr $C$DW$179, DW_AT_TI_begin_line(0x598)
	.dwattr $C$DW$179, DW_AT_TI_begin_column(0x01)
	.dwattr $C$DW$179, DW_AT_decl_file("../driverlib/usb.c")
	.dwattr $C$DW$179, DW_AT_decl_line(0x598)
	.dwattr $C$DW$179, DW_AT_decl_column(0x01)
	.dwattr $C$DW$179, DW_AT_TI_max_frame_size(0x10)
	.dwpsn	file "../driverlib/usb.c",line 1434,column 1,is_stmt,address USBDevEndpointStallClear,isa 1

	.dwfde $C$DW$CIE, USBDevEndpointStallClear
$C$DW$180	.dwtag  DW_TAG_formal_parameter
	.dwattr $C$DW$180, DW_AT_name("ui32Base")
	.dwattr $C$DW$180, DW_AT_TI_symbol_name("ui32Base")
	.dwattr $C$DW$180, DW_AT_type(*$C$DW$T$25)
	.dwattr $C$DW$180, DW_AT_location[DW_OP_reg0]

$C$DW$181	.dwtag  DW_TAG_formal_parameter
	.dwattr $C$DW$181, DW_AT_name("ui32Endpoint")
	.dwattr $C$DW$181, DW_AT_TI_symbol_name("ui32Endpoint")
	.dwattr $C$DW$181, DW_AT_type(*$C$DW$T$25)
	.dwattr $C$DW$181, DW_AT_location[DW_OP_reg1]

$C$DW$182	.dwtag  DW_TAG_formal_parameter
	.dwattr $C$DW$182, DW_AT_name("ui32Flags")
	.dwattr $C$DW$182, DW_AT_TI_symbol_name("ui32Flags")
	.dwattr $C$DW$182, DW_AT_type(*$C$DW$T$25)
	.dwattr $C$DW$182, DW_AT_location[DW_OP_reg2]


;*****************************************************************************
;* FUNCTION NAME: USBDevEndpointStallClear                                   *
;*                                                                           *
;*   Regs Modified     : A1,A2,SP,SR                                         *
;*   Regs Used         : A1,A2,A3,SP,LR,SR                                   *
;*   Local Frame Size  : 0 Args + 12 Auto + 0 Save = 12 byte                 *
;*****************************************************************************
USBDevEndpointStallClear:
;* --------------------------------------------------------------------------*
	.dwcfi	cfa_offset, 0
        SUB       SP, SP, #16           ; [DPU_V7M3_PIPE] 
	.dwcfi	cfa_offset, 16
$C$DW$183	.dwtag  DW_TAG_variable
	.dwattr $C$DW$183, DW_AT_name("ui32Base")
	.dwattr $C$DW$183, DW_AT_TI_symbol_name("ui32Base")
	.dwattr $C$DW$183, DW_AT_type(*$C$DW$T$25)
	.dwattr $C$DW$183, DW_AT_location[DW_OP_breg13 0]

$C$DW$184	.dwtag  DW_TAG_variable
	.dwattr $C$DW$184, DW_AT_name("ui32Endpoint")
	.dwattr $C$DW$184, DW_AT_TI_symbol_name("ui32Endpoint")
	.dwattr $C$DW$184, DW_AT_type(*$C$DW$T$25)
	.dwattr $C$DW$184, DW_AT_location[DW_OP_breg13 4]

$C$DW$185	.dwtag  DW_TAG_variable
	.dwattr $C$DW$185, DW_AT_name("ui32Flags")
	.dwattr $C$DW$185, DW_AT_TI_symbol_name("ui32Flags")
	.dwattr $C$DW$185, DW_AT_type(*$C$DW$T$25)
	.dwattr $C$DW$185, DW_AT_location[DW_OP_breg13 8]

        STR       A3, [SP, #8]          ; [DPU_V7M3_PIPE] |1434| 
        STR       A2, [SP, #4]          ; [DPU_V7M3_PIPE] |1434| 
        STR       A1, [SP, #0]          ; [DPU_V7M3_PIPE] |1434| 
	.dwpsn	file "../driverlib/usb.c",line 1448,column 5,is_stmt,isa 1
        LDR       A1, [SP, #4]          ; [DPU_V7M3_PIPE] |1448| 
        CBNZ      A1, ||$C$L47||        ; [] 
        ; BRANCHCC OCCURS {||$C$L47||}   ; [] |1448| 
;* --------------------------------------------------------------------------*
	.dwpsn	file "../driverlib/usb.c",line 1453,column 9,is_stmt,isa 1
        LDR       A1, [SP, #0]          ; [DPU_V7M3_PIPE] |1453| 
        ADD       A1, A1, #258          ; [DPU_V7M3_PIPE] |1453| 
        LDRB      A2, [A1, #0]          ; [DPU_V7M3_PIPE] |1453| 
        BIC       A2, A2, #4            ; [DPU_V7M3_PIPE] |1453| 
        STRB      A2, [A1, #0]          ; [DPU_V7M3_PIPE] |1453| 
	.dwpsn	file "../driverlib/usb.c",line 1454,column 5,is_stmt,isa 1
        B         ||$C$L49||            ; [DPU_V7M3_PIPE] |1454| 
        ; BRANCH OCCURS {||$C$L49||}     ; [] |1454| 
;* --------------------------------------------------------------------------*
||$C$L47||:    
	.dwpsn	file "../driverlib/usb.c",line 1455,column 10,is_stmt,isa 1
        LDR       A1, [SP, #8]          ; [DPU_V7M3_PIPE] |1455| 
        CMP       A1, #8192             ; [DPU_V7M3_PIPE] |1455| 
        BNE       ||$C$L48||            ; [DPU_V7M3_PIPE] |1455| 
        ; BRANCHCC OCCURS {||$C$L48||}   ; [] |1455| 
;* --------------------------------------------------------------------------*
	.dwpsn	file "../driverlib/usb.c",line 1460,column 9,is_stmt,isa 1
        LDR       A2, [SP, #4]          ; [DPU_V7M3_PIPE] |1460| 
        LDR       A1, [SP, #0]          ; [DPU_V7M3_PIPE] |1460| 
        ADDS      A1, A1, A2            ; [DPU_V7M3_PIPE] |1460| 
        ADD       A1, A1, #258          ; [DPU_V7M3_PIPE] |1460| 
        LDRB      A2, [A1, #0]          ; [DPU_V7M3_PIPE] |1460| 
        BIC       A2, A2, #48           ; [DPU_V7M3_PIPE] |1460| 
        STRB      A2, [A1, #0]          ; [DPU_V7M3_PIPE] |1460| 
	.dwpsn	file "../driverlib/usb.c",line 1466,column 9,is_stmt,isa 1
        LDR       A2, [SP, #4]          ; [DPU_V7M3_PIPE] |1466| 
        LDR       A1, [SP, #0]          ; [DPU_V7M3_PIPE] |1466| 
        ADDS      A1, A1, A2            ; [DPU_V7M3_PIPE] |1466| 
        ADD       A1, A1, #258          ; [DPU_V7M3_PIPE] |1466| 
        LDRB      A2, [A1, #0]          ; [DPU_V7M3_PIPE] |1466| 
        ORR       A2, A2, #64           ; [DPU_V7M3_PIPE] |1466| 
        STRB      A2, [A1, #0]          ; [DPU_V7M3_PIPE] |1466| 
	.dwpsn	file "../driverlib/usb.c",line 1468,column 5,is_stmt,isa 1
        B         ||$C$L49||            ; [DPU_V7M3_PIPE] |1468| 
        ; BRANCH OCCURS {||$C$L49||}     ; [] |1468| 
;* --------------------------------------------------------------------------*
||$C$L48||:    
	.dwpsn	file "../driverlib/usb.c",line 1474,column 9,is_stmt,isa 1
        LDR       A2, [SP, #4]          ; [DPU_V7M3_PIPE] |1474| 
        LDR       A1, [SP, #0]          ; [DPU_V7M3_PIPE] |1474| 
        ADDS      A1, A1, A2            ; [DPU_V7M3_PIPE] |1474| 
        ADD       A1, A1, #262          ; [DPU_V7M3_PIPE] |1474| 
        LDRB      A2, [A1, #0]          ; [DPU_V7M3_PIPE] |1474| 
        BIC       A2, A2, #96           ; [DPU_V7M3_PIPE] |1474| 
        STRB      A2, [A1, #0]          ; [DPU_V7M3_PIPE] |1474| 
	.dwpsn	file "../driverlib/usb.c",line 1480,column 9,is_stmt,isa 1
        LDR       A2, [SP, #4]          ; [DPU_V7M3_PIPE] |1480| 
        LDR       A1, [SP, #0]          ; [DPU_V7M3_PIPE] |1480| 
        ADDS      A1, A1, A2            ; [DPU_V7M3_PIPE] |1480| 
        ADD       A1, A1, #262          ; [DPU_V7M3_PIPE] |1480| 
        LDRB      A2, [A1, #0]          ; [DPU_V7M3_PIPE] |1480| 
        ORR       A2, A2, #128          ; [DPU_V7M3_PIPE] |1480| 
        STRB      A2, [A1, #0]          ; [DPU_V7M3_PIPE] |1480| 
	.dwpsn	file "../driverlib/usb.c",line 1483,column 1,is_stmt,isa 1
;* --------------------------------------------------------------------------*
||$C$L49||:    
        ADD       SP, SP, #16           ; [DPU_V7M3_PIPE] 
	.dwcfi	cfa_offset, 0
$C$DW$186	.dwtag  DW_TAG_TI_branch
	.dwattr $C$DW$186, DW_AT_low_pc(0x00)
	.dwattr $C$DW$186, DW_AT_TI_return

        BX        LR                    ; [DPU_V7M3_PIPE] 
        ; BRANCH OCCURS                  ; [] 
	.dwattr $C$DW$179, DW_AT_TI_end_file("../driverlib/usb.c")
	.dwattr $C$DW$179, DW_AT_TI_end_line(0x5cb)
	.dwattr $C$DW$179, DW_AT_TI_end_column(0x01)
	.dwendentry
	.dwendtag $C$DW$179

	.sect	".text"
	.clink
	.thumbfunc USBDevConnect
	.thumb
	.global	USBDevConnect

$C$DW$187	.dwtag  DW_TAG_subprogram
	.dwattr $C$DW$187, DW_AT_name("USBDevConnect")
	.dwattr $C$DW$187, DW_AT_low_pc(USBDevConnect)
	.dwattr $C$DW$187, DW_AT_high_pc(0x00)
	.dwattr $C$DW$187, DW_AT_TI_symbol_name("USBDevConnect")
	.dwattr $C$DW$187, DW_AT_external
	.dwattr $C$DW$187, DW_AT_TI_begin_file("../driverlib/usb.c")
	.dwattr $C$DW$187, DW_AT_TI_begin_line(0x5dc)
	.dwattr $C$DW$187, DW_AT_TI_begin_column(0x01)
	.dwattr $C$DW$187, DW_AT_decl_file("../driverlib/usb.c")
	.dwattr $C$DW$187, DW_AT_decl_line(0x5dc)
	.dwattr $C$DW$187, DW_AT_decl_column(0x01)
	.dwattr $C$DW$187, DW_AT_TI_max_frame_size(0x08)
	.dwpsn	file "../driverlib/usb.c",line 1501,column 1,is_stmt,address USBDevConnect,isa 1

	.dwfde $C$DW$CIE, USBDevConnect
$C$DW$188	.dwtag  DW_TAG_formal_parameter
	.dwattr $C$DW$188, DW_AT_name("ui32Base")
	.dwattr $C$DW$188, DW_AT_TI_symbol_name("ui32Base")
	.dwattr $C$DW$188, DW_AT_type(*$C$DW$T$25)
	.dwattr $C$DW$188, DW_AT_location[DW_OP_reg0]


;*****************************************************************************
;* FUNCTION NAME: USBDevConnect                                              *
;*                                                                           *
;*   Regs Modified     : A1,A2,SP,SR                                         *
;*   Regs Used         : A1,A2,SP,LR,SR                                      *
;*   Local Frame Size  : 0 Args + 4 Auto + 0 Save = 4 byte                   *
;*****************************************************************************
USBDevConnect:
;* --------------------------------------------------------------------------*
	.dwcfi	cfa_offset, 0
        SUB       SP, SP, #8            ; [DPU_V7M3_PIPE] 
	.dwcfi	cfa_offset, 8
$C$DW$189	.dwtag  DW_TAG_variable
	.dwattr $C$DW$189, DW_AT_name("ui32Base")
	.dwattr $C$DW$189, DW_AT_TI_symbol_name("ui32Base")
	.dwattr $C$DW$189, DW_AT_type(*$C$DW$T$25)
	.dwattr $C$DW$189, DW_AT_location[DW_OP_breg13 0]

        STR       A1, [SP, #0]          ; [DPU_V7M3_PIPE] |1501| 
	.dwpsn	file "../driverlib/usb.c",line 1510,column 5,is_stmt,isa 1
        LDR       A1, [SP, #0]          ; [DPU_V7M3_PIPE] |1510| 
        ADDS      A1, A1, #1            ; [DPU_V7M3_PIPE] |1510| 
        LDRB      A2, [A1, #0]          ; [DPU_V7M3_PIPE] |1510| 
        ORR       A2, A2, #64           ; [DPU_V7M3_PIPE] |1510| 
        STRB      A2, [A1, #0]          ; [DPU_V7M3_PIPE] |1510| 
	.dwpsn	file "../driverlib/usb.c",line 1511,column 1,is_stmt,isa 1
        ADD       SP, SP, #8            ; [DPU_V7M3_PIPE] 
	.dwcfi	cfa_offset, 0
$C$DW$190	.dwtag  DW_TAG_TI_branch
	.dwattr $C$DW$190, DW_AT_low_pc(0x00)
	.dwattr $C$DW$190, DW_AT_TI_return

        BX        LR                    ; [DPU_V7M3_PIPE] 
        ; BRANCH OCCURS                  ; [] 
	.dwattr $C$DW$187, DW_AT_TI_end_file("../driverlib/usb.c")
	.dwattr $C$DW$187, DW_AT_TI_end_line(0x5e7)
	.dwattr $C$DW$187, DW_AT_TI_end_column(0x01)
	.dwendentry
	.dwendtag $C$DW$187

	.sect	".text"
	.clink
	.thumbfunc USBDevDisconnect
	.thumb
	.global	USBDevDisconnect

$C$DW$191	.dwtag  DW_TAG_subprogram
	.dwattr $C$DW$191, DW_AT_name("USBDevDisconnect")
	.dwattr $C$DW$191, DW_AT_low_pc(USBDevDisconnect)
	.dwattr $C$DW$191, DW_AT_high_pc(0x00)
	.dwattr $C$DW$191, DW_AT_TI_symbol_name("USBDevDisconnect")
	.dwattr $C$DW$191, DW_AT_external
	.dwattr $C$DW$191, DW_AT_TI_begin_file("../driverlib/usb.c")
	.dwattr $C$DW$191, DW_AT_TI_begin_line(0x5f9)
	.dwattr $C$DW$191, DW_AT_TI_begin_column(0x01)
	.dwattr $C$DW$191, DW_AT_decl_file("../driverlib/usb.c")
	.dwattr $C$DW$191, DW_AT_decl_line(0x5f9)
	.dwattr $C$DW$191, DW_AT_decl_column(0x01)
	.dwattr $C$DW$191, DW_AT_TI_max_frame_size(0x08)
	.dwpsn	file "../driverlib/usb.c",line 1530,column 1,is_stmt,address USBDevDisconnect,isa 1

	.dwfde $C$DW$CIE, USBDevDisconnect
$C$DW$192	.dwtag  DW_TAG_formal_parameter
	.dwattr $C$DW$192, DW_AT_name("ui32Base")
	.dwattr $C$DW$192, DW_AT_TI_symbol_name("ui32Base")
	.dwattr $C$DW$192, DW_AT_type(*$C$DW$T$25)
	.dwattr $C$DW$192, DW_AT_location[DW_OP_reg0]


;*****************************************************************************
;* FUNCTION NAME: USBDevDisconnect                                           *
;*                                                                           *
;*   Regs Modified     : A1,A2,SP,SR                                         *
;*   Regs Used         : A1,A2,SP,LR,SR                                      *
;*   Local Frame Size  : 0 Args + 4 Auto + 0 Save = 4 byte                   *
;*****************************************************************************
USBDevDisconnect:
;* --------------------------------------------------------------------------*
	.dwcfi	cfa_offset, 0
        SUB       SP, SP, #8            ; [DPU_V7M3_PIPE] 
	.dwcfi	cfa_offset, 8
$C$DW$193	.dwtag  DW_TAG_variable
	.dwattr $C$DW$193, DW_AT_name("ui32Base")
	.dwattr $C$DW$193, DW_AT_TI_symbol_name("ui32Base")
	.dwattr $C$DW$193, DW_AT_type(*$C$DW$T$25)
	.dwattr $C$DW$193, DW_AT_location[DW_OP_breg13 0]

        STR       A1, [SP, #0]          ; [DPU_V7M3_PIPE] |1530| 
	.dwpsn	file "../driverlib/usb.c",line 1539,column 5,is_stmt,isa 1
        LDR       A1, [SP, #0]          ; [DPU_V7M3_PIPE] |1539| 
        ADDS      A1, A1, #1            ; [DPU_V7M3_PIPE] |1539| 
        LDRB      A2, [A1, #0]          ; [DPU_V7M3_PIPE] |1539| 
        BIC       A2, A2, #64           ; [DPU_V7M3_PIPE] |1539| 
        STRB      A2, [A1, #0]          ; [DPU_V7M3_PIPE] |1539| 
	.dwpsn	file "../driverlib/usb.c",line 1540,column 1,is_stmt,isa 1
        ADD       SP, SP, #8            ; [DPU_V7M3_PIPE] 
	.dwcfi	cfa_offset, 0
$C$DW$194	.dwtag  DW_TAG_TI_branch
	.dwattr $C$DW$194, DW_AT_low_pc(0x00)
	.dwattr $C$DW$194, DW_AT_TI_return

        BX        LR                    ; [DPU_V7M3_PIPE] 
        ; BRANCH OCCURS                  ; [] 
	.dwattr $C$DW$191, DW_AT_TI_end_file("../driverlib/usb.c")
	.dwattr $C$DW$191, DW_AT_TI_end_line(0x604)
	.dwattr $C$DW$191, DW_AT_TI_end_column(0x01)
	.dwendentry
	.dwendtag $C$DW$191

	.sect	".text"
	.clink
	.thumbfunc USBDevAddrSet
	.thumb
	.global	USBDevAddrSet

$C$DW$195	.dwtag  DW_TAG_subprogram
	.dwattr $C$DW$195, DW_AT_name("USBDevAddrSet")
	.dwattr $C$DW$195, DW_AT_low_pc(USBDevAddrSet)
	.dwattr $C$DW$195, DW_AT_high_pc(0x00)
	.dwattr $C$DW$195, DW_AT_TI_symbol_name("USBDevAddrSet")
	.dwattr $C$DW$195, DW_AT_external
	.dwattr $C$DW$195, DW_AT_TI_begin_file("../driverlib/usb.c")
	.dwattr $C$DW$195, DW_AT_TI_begin_line(0x616)
	.dwattr $C$DW$195, DW_AT_TI_begin_column(0x01)
	.dwattr $C$DW$195, DW_AT_decl_file("../driverlib/usb.c")
	.dwattr $C$DW$195, DW_AT_decl_line(0x616)
	.dwattr $C$DW$195, DW_AT_decl_column(0x01)
	.dwattr $C$DW$195, DW_AT_TI_max_frame_size(0x08)
	.dwpsn	file "../driverlib/usb.c",line 1559,column 1,is_stmt,address USBDevAddrSet,isa 1

	.dwfde $C$DW$CIE, USBDevAddrSet
$C$DW$196	.dwtag  DW_TAG_formal_parameter
	.dwattr $C$DW$196, DW_AT_name("ui32Base")
	.dwattr $C$DW$196, DW_AT_TI_symbol_name("ui32Base")
	.dwattr $C$DW$196, DW_AT_type(*$C$DW$T$25)
	.dwattr $C$DW$196, DW_AT_location[DW_OP_reg0]

$C$DW$197	.dwtag  DW_TAG_formal_parameter
	.dwattr $C$DW$197, DW_AT_name("ui32Address")
	.dwattr $C$DW$197, DW_AT_TI_symbol_name("ui32Address")
	.dwattr $C$DW$197, DW_AT_type(*$C$DW$T$25)
	.dwattr $C$DW$197, DW_AT_location[DW_OP_reg1]


;*****************************************************************************
;* FUNCTION NAME: USBDevAddrSet                                              *
;*                                                                           *
;*   Regs Modified     : A1,A2,SP                                            *
;*   Regs Used         : A1,A2,SP,LR                                         *
;*   Local Frame Size  : 0 Args + 8 Auto + 0 Save = 8 byte                   *
;*****************************************************************************
USBDevAddrSet:
;* --------------------------------------------------------------------------*
	.dwcfi	cfa_offset, 0
        SUB       SP, SP, #8            ; [DPU_V7M3_PIPE] 
	.dwcfi	cfa_offset, 8
$C$DW$198	.dwtag  DW_TAG_variable
	.dwattr $C$DW$198, DW_AT_name("ui32Base")
	.dwattr $C$DW$198, DW_AT_TI_symbol_name("ui32Base")
	.dwattr $C$DW$198, DW_AT_type(*$C$DW$T$25)
	.dwattr $C$DW$198, DW_AT_location[DW_OP_breg13 0]

$C$DW$199	.dwtag  DW_TAG_variable
	.dwattr $C$DW$199, DW_AT_name("ui32Address")
	.dwattr $C$DW$199, DW_AT_TI_symbol_name("ui32Address")
	.dwattr $C$DW$199, DW_AT_type(*$C$DW$T$25)
	.dwattr $C$DW$199, DW_AT_location[DW_OP_breg13 4]

        STR       A2, [SP, #4]          ; [DPU_V7M3_PIPE] |1559| 
        STR       A1, [SP, #0]          ; [DPU_V7M3_PIPE] |1559| 
	.dwpsn	file "../driverlib/usb.c",line 1568,column 5,is_stmt,isa 1
        LDRB      A1, [SP, #4]          ; [DPU_V7M3_PIPE] |1568| 
        LDR       A2, [SP, #0]          ; [DPU_V7M3_PIPE] |1568| 
        STRB      A1, [A2, #0]          ; [DPU_V7M3_PIPE] |1568| 
	.dwpsn	file "../driverlib/usb.c",line 1569,column 1,is_stmt,isa 1
        ADD       SP, SP, #8            ; [DPU_V7M3_PIPE] 
	.dwcfi	cfa_offset, 0
$C$DW$200	.dwtag  DW_TAG_TI_branch
	.dwattr $C$DW$200, DW_AT_low_pc(0x00)
	.dwattr $C$DW$200, DW_AT_TI_return

        BX        LR                    ; [DPU_V7M3_PIPE] 
        ; BRANCH OCCURS                  ; [] 
	.dwattr $C$DW$195, DW_AT_TI_end_file("../driverlib/usb.c")
	.dwattr $C$DW$195, DW_AT_TI_end_line(0x621)
	.dwattr $C$DW$195, DW_AT_TI_end_column(0x01)
	.dwendentry
	.dwendtag $C$DW$195

	.sect	".text"
	.clink
	.thumbfunc USBDevAddrGet
	.thumb
	.global	USBDevAddrGet

$C$DW$201	.dwtag  DW_TAG_subprogram
	.dwattr $C$DW$201, DW_AT_name("USBDevAddrGet")
	.dwattr $C$DW$201, DW_AT_low_pc(USBDevAddrGet)
	.dwattr $C$DW$201, DW_AT_high_pc(0x00)
	.dwattr $C$DW$201, DW_AT_TI_symbol_name("USBDevAddrGet")
	.dwattr $C$DW$201, DW_AT_external
	.dwattr $C$DW$201, DW_AT_type(*$C$DW$T$25)
	.dwattr $C$DW$201, DW_AT_TI_begin_file("../driverlib/usb.c")
	.dwattr $C$DW$201, DW_AT_TI_begin_line(0x632)
	.dwattr $C$DW$201, DW_AT_TI_begin_column(0x01)
	.dwattr $C$DW$201, DW_AT_decl_file("../driverlib/usb.c")
	.dwattr $C$DW$201, DW_AT_decl_line(0x632)
	.dwattr $C$DW$201, DW_AT_decl_column(0x01)
	.dwattr $C$DW$201, DW_AT_TI_max_frame_size(0x08)
	.dwpsn	file "../driverlib/usb.c",line 1587,column 1,is_stmt,address USBDevAddrGet,isa 1

	.dwfde $C$DW$CIE, USBDevAddrGet
$C$DW$202	.dwtag  DW_TAG_formal_parameter
	.dwattr $C$DW$202, DW_AT_name("ui32Base")
	.dwattr $C$DW$202, DW_AT_TI_symbol_name("ui32Base")
	.dwattr $C$DW$202, DW_AT_type(*$C$DW$T$25)
	.dwattr $C$DW$202, DW_AT_location[DW_OP_reg0]


;*****************************************************************************
;* FUNCTION NAME: USBDevAddrGet                                              *
;*                                                                           *
;*   Regs Modified     : A1,SP                                               *
;*   Regs Used         : A1,SP,LR                                            *
;*   Local Frame Size  : 0 Args + 4 Auto + 0 Save = 4 byte                   *
;*****************************************************************************
USBDevAddrGet:
;* --------------------------------------------------------------------------*
	.dwcfi	cfa_offset, 0
        SUB       SP, SP, #8            ; [DPU_V7M3_PIPE] 
	.dwcfi	cfa_offset, 8
$C$DW$203	.dwtag  DW_TAG_variable
	.dwattr $C$DW$203, DW_AT_name("ui32Base")
	.dwattr $C$DW$203, DW_AT_TI_symbol_name("ui32Base")
	.dwattr $C$DW$203, DW_AT_type(*$C$DW$T$25)
	.dwattr $C$DW$203, DW_AT_location[DW_OP_breg13 0]

        STR       A1, [SP, #0]          ; [DPU_V7M3_PIPE] |1587| 
	.dwpsn	file "../driverlib/usb.c",line 1596,column 5,is_stmt,isa 1
        LDR       A1, [SP, #0]          ; [DPU_V7M3_PIPE] |1596| 
        LDRB      A1, [A1, #0]          ; [DPU_V7M3_PIPE] |1596| 
	.dwpsn	file "../driverlib/usb.c",line 1597,column 1,is_stmt,isa 1
        ADD       SP, SP, #8            ; [DPU_V7M3_PIPE] 
	.dwcfi	cfa_offset, 0
$C$DW$204	.dwtag  DW_TAG_TI_branch
	.dwattr $C$DW$204, DW_AT_low_pc(0x00)
	.dwattr $C$DW$204, DW_AT_TI_return

        BX        LR                    ; [DPU_V7M3_PIPE] 
        ; BRANCH OCCURS                  ; [] 
	.dwattr $C$DW$201, DW_AT_TI_end_file("../driverlib/usb.c")
	.dwattr $C$DW$201, DW_AT_TI_end_line(0x63d)
	.dwattr $C$DW$201, DW_AT_TI_end_column(0x01)
	.dwendentry
	.dwendtag $C$DW$201

;******************************************************************************
;* CONSTANT TABLE                                                             *
;******************************************************************************
	.sect	".text"
	.align	4
||$C$CON8||:	.bits		0x40050103,32

	.sect	".text"
	.clink
	.thumbfunc USBHostEndpointConfig
	.thumb
	.global	USBHostEndpointConfig

$C$DW$205	.dwtag  DW_TAG_subprogram
	.dwattr $C$DW$205, DW_AT_name("USBHostEndpointConfig")
	.dwattr $C$DW$205, DW_AT_low_pc(USBHostEndpointConfig)
	.dwattr $C$DW$205, DW_AT_high_pc(0x00)
	.dwattr $C$DW$205, DW_AT_TI_symbol_name("USBHostEndpointConfig")
	.dwattr $C$DW$205, DW_AT_external
	.dwattr $C$DW$205, DW_AT_TI_begin_file("../driverlib/usb.c")
	.dwattr $C$DW$205, DW_AT_TI_begin_line(0x691)
	.dwattr $C$DW$205, DW_AT_TI_begin_column(0x01)
	.dwattr $C$DW$205, DW_AT_decl_file("../driverlib/usb.c")
	.dwattr $C$DW$205, DW_AT_decl_line(0x691)
	.dwattr $C$DW$205, DW_AT_decl_column(0x01)
	.dwattr $C$DW$205, DW_AT_TI_max_frame_size(0x18)
	.dwpsn	file "../driverlib/usb.c",line 1684,column 1,is_stmt,address USBHostEndpointConfig,isa 1

	.dwfde $C$DW$CIE, USBHostEndpointConfig
$C$DW$206	.dwtag  DW_TAG_formal_parameter
	.dwattr $C$DW$206, DW_AT_name("ui32Base")
	.dwattr $C$DW$206, DW_AT_TI_symbol_name("ui32Base")
	.dwattr $C$DW$206, DW_AT_type(*$C$DW$T$25)
	.dwattr $C$DW$206, DW_AT_location[DW_OP_reg0]

$C$DW$207	.dwtag  DW_TAG_formal_parameter
	.dwattr $C$DW$207, DW_AT_name("ui32Endpoint")
	.dwattr $C$DW$207, DW_AT_TI_symbol_name("ui32Endpoint")
	.dwattr $C$DW$207, DW_AT_type(*$C$DW$T$25)
	.dwattr $C$DW$207, DW_AT_location[DW_OP_reg1]

$C$DW$208	.dwtag  DW_TAG_formal_parameter
	.dwattr $C$DW$208, DW_AT_name("ui32MaxPayload")
	.dwattr $C$DW$208, DW_AT_TI_symbol_name("ui32MaxPayload")
	.dwattr $C$DW$208, DW_AT_type(*$C$DW$T$25)
	.dwattr $C$DW$208, DW_AT_location[DW_OP_reg2]

$C$DW$209	.dwtag  DW_TAG_formal_parameter
	.dwattr $C$DW$209, DW_AT_name("ui32NAKPollInterval")
	.dwattr $C$DW$209, DW_AT_TI_symbol_name("ui32NAKPollInterval")
	.dwattr $C$DW$209, DW_AT_type(*$C$DW$T$25)
	.dwattr $C$DW$209, DW_AT_location[DW_OP_reg3]

$C$DW$210	.dwtag  DW_TAG_formal_parameter
	.dwattr $C$DW$210, DW_AT_name("ui32TargetEndpoint")
	.dwattr $C$DW$210, DW_AT_TI_symbol_name("ui32TargetEndpoint")
	.dwattr $C$DW$210, DW_AT_type(*$C$DW$T$25)
	.dwattr $C$DW$210, DW_AT_location[DW_OP_breg13 24]

$C$DW$211	.dwtag  DW_TAG_formal_parameter
	.dwattr $C$DW$211, DW_AT_name("ui32Flags")
	.dwattr $C$DW$211, DW_AT_TI_symbol_name("ui32Flags")
	.dwattr $C$DW$211, DW_AT_type(*$C$DW$T$25)
	.dwattr $C$DW$211, DW_AT_location[DW_OP_breg13 28]


;*****************************************************************************
;* FUNCTION NAME: USBHostEndpointConfig                                      *
;*                                                                           *
;*   Regs Modified     : A1,A2,A3,SP,SR                                      *
;*   Regs Used         : A1,A2,A3,A4,SP,LR,SR                                *
;*   Local Frame Size  : 0 Args + 20 Auto + 0 Save = 20 byte                 *
;*****************************************************************************
USBHostEndpointConfig:
;* --------------------------------------------------------------------------*
	.dwcfi	cfa_offset, 0
        SUB       SP, SP, #24           ; [DPU_V7M3_PIPE] 
	.dwcfi	cfa_offset, 24
$C$DW$212	.dwtag  DW_TAG_variable
	.dwattr $C$DW$212, DW_AT_name("ui32Base")
	.dwattr $C$DW$212, DW_AT_TI_symbol_name("ui32Base")
	.dwattr $C$DW$212, DW_AT_type(*$C$DW$T$25)
	.dwattr $C$DW$212, DW_AT_location[DW_OP_breg13 0]

$C$DW$213	.dwtag  DW_TAG_variable
	.dwattr $C$DW$213, DW_AT_name("ui32Endpoint")
	.dwattr $C$DW$213, DW_AT_TI_symbol_name("ui32Endpoint")
	.dwattr $C$DW$213, DW_AT_type(*$C$DW$T$25)
	.dwattr $C$DW$213, DW_AT_location[DW_OP_breg13 4]

$C$DW$214	.dwtag  DW_TAG_variable
	.dwattr $C$DW$214, DW_AT_name("ui32MaxPayload")
	.dwattr $C$DW$214, DW_AT_TI_symbol_name("ui32MaxPayload")
	.dwattr $C$DW$214, DW_AT_type(*$C$DW$T$25)
	.dwattr $C$DW$214, DW_AT_location[DW_OP_breg13 8]

$C$DW$215	.dwtag  DW_TAG_variable
	.dwattr $C$DW$215, DW_AT_name("ui32NAKPollInterval")
	.dwattr $C$DW$215, DW_AT_TI_symbol_name("ui32NAKPollInterval")
	.dwattr $C$DW$215, DW_AT_type(*$C$DW$T$25)
	.dwattr $C$DW$215, DW_AT_location[DW_OP_breg13 12]

$C$DW$216	.dwtag  DW_TAG_variable
	.dwattr $C$DW$216, DW_AT_name("ui32Register")
	.dwattr $C$DW$216, DW_AT_TI_symbol_name("ui32Register")
	.dwattr $C$DW$216, DW_AT_type(*$C$DW$T$25)
	.dwattr $C$DW$216, DW_AT_location[DW_OP_breg13 16]

        STR       A4, [SP, #12]         ; [DPU_V7M3_PIPE] |1684| 
        STR       A3, [SP, #8]          ; [DPU_V7M3_PIPE] |1684| 
        STR       A2, [SP, #4]          ; [DPU_V7M3_PIPE] |1684| 
        STR       A1, [SP, #0]          ; [DPU_V7M3_PIPE] |1684| 
	.dwpsn	file "../driverlib/usb.c",line 1701,column 5,is_stmt,isa 1
        LDR       A1, [SP, #4]          ; [DPU_V7M3_PIPE] |1701| 
        CBNZ      A1, ||$C$L52||        ; [] 
        ; BRANCHCC OCCURS {||$C$L52||}   ; [] |1701| 
;* --------------------------------------------------------------------------*
	.dwpsn	file "../driverlib/usb.c",line 1706,column 9,is_stmt,isa 1
        LDRB      A1, [SP, #12]         ; [DPU_V7M3_PIPE] |1706| 
        LDR       A2, [SP, #0]          ; [DPU_V7M3_PIPE] |1706| 
        STRB      A1, [A2, #267]        ; [DPU_V7M3_PIPE] |1706| 
	.dwpsn	file "../driverlib/usb.c",line 1714,column 9,is_stmt,isa 1
        LDR       A1, [SP, #28]         ; [DPU_V7M3_PIPE] |1714| 
        LSRS      A1, A1, #15           ; [DPU_V7M3_PIPE] |1714| 
        BCC       ||$C$L50||            ; [DPU_V7M3_PIPE] |1714| 
        ; BRANCHCC OCCURS {||$C$L50||}   ; [] |1714| 
;* --------------------------------------------------------------------------*
	.dwpsn	file "../driverlib/usb.c",line 1716,column 13,is_stmt,isa 1
        LDR       A2, [SP, #0]          ; [DPU_V7M3_PIPE] |1716| 
        MOVS      A1, #64               ; [DPU_V7M3_PIPE] |1716| 
        STRB      A1, [A2, #266]        ; [DPU_V7M3_PIPE] |1716| 
	.dwpsn	file "../driverlib/usb.c",line 1717,column 9,is_stmt,isa 1
        B         ||$C$L69||            ; [DPU_V7M3_PIPE] |1717| 
        ; BRANCH OCCURS {||$C$L69||}     ; [] |1717| 
;* --------------------------------------------------------------------------*
||$C$L50||:    
	.dwpsn	file "../driverlib/usb.c",line 1718,column 14,is_stmt,isa 1
        LDR       A1, [SP, #28]         ; [DPU_V7M3_PIPE] |1718| 
        LSRS      A1, A1, #13           ; [DPU_V7M3_PIPE] |1718| 
        BCC       ||$C$L51||            ; [DPU_V7M3_PIPE] |1718| 
        ; BRANCHCC OCCURS {||$C$L51||}   ; [] |1718| 
;* --------------------------------------------------------------------------*
	.dwpsn	file "../driverlib/usb.c",line 1720,column 13,is_stmt,isa 1
        LDR       A2, [SP, #0]          ; [DPU_V7M3_PIPE] |1720| 
        MOVS      A1, #128              ; [DPU_V7M3_PIPE] |1720| 
        STRB      A1, [A2, #266]        ; [DPU_V7M3_PIPE] |1720| 
	.dwpsn	file "../driverlib/usb.c",line 1721,column 9,is_stmt,isa 1
        B         ||$C$L69||            ; [DPU_V7M3_PIPE] |1721| 
        ; BRANCH OCCURS {||$C$L69||}     ; [] |1721| 
;* --------------------------------------------------------------------------*
||$C$L51||:    
	.dwpsn	file "../driverlib/usb.c",line 1724,column 13,is_stmt,isa 1
        LDR       A2, [SP, #0]          ; [DPU_V7M3_PIPE] |1724| 
        MOVS      A1, #192              ; [DPU_V7M3_PIPE] |1724| 
        STRB      A1, [A2, #266]        ; [DPU_V7M3_PIPE] |1724| 
	.dwpsn	file "../driverlib/usb.c",line 1726,column 5,is_stmt,isa 1
        B         ||$C$L69||            ; [DPU_V7M3_PIPE] |1726| 
        ; BRANCH OCCURS {||$C$L69||}     ; [] |1726| 
;* --------------------------------------------------------------------------*
||$C$L52||:    
	.dwpsn	file "../driverlib/usb.c",line 1732,column 9,is_stmt,isa 1
        LDR       A1, [SP, #24]         ; [DPU_V7M3_PIPE] |1732| 
        STR       A1, [SP, #16]         ; [DPU_V7M3_PIPE] |1732| 
	.dwpsn	file "../driverlib/usb.c",line 1737,column 9,is_stmt,isa 1
        LDR       A1, [SP, #28]         ; [DPU_V7M3_PIPE] |1737| 
        LSRS      A1, A1, #15           ; [DPU_V7M3_PIPE] |1737| 
        BCC       ||$C$L53||            ; [DPU_V7M3_PIPE] |1737| 
        ; BRANCHCC OCCURS {||$C$L53||}   ; [] |1737| 
;* --------------------------------------------------------------------------*
	.dwpsn	file "../driverlib/usb.c",line 1739,column 13,is_stmt,isa 1
        LDR       A1, [SP, #16]         ; [DPU_V7M3_PIPE] |1739| 
        ORR       A1, A1, #64           ; [DPU_V7M3_PIPE] |1739| 
        STR       A1, [SP, #16]         ; [DPU_V7M3_PIPE] |1739| 
	.dwpsn	file "../driverlib/usb.c",line 1740,column 9,is_stmt,isa 1
        B         ||$C$L59||            ; [DPU_V7M3_PIPE] |1740| 
        ; BRANCH OCCURS {||$C$L59||}     ; [] |1740| 
;* --------------------------------------------------------------------------*
||$C$L53||:    
	.dwpsn	file "../driverlib/usb.c",line 1741,column 14,is_stmt,isa 1
        LDR       A1, [SP, #28]         ; [DPU_V7M3_PIPE] |1741| 
        LSRS      A1, A1, #13           ; [DPU_V7M3_PIPE] |1741| 
        BCC       ||$C$L54||            ; [DPU_V7M3_PIPE] |1741| 
        ; BRANCHCC OCCURS {||$C$L54||}   ; [] |1741| 
;* --------------------------------------------------------------------------*
	.dwpsn	file "../driverlib/usb.c",line 1743,column 13,is_stmt,isa 1
        LDR       A1, [SP, #16]         ; [DPU_V7M3_PIPE] |1743| 
        ORR       A1, A1, #128          ; [DPU_V7M3_PIPE] |1743| 
        STR       A1, [SP, #16]         ; [DPU_V7M3_PIPE] |1743| 
	.dwpsn	file "../driverlib/usb.c",line 1744,column 9,is_stmt,isa 1
        B         ||$C$L59||            ; [DPU_V7M3_PIPE] |1744| 
        ; BRANCH OCCURS {||$C$L59||}     ; [] |1744| 
;* --------------------------------------------------------------------------*
||$C$L54||:    
	.dwpsn	file "../driverlib/usb.c",line 1747,column 13,is_stmt,isa 1
        LDR       A1, [SP, #16]         ; [DPU_V7M3_PIPE] |1747| 
        ORR       A1, A1, #192          ; [DPU_V7M3_PIPE] |1747| 
        STR       A1, [SP, #16]         ; [DPU_V7M3_PIPE] |1747| 
	.dwpsn	file "../driverlib/usb.c",line 1753,column 9,is_stmt,isa 1
        B         ||$C$L59||            ; [DPU_V7M3_PIPE] |1753| 
        ; BRANCH OCCURS {||$C$L59||}     ; [] |1753| 
;* --------------------------------------------------------------------------*
||$C$L55||:    
	.dwpsn	file "../driverlib/usb.c",line 1760,column 17,is_stmt,isa 1
        LDR       A1, [SP, #16]         ; [DPU_V7M3_PIPE] |1760| 
        ORR       A1, A1, #32           ; [DPU_V7M3_PIPE] |1760| 
        STR       A1, [SP, #16]         ; [DPU_V7M3_PIPE] |1760| 
	.dwpsn	file "../driverlib/usb.c",line 1761,column 17,is_stmt,isa 1
        B         ||$C$L60||            ; [DPU_V7M3_PIPE] |1761| 
        ; BRANCH OCCURS {||$C$L60||}     ; [] |1761| 
;* --------------------------------------------------------------------------*
||$C$L56||:    
	.dwpsn	file "../driverlib/usb.c",line 1769,column 17,is_stmt,isa 1
        LDR       A1, [SP, #16]         ; [DPU_V7M3_PIPE] |1769| 
        ORR       A1, A1, #16           ; [DPU_V7M3_PIPE] |1769| 
        STR       A1, [SP, #16]         ; [DPU_V7M3_PIPE] |1769| 
	.dwpsn	file "../driverlib/usb.c",line 1770,column 17,is_stmt,isa 1
        B         ||$C$L60||            ; [DPU_V7M3_PIPE] |1770| 
        ; BRANCH OCCURS {||$C$L60||}     ; [] |1770| 
;* --------------------------------------------------------------------------*
||$C$L57||:    
	.dwpsn	file "../driverlib/usb.c",line 1778,column 17,is_stmt,isa 1
        LDR       A1, [SP, #16]         ; [DPU_V7M3_PIPE] |1778| 
        ORR       A1, A1, #48           ; [DPU_V7M3_PIPE] |1778| 
        STR       A1, [SP, #16]         ; [DPU_V7M3_PIPE] |1778| 
	.dwpsn	file "../driverlib/usb.c",line 1779,column 17,is_stmt,isa 1
        B         ||$C$L60||            ; [DPU_V7M3_PIPE] |1779| 
        ; BRANCH OCCURS {||$C$L60||}     ; [] |1779| 
;* --------------------------------------------------------------------------*
||$C$L58||:    
	.dwpsn	file "../driverlib/usb.c",line 1787,column 17,is_stmt,isa 1
        LDR       A1, [SP, #16]         ; [DPU_V7M3_PIPE] |1787| 
        STR       A1, [SP, #16]         ; [DPU_V7M3_PIPE] |1787| 
	.dwpsn	file "../driverlib/usb.c",line 1788,column 17,is_stmt,isa 1
        B         ||$C$L60||            ; [DPU_V7M3_PIPE] |1788| 
        ; BRANCH OCCURS {||$C$L60||}     ; [] |1788| 
;* --------------------------------------------------------------------------*
;* --------------------------------------------------------------------------*
||$C$L59||:    
	.dwpsn	file "../driverlib/usb.c",line 1753,column 9,is_stmt,isa 1
        LDR       A1, [SP, #28]         ; [DPU_V7M3_PIPE] |1753| 
        ANDS      A1, A1, #768          ; [DPU_V7M3_PIPE] |1753| 
        BEQ       ||$C$L56||            ; [DPU_V7M3_PIPE] |1753| 
        ; BRANCHCC OCCURS {||$C$L56||}   ; [] |1753| 
;* --------------------------------------------------------------------------*
        SUBS      A1, A1, #256          ; [DPU_V7M3_PIPE] |1753| 
        BEQ       ||$C$L55||            ; [DPU_V7M3_PIPE] |1753| 
        ; BRANCHCC OCCURS {||$C$L55||}   ; [] |1753| 
;* --------------------------------------------------------------------------*
        SUBS      A1, A1, #256          ; [DPU_V7M3_PIPE] |1753| 
        BEQ       ||$C$L57||            ; [DPU_V7M3_PIPE] |1753| 
        ; BRANCHCC OCCURS {||$C$L57||}   ; [] |1753| 
;* --------------------------------------------------------------------------*
        SUBS      A1, A1, #256          ; [DPU_V7M3_PIPE] |1753| 
        BEQ       ||$C$L58||            ; [DPU_V7M3_PIPE] |1753| 
        ; BRANCHCC OCCURS {||$C$L58||}   ; [] |1753| 
;* --------------------------------------------------------------------------*
||$C$L60||:    
	.dwpsn	file "../driverlib/usb.c",line 1795,column 9,is_stmt,isa 1
        LDR       A1, [SP, #28]         ; [DPU_V7M3_PIPE] |1795| 
        LSRS      A1, A1, #14           ; [DPU_V7M3_PIPE] |1795| 
        BCC       ||$C$L64||            ; [DPU_V7M3_PIPE] |1795| 
        ; BRANCHCC OCCURS {||$C$L64||}   ; [] |1795| 
;* --------------------------------------------------------------------------*
	.dwpsn	file "../driverlib/usb.c",line 1800,column 13,is_stmt,isa 1
        LDR       A2, [SP, #4]          ; [DPU_V7M3_PIPE] |1800| 
        LDR       A1, [SP, #0]          ; [DPU_V7M3_PIPE] |1800| 
        LDRB      A3, [SP, #16]         ; [DPU_V7M3_PIPE] |1800| 
        ADDS      A1, A1, A2            ; [DPU_V7M3_PIPE] |1800| 
        STRB      A3, [A1, #266]        ; [DPU_V7M3_PIPE] |1800| 
	.dwpsn	file "../driverlib/usb.c",line 1806,column 13,is_stmt,isa 1
        LDR       A1, [SP, #0]          ; [DPU_V7M3_PIPE] |1806| 
        LDR       A2, [SP, #4]          ; [DPU_V7M3_PIPE] |1806| 
        LDRB      A3, [SP, #12]         ; [DPU_V7M3_PIPE] |1806| 
        ADDS      A1, A1, A2            ; [DPU_V7M3_PIPE] |1806| 
        STRB      A3, [A1, #267]        ; [DPU_V7M3_PIPE] |1806| 
	.dwpsn	file "../driverlib/usb.c",line 1812,column 13,is_stmt,isa 1
        LDR       A1, [SP, #0]          ; [DPU_V7M3_PIPE] |1812| 
        LDR       A2, [SP, #4]          ; [DPU_V7M3_PIPE] |1812| 
        LDRH      A3, [SP, #8]          ; [DPU_V7M3_PIPE] |1812| 
        ADDS      A1, A1, A2            ; [DPU_V7M3_PIPE] |1812| 
        STRH      A3, [A1, #256]        ; [DPU_V7M3_PIPE] |1812| 
	.dwpsn	file "../driverlib/usb.c",line 1818,column 13,is_stmt,isa 1
        MOVS      A1, #0                ; [DPU_V7M3_PIPE] |1818| 
        STR       A1, [SP, #16]         ; [DPU_V7M3_PIPE] |1818| 
	.dwpsn	file "../driverlib/usb.c",line 1824,column 13,is_stmt,isa 1
        LDR       A1, [SP, #28]         ; [DPU_V7M3_PIPE] |1824| 
        LSRS      A1, A1, #1            ; [DPU_V7M3_PIPE] |1824| 
        BCC       ||$C$L61||            ; [DPU_V7M3_PIPE] |1824| 
        ; BRANCHCC OCCURS {||$C$L61||}   ; [] |1824| 
;* --------------------------------------------------------------------------*
	.dwpsn	file "../driverlib/usb.c",line 1826,column 17,is_stmt,isa 1
        LDR       A1, [SP, #16]         ; [DPU_V7M3_PIPE] |1826| 
        ORR       A1, A1, #128          ; [DPU_V7M3_PIPE] |1826| 
        STR       A1, [SP, #16]         ; [DPU_V7M3_PIPE] |1826| 
;* --------------------------------------------------------------------------*
||$C$L61||:    
	.dwpsn	file "../driverlib/usb.c",line 1832,column 13,is_stmt,isa 1
        LDR       A1, [SP, #28]         ; [DPU_V7M3_PIPE] |1832| 
        LSRS      A1, A1, #5            ; [DPU_V7M3_PIPE] |1832| 
        BCC       ||$C$L62||            ; [DPU_V7M3_PIPE] |1832| 
        ; BRANCHCC OCCURS {||$C$L62||}   ; [] |1832| 
;* --------------------------------------------------------------------------*
	.dwpsn	file "../driverlib/usb.c",line 1834,column 17,is_stmt,isa 1
        LDR       A1, [SP, #16]         ; [DPU_V7M3_PIPE] |1834| 
        ORR       A1, A1, #20           ; [DPU_V7M3_PIPE] |1834| 
        STR       A1, [SP, #16]         ; [DPU_V7M3_PIPE] |1834| 
	.dwpsn	file "../driverlib/usb.c",line 1835,column 13,is_stmt,isa 1
        B         ||$C$L63||            ; [DPU_V7M3_PIPE] |1835| 
        ; BRANCH OCCURS {||$C$L63||}     ; [] |1835| 
;* --------------------------------------------------------------------------*
||$C$L62||:    
	.dwpsn	file "../driverlib/usb.c",line 1836,column 18,is_stmt,isa 1
        LDR       A1, [SP, #28]         ; [DPU_V7M3_PIPE] |1836| 
        LSRS      A1, A1, #4            ; [DPU_V7M3_PIPE] |1836| 
        BCC       ||$C$L63||            ; [DPU_V7M3_PIPE] |1836| 
        ; BRANCHCC OCCURS {||$C$L63||}   ; [] |1836| 
;* --------------------------------------------------------------------------*
	.dwpsn	file "../driverlib/usb.c",line 1838,column 17,is_stmt,isa 1
        LDR       A1, [SP, #16]         ; [DPU_V7M3_PIPE] |1838| 
        ORR       A1, A1, #16           ; [DPU_V7M3_PIPE] |1838| 
        STR       A1, [SP, #16]         ; [DPU_V7M3_PIPE] |1838| 
;* --------------------------------------------------------------------------*
||$C$L63||:    
	.dwpsn	file "../driverlib/usb.c",line 1844,column 13,is_stmt,isa 1
        LDR       A2, [SP, #4]          ; [DPU_V7M3_PIPE] |1844| 
        LDR       A1, [SP, #0]          ; [DPU_V7M3_PIPE] |1844| 
        LDRB      A3, [SP, #16]         ; [DPU_V7M3_PIPE] |1844| 
        ADDS      A1, A1, A2            ; [DPU_V7M3_PIPE] |1844| 
        STRB      A3, [A1, #259]        ; [DPU_V7M3_PIPE] |1844| 
	.dwpsn	file "../driverlib/usb.c",line 1846,column 9,is_stmt,isa 1
        B         ||$C$L69||            ; [DPU_V7M3_PIPE] |1846| 
        ; BRANCH OCCURS {||$C$L69||}     ; [] |1846| 
;* --------------------------------------------------------------------------*
||$C$L64||:    
	.dwpsn	file "../driverlib/usb.c",line 1852,column 13,is_stmt,isa 1
        LDR       A2, [SP, #4]          ; [DPU_V7M3_PIPE] |1852| 
        LDR       A1, [SP, #0]          ; [DPU_V7M3_PIPE] |1852| 
        LDRB      A3, [SP, #16]         ; [DPU_V7M3_PIPE] |1852| 
        ADDS      A1, A1, A2            ; [DPU_V7M3_PIPE] |1852| 
        STRB      A3, [A1, #268]        ; [DPU_V7M3_PIPE] |1852| 
	.dwpsn	file "../driverlib/usb.c",line 1858,column 13,is_stmt,isa 1
        LDR       A1, [SP, #0]          ; [DPU_V7M3_PIPE] |1858| 
        LDR       A2, [SP, #4]          ; [DPU_V7M3_PIPE] |1858| 
        LDRB      A3, [SP, #12]         ; [DPU_V7M3_PIPE] |1858| 
        ADDS      A1, A1, A2            ; [DPU_V7M3_PIPE] |1858| 
        STRB      A3, [A1, #269]        ; [DPU_V7M3_PIPE] |1858| 
	.dwpsn	file "../driverlib/usb.c",line 1864,column 13,is_stmt,isa 1
        LDR       A1, [SP, #0]          ; [DPU_V7M3_PIPE] |1864| 
        LDR       A2, [SP, #4]          ; [DPU_V7M3_PIPE] |1864| 
        LDRH      A3, [SP, #8]          ; [DPU_V7M3_PIPE] |1864| 
        ADDS      A1, A1, A2            ; [DPU_V7M3_PIPE] |1864| 
        STRH      A3, [A1, #260]        ; [DPU_V7M3_PIPE] |1864| 
	.dwpsn	file "../driverlib/usb.c",line 1870,column 13,is_stmt,isa 1
        MOVS      A1, #0                ; [DPU_V7M3_PIPE] |1870| 
        STR       A1, [SP, #16]         ; [DPU_V7M3_PIPE] |1870| 
	.dwpsn	file "../driverlib/usb.c",line 1876,column 13,is_stmt,isa 1
        LDR       A1, [SP, #28]         ; [DPU_V7M3_PIPE] |1876| 
        LSRS      A1, A1, #3            ; [DPU_V7M3_PIPE] |1876| 
        BCC       ||$C$L65||            ; [DPU_V7M3_PIPE] |1876| 
        ; BRANCHCC OCCURS {||$C$L65||}   ; [] |1876| 
;* --------------------------------------------------------------------------*
	.dwpsn	file "../driverlib/usb.c",line 1878,column 17,is_stmt,isa 1
        LDR       A1, [SP, #16]         ; [DPU_V7M3_PIPE] |1878| 
        ORR       A1, A1, #128          ; [DPU_V7M3_PIPE] |1878| 
        STR       A1, [SP, #16]         ; [DPU_V7M3_PIPE] |1878| 
;* --------------------------------------------------------------------------*
||$C$L65||:    
	.dwpsn	file "../driverlib/usb.c",line 1884,column 13,is_stmt,isa 1
        LDR       A1, [SP, #28]         ; [DPU_V7M3_PIPE] |1884| 
        LSRS      A1, A1, #2            ; [DPU_V7M3_PIPE] |1884| 
        BCC       ||$C$L66||            ; [DPU_V7M3_PIPE] |1884| 
        ; BRANCHCC OCCURS {||$C$L66||}   ; [] |1884| 
;* --------------------------------------------------------------------------*
	.dwpsn	file "../driverlib/usb.c",line 1886,column 17,is_stmt,isa 1
        LDR       A1, [SP, #16]         ; [DPU_V7M3_PIPE] |1886| 
        ORR       A1, A1, #64           ; [DPU_V7M3_PIPE] |1886| 
        STR       A1, [SP, #16]         ; [DPU_V7M3_PIPE] |1886| 
;* --------------------------------------------------------------------------*
||$C$L66||:    
	.dwpsn	file "../driverlib/usb.c",line 1892,column 13,is_stmt,isa 1
        LDR       A1, [SP, #28]         ; [DPU_V7M3_PIPE] |1892| 
        LSRS      A1, A1, #5            ; [DPU_V7M3_PIPE] |1892| 
        BCC       ||$C$L67||            ; [DPU_V7M3_PIPE] |1892| 
        ; BRANCHCC OCCURS {||$C$L67||}   ; [] |1892| 
;* --------------------------------------------------------------------------*
	.dwpsn	file "../driverlib/usb.c",line 1894,column 17,is_stmt,isa 1
        LDR       A1, [SP, #16]         ; [DPU_V7M3_PIPE] |1894| 
        ORR       A1, A1, #40           ; [DPU_V7M3_PIPE] |1894| 
        STR       A1, [SP, #16]         ; [DPU_V7M3_PIPE] |1894| 
	.dwpsn	file "../driverlib/usb.c",line 1895,column 13,is_stmt,isa 1
        B         ||$C$L68||            ; [DPU_V7M3_PIPE] |1895| 
        ; BRANCH OCCURS {||$C$L68||}     ; [] |1895| 
;* --------------------------------------------------------------------------*
||$C$L67||:    
	.dwpsn	file "../driverlib/usb.c",line 1896,column 18,is_stmt,isa 1
        LDR       A1, [SP, #28]         ; [DPU_V7M3_PIPE] |1896| 
        LSRS      A1, A1, #4            ; [DPU_V7M3_PIPE] |1896| 
        BCC       ||$C$L68||            ; [DPU_V7M3_PIPE] |1896| 
        ; BRANCHCC OCCURS {||$C$L68||}   ; [] |1896| 
;* --------------------------------------------------------------------------*
	.dwpsn	file "../driverlib/usb.c",line 1898,column 17,is_stmt,isa 1
        LDR       A1, [SP, #16]         ; [DPU_V7M3_PIPE] |1898| 
        ORR       A1, A1, #32           ; [DPU_V7M3_PIPE] |1898| 
        STR       A1, [SP, #16]         ; [DPU_V7M3_PIPE] |1898| 
;* --------------------------------------------------------------------------*
||$C$L68||:    
	.dwpsn	file "../driverlib/usb.c",line 1904,column 13,is_stmt,isa 1
        LDR       A2, [SP, #4]          ; [DPU_V7M3_PIPE] |1904| 
        LDR       A1, [SP, #0]          ; [DPU_V7M3_PIPE] |1904| 
        LDRB      A3, [SP, #16]         ; [DPU_V7M3_PIPE] |1904| 
        ADDS      A1, A1, A2            ; [DPU_V7M3_PIPE] |1904| 
        STRB      A3, [A1, #263]        ; [DPU_V7M3_PIPE] |1904| 
	.dwpsn	file "../driverlib/usb.c",line 1908,column 1,is_stmt,isa 1
;* --------------------------------------------------------------------------*
||$C$L69||:    
        ADD       SP, SP, #24           ; [DPU_V7M3_PIPE] 
	.dwcfi	cfa_offset, 0
$C$DW$217	.dwtag  DW_TAG_TI_branch
	.dwattr $C$DW$217, DW_AT_low_pc(0x00)
	.dwattr $C$DW$217, DW_AT_TI_return

        BX        LR                    ; [DPU_V7M3_PIPE] 
        ; BRANCH OCCURS                  ; [] 
	.dwattr $C$DW$205, DW_AT_TI_end_file("../driverlib/usb.c")
	.dwattr $C$DW$205, DW_AT_TI_end_line(0x774)
	.dwattr $C$DW$205, DW_AT_TI_end_column(0x01)
	.dwendentry
	.dwendtag $C$DW$205

	.sect	".text"
	.clink
	.thumbfunc USBHostEndpointSpeed
	.thumb
	.global	USBHostEndpointSpeed

$C$DW$218	.dwtag  DW_TAG_subprogram
	.dwattr $C$DW$218, DW_AT_name("USBHostEndpointSpeed")
	.dwattr $C$DW$218, DW_AT_low_pc(USBHostEndpointSpeed)
	.dwattr $C$DW$218, DW_AT_high_pc(0x00)
	.dwattr $C$DW$218, DW_AT_TI_symbol_name("USBHostEndpointSpeed")
	.dwattr $C$DW$218, DW_AT_external
	.dwattr $C$DW$218, DW_AT_TI_begin_file("../driverlib/usb.c")
	.dwattr $C$DW$218, DW_AT_TI_begin_line(0x795)
	.dwattr $C$DW$218, DW_AT_TI_begin_column(0x01)
	.dwattr $C$DW$218, DW_AT_decl_file("../driverlib/usb.c")
	.dwattr $C$DW$218, DW_AT_decl_line(0x795)
	.dwattr $C$DW$218, DW_AT_decl_column(0x01)
	.dwattr $C$DW$218, DW_AT_TI_max_frame_size(0x18)
	.dwpsn	file "../driverlib/usb.c",line 1943,column 1,is_stmt,address USBHostEndpointSpeed,isa 1

	.dwfde $C$DW$CIE, USBHostEndpointSpeed
$C$DW$219	.dwtag  DW_TAG_formal_parameter
	.dwattr $C$DW$219, DW_AT_name("ui32Base")
	.dwattr $C$DW$219, DW_AT_TI_symbol_name("ui32Base")
	.dwattr $C$DW$219, DW_AT_type(*$C$DW$T$25)
	.dwattr $C$DW$219, DW_AT_location[DW_OP_reg0]

$C$DW$220	.dwtag  DW_TAG_formal_parameter
	.dwattr $C$DW$220, DW_AT_name("ui32Endpoint")
	.dwattr $C$DW$220, DW_AT_TI_symbol_name("ui32Endpoint")
	.dwattr $C$DW$220, DW_AT_type(*$C$DW$T$25)
	.dwattr $C$DW$220, DW_AT_location[DW_OP_reg1]

$C$DW$221	.dwtag  DW_TAG_formal_parameter
	.dwattr $C$DW$221, DW_AT_name("ui32Flags")
	.dwattr $C$DW$221, DW_AT_TI_symbol_name("ui32Flags")
	.dwattr $C$DW$221, DW_AT_type(*$C$DW$T$25)
	.dwattr $C$DW$221, DW_AT_location[DW_OP_reg2]


;*****************************************************************************
;* FUNCTION NAME: USBHostEndpointSpeed                                       *
;*                                                                           *
;*   Regs Modified     : A1,A2,A3,SP,SR                                      *
;*   Regs Used         : A1,A2,A3,SP,LR,SR                                   *
;*   Local Frame Size  : 0 Args + 20 Auto + 0 Save = 20 byte                 *
;*****************************************************************************
USBHostEndpointSpeed:
;* --------------------------------------------------------------------------*
	.dwcfi	cfa_offset, 0
        SUB       SP, SP, #24           ; [DPU_V7M3_PIPE] 
	.dwcfi	cfa_offset, 24
$C$DW$222	.dwtag  DW_TAG_variable
	.dwattr $C$DW$222, DW_AT_name("ui32Base")
	.dwattr $C$DW$222, DW_AT_TI_symbol_name("ui32Base")
	.dwattr $C$DW$222, DW_AT_type(*$C$DW$T$25)
	.dwattr $C$DW$222, DW_AT_location[DW_OP_breg13 0]

$C$DW$223	.dwtag  DW_TAG_variable
	.dwattr $C$DW$223, DW_AT_name("ui32Endpoint")
	.dwattr $C$DW$223, DW_AT_TI_symbol_name("ui32Endpoint")
	.dwattr $C$DW$223, DW_AT_type(*$C$DW$T$25)
	.dwattr $C$DW$223, DW_AT_location[DW_OP_breg13 4]

$C$DW$224	.dwtag  DW_TAG_variable
	.dwattr $C$DW$224, DW_AT_name("ui32Flags")
	.dwattr $C$DW$224, DW_AT_TI_symbol_name("ui32Flags")
	.dwattr $C$DW$224, DW_AT_type(*$C$DW$T$25)
	.dwattr $C$DW$224, DW_AT_location[DW_OP_breg13 8]

$C$DW$225	.dwtag  DW_TAG_variable
	.dwattr $C$DW$225, DW_AT_name("ui32Reg")
	.dwattr $C$DW$225, DW_AT_TI_symbol_name("ui32Reg")
	.dwattr $C$DW$225, DW_AT_type(*$C$DW$T$25)
	.dwattr $C$DW$225, DW_AT_location[DW_OP_breg13 12]

$C$DW$226	.dwtag  DW_TAG_variable
	.dwattr $C$DW$226, DW_AT_name("ui32Speed")
	.dwattr $C$DW$226, DW_AT_TI_symbol_name("ui32Speed")
	.dwattr $C$DW$226, DW_AT_type(*$C$DW$T$25)
	.dwattr $C$DW$226, DW_AT_location[DW_OP_breg13 16]

        STR       A3, [SP, #8]          ; [DPU_V7M3_PIPE] |1943| 
        STR       A2, [SP, #4]          ; [DPU_V7M3_PIPE] |1943| 
        STR       A1, [SP, #0]          ; [DPU_V7M3_PIPE] |1943| 
	.dwpsn	file "../driverlib/usb.c",line 1959,column 5,is_stmt,isa 1
        LDR       A1, [SP, #8]          ; [DPU_V7M3_PIPE] |1959| 
        LSRS      A1, A1, #15           ; [DPU_V7M3_PIPE] |1959| 
        BCC       ||$C$L70||            ; [DPU_V7M3_PIPE] |1959| 
        ; BRANCHCC OCCURS {||$C$L70||}   ; [] |1959| 
;* --------------------------------------------------------------------------*
	.dwpsn	file "../driverlib/usb.c",line 1961,column 9,is_stmt,isa 1
        MOVS      A1, #64               ; [DPU_V7M3_PIPE] |1961| 
        STR       A1, [SP, #16]         ; [DPU_V7M3_PIPE] |1961| 
	.dwpsn	file "../driverlib/usb.c",line 1962,column 5,is_stmt,isa 1
        B         ||$C$L72||            ; [DPU_V7M3_PIPE] |1962| 
        ; BRANCH OCCURS {||$C$L72||}     ; [] |1962| 
;* --------------------------------------------------------------------------*
||$C$L70||:    
	.dwpsn	file "../driverlib/usb.c",line 1963,column 10,is_stmt,isa 1
        LDR       A1, [SP, #8]          ; [DPU_V7M3_PIPE] |1963| 
        LSRS      A1, A1, #13           ; [DPU_V7M3_PIPE] |1963| 
        BCC       ||$C$L71||            ; [DPU_V7M3_PIPE] |1963| 
        ; BRANCHCC OCCURS {||$C$L71||}   ; [] |1963| 
;* --------------------------------------------------------------------------*
	.dwpsn	file "../driverlib/usb.c",line 1965,column 9,is_stmt,isa 1
        MOVS      A1, #128              ; [DPU_V7M3_PIPE] |1965| 
        STR       A1, [SP, #16]         ; [DPU_V7M3_PIPE] |1965| 
	.dwpsn	file "../driverlib/usb.c",line 1966,column 5,is_stmt,isa 1
        B         ||$C$L72||            ; [DPU_V7M3_PIPE] |1966| 
        ; BRANCH OCCURS {||$C$L72||}     ; [] |1966| 
;* --------------------------------------------------------------------------*
||$C$L71||:    
	.dwpsn	file "../driverlib/usb.c",line 1969,column 9,is_stmt,isa 1
        MOVS      A1, #192              ; [DPU_V7M3_PIPE] |1969| 
        STR       A1, [SP, #16]         ; [DPU_V7M3_PIPE] |1969| 
;* --------------------------------------------------------------------------*
||$C$L72||:    
	.dwpsn	file "../driverlib/usb.c",line 1975,column 5,is_stmt,isa 1
        LDR       A1, [SP, #4]          ; [DPU_V7M3_PIPE] |1975| 
        CBNZ      A1, ||$C$L73||        ; [] 
        ; BRANCHCC OCCURS {||$C$L73||}   ; [] |1975| 
;* --------------------------------------------------------------------------*
	.dwpsn	file "../driverlib/usb.c",line 1977,column 9,is_stmt,isa 1
        LDRB      A1, [SP, #16]         ; [DPU_V7M3_PIPE] |1977| 
        LDR       A2, [SP, #0]          ; [DPU_V7M3_PIPE] |1977| 
        STRB      A1, [A2, #266]        ; [DPU_V7M3_PIPE] |1977| 
	.dwpsn	file "../driverlib/usb.c",line 1978,column 5,is_stmt,isa 1
        B         ||$C$L75||            ; [DPU_V7M3_PIPE] |1978| 
        ; BRANCH OCCURS {||$C$L75||}     ; [] |1978| 
;* --------------------------------------------------------------------------*
||$C$L73||:    
	.dwpsn	file "../driverlib/usb.c",line 1979,column 10,is_stmt,isa 1
        LDR       A1, [SP, #8]          ; [DPU_V7M3_PIPE] |1979| 
        LSRS      A1, A1, #14           ; [DPU_V7M3_PIPE] |1979| 
        BCC       ||$C$L74||            ; [DPU_V7M3_PIPE] |1979| 
        ; BRANCHCC OCCURS {||$C$L74||}   ; [] |1979| 
;* --------------------------------------------------------------------------*
	.dwpsn	file "../driverlib/usb.c",line 1984,column 9,is_stmt,isa 1
        LDR       A2, [SP, #4]          ; [DPU_V7M3_PIPE] |1984| 
        LDR       A1, [SP, #0]          ; [DPU_V7M3_PIPE] |1984| 
        ADDS      A1, A1, A2            ; [DPU_V7M3_PIPE] |1984| 
        LDRH      A1, [A1, #266]        ; [DPU_V7M3_PIPE] |1984| 
        BIC       A1, A1, #192          ; [DPU_V7M3_PIPE] |1984| 
        STR       A1, [SP, #12]         ; [DPU_V7M3_PIPE] |1984| 
	.dwpsn	file "../driverlib/usb.c",line 1986,column 9,is_stmt,isa 1
        LDR       A1, [SP, #16]         ; [DPU_V7M3_PIPE] |1986| 
        LDR       A2, [SP, #12]         ; [DPU_V7M3_PIPE] |1986| 
        ORRS      A1, A1, A2            ; [DPU_V7M3_PIPE] |1986| 
        STR       A1, [SP, #12]         ; [DPU_V7M3_PIPE] |1986| 
	.dwpsn	file "../driverlib/usb.c",line 1988,column 9,is_stmt,isa 1
        LDR       A1, [SP, #0]          ; [DPU_V7M3_PIPE] |1988| 
        LDR       A2, [SP, #4]          ; [DPU_V7M3_PIPE] |1988| 
        ADDS      A1, A1, A2            ; [DPU_V7M3_PIPE] |1988| 
        ADD       A1, A1, #266          ; [DPU_V7M3_PIPE] |1988| 
        LDR       A2, [SP, #12]         ; [DPU_V7M3_PIPE] |1988| 
        LDRH      A3, [A1, #0]          ; [DPU_V7M3_PIPE] |1988| 
        ORRS      A2, A2, A3            ; [DPU_V7M3_PIPE] |1988| 
        STRH      A2, [A1, #0]          ; [DPU_V7M3_PIPE] |1988| 
	.dwpsn	file "../driverlib/usb.c",line 1989,column 5,is_stmt,isa 1
        B         ||$C$L75||            ; [DPU_V7M3_PIPE] |1989| 
        ; BRANCH OCCURS {||$C$L75||}     ; [] |1989| 
;* --------------------------------------------------------------------------*
||$C$L74||:    
	.dwpsn	file "../driverlib/usb.c",line 1995,column 9,is_stmt,isa 1
        LDR       A2, [SP, #4]          ; [DPU_V7M3_PIPE] |1995| 
        LDR       A1, [SP, #0]          ; [DPU_V7M3_PIPE] |1995| 
        ADDS      A1, A1, A2            ; [DPU_V7M3_PIPE] |1995| 
        LDRH      A1, [A1, #268]        ; [DPU_V7M3_PIPE] |1995| 
        BIC       A1, A1, #192          ; [DPU_V7M3_PIPE] |1995| 
        STR       A1, [SP, #12]         ; [DPU_V7M3_PIPE] |1995| 
	.dwpsn	file "../driverlib/usb.c",line 1997,column 9,is_stmt,isa 1
        LDR       A1, [SP, #16]         ; [DPU_V7M3_PIPE] |1997| 
        LDR       A2, [SP, #12]         ; [DPU_V7M3_PIPE] |1997| 
        ORRS      A1, A1, A2            ; [DPU_V7M3_PIPE] |1997| 
        STR       A1, [SP, #12]         ; [DPU_V7M3_PIPE] |1997| 
	.dwpsn	file "../driverlib/usb.c",line 1999,column 9,is_stmt,isa 1
        LDR       A1, [SP, #0]          ; [DPU_V7M3_PIPE] |1999| 
        LDR       A2, [SP, #4]          ; [DPU_V7M3_PIPE] |1999| 
        ADDS      A1, A1, A2            ; [DPU_V7M3_PIPE] |1999| 
        ADD       A1, A1, #268          ; [DPU_V7M3_PIPE] |1999| 
        LDR       A2, [SP, #12]         ; [DPU_V7M3_PIPE] |1999| 
        LDRH      A3, [A1, #0]          ; [DPU_V7M3_PIPE] |1999| 
        ORRS      A2, A2, A3            ; [DPU_V7M3_PIPE] |1999| 
        STRH      A2, [A1, #0]          ; [DPU_V7M3_PIPE] |1999| 
	.dwpsn	file "../driverlib/usb.c",line 2001,column 1,is_stmt,isa 1
;* --------------------------------------------------------------------------*
||$C$L75||:    
        ADD       SP, SP, #24           ; [DPU_V7M3_PIPE] 
	.dwcfi	cfa_offset, 0
$C$DW$227	.dwtag  DW_TAG_TI_branch
	.dwattr $C$DW$227, DW_AT_low_pc(0x00)
	.dwattr $C$DW$227, DW_AT_TI_return

        BX        LR                    ; [DPU_V7M3_PIPE] 
        ; BRANCH OCCURS                  ; [] 
	.dwattr $C$DW$218, DW_AT_TI_end_file("../driverlib/usb.c")
	.dwattr $C$DW$218, DW_AT_TI_end_line(0x7d1)
	.dwattr $C$DW$218, DW_AT_TI_end_column(0x01)
	.dwendentry
	.dwendtag $C$DW$218

	.sect	".text"
	.clink
	.thumbfunc USBDevEndpointConfigSet
	.thumb
	.global	USBDevEndpointConfigSet

$C$DW$228	.dwtag  DW_TAG_subprogram
	.dwattr $C$DW$228, DW_AT_name("USBDevEndpointConfigSet")
	.dwattr $C$DW$228, DW_AT_low_pc(USBDevEndpointConfigSet)
	.dwattr $C$DW$228, DW_AT_high_pc(0x00)
	.dwattr $C$DW$228, DW_AT_TI_symbol_name("USBDevEndpointConfigSet")
	.dwattr $C$DW$228, DW_AT_external
	.dwattr $C$DW$228, DW_AT_TI_begin_file("../driverlib/usb.c")
	.dwattr $C$DW$228, DW_AT_TI_begin_line(0x806)
	.dwattr $C$DW$228, DW_AT_TI_begin_column(0x01)
	.dwattr $C$DW$228, DW_AT_decl_file("../driverlib/usb.c")
	.dwattr $C$DW$228, DW_AT_decl_line(0x806)
	.dwattr $C$DW$228, DW_AT_decl_column(0x01)
	.dwattr $C$DW$228, DW_AT_TI_max_frame_size(0x18)
	.dwpsn	file "../driverlib/usb.c",line 2056,column 1,is_stmt,address USBDevEndpointConfigSet,isa 1

	.dwfde $C$DW$CIE, USBDevEndpointConfigSet
$C$DW$229	.dwtag  DW_TAG_formal_parameter
	.dwattr $C$DW$229, DW_AT_name("ui32Base")
	.dwattr $C$DW$229, DW_AT_TI_symbol_name("ui32Base")
	.dwattr $C$DW$229, DW_AT_type(*$C$DW$T$25)
	.dwattr $C$DW$229, DW_AT_location[DW_OP_reg0]

$C$DW$230	.dwtag  DW_TAG_formal_parameter
	.dwattr $C$DW$230, DW_AT_name("ui32Endpoint")
	.dwattr $C$DW$230, DW_AT_TI_symbol_name("ui32Endpoint")
	.dwattr $C$DW$230, DW_AT_type(*$C$DW$T$25)
	.dwattr $C$DW$230, DW_AT_location[DW_OP_reg1]

$C$DW$231	.dwtag  DW_TAG_formal_parameter
	.dwattr $C$DW$231, DW_AT_name("ui32MaxPacketSize")
	.dwattr $C$DW$231, DW_AT_TI_symbol_name("ui32MaxPacketSize")
	.dwattr $C$DW$231, DW_AT_type(*$C$DW$T$25)
	.dwattr $C$DW$231, DW_AT_location[DW_OP_reg2]

$C$DW$232	.dwtag  DW_TAG_formal_parameter
	.dwattr $C$DW$232, DW_AT_name("ui32Flags")
	.dwattr $C$DW$232, DW_AT_TI_symbol_name("ui32Flags")
	.dwattr $C$DW$232, DW_AT_type(*$C$DW$T$25)
	.dwattr $C$DW$232, DW_AT_location[DW_OP_reg3]


;*****************************************************************************
;* FUNCTION NAME: USBDevEndpointConfigSet                                    *
;*                                                                           *
;*   Regs Modified     : A1,A2,A3,SP,SR                                      *
;*   Regs Used         : A1,A2,A3,A4,SP,LR,SR                                *
;*   Local Frame Size  : 0 Args + 20 Auto + 0 Save = 20 byte                 *
;*****************************************************************************
USBDevEndpointConfigSet:
;* --------------------------------------------------------------------------*
	.dwcfi	cfa_offset, 0
        SUB       SP, SP, #24           ; [DPU_V7M3_PIPE] 
	.dwcfi	cfa_offset, 24
$C$DW$233	.dwtag  DW_TAG_variable
	.dwattr $C$DW$233, DW_AT_name("ui32Base")
	.dwattr $C$DW$233, DW_AT_TI_symbol_name("ui32Base")
	.dwattr $C$DW$233, DW_AT_type(*$C$DW$T$25)
	.dwattr $C$DW$233, DW_AT_location[DW_OP_breg13 0]

$C$DW$234	.dwtag  DW_TAG_variable
	.dwattr $C$DW$234, DW_AT_name("ui32Endpoint")
	.dwattr $C$DW$234, DW_AT_TI_symbol_name("ui32Endpoint")
	.dwattr $C$DW$234, DW_AT_type(*$C$DW$T$25)
	.dwattr $C$DW$234, DW_AT_location[DW_OP_breg13 4]

$C$DW$235	.dwtag  DW_TAG_variable
	.dwattr $C$DW$235, DW_AT_name("ui32MaxPacketSize")
	.dwattr $C$DW$235, DW_AT_TI_symbol_name("ui32MaxPacketSize")
	.dwattr $C$DW$235, DW_AT_type(*$C$DW$T$25)
	.dwattr $C$DW$235, DW_AT_location[DW_OP_breg13 8]

$C$DW$236	.dwtag  DW_TAG_variable
	.dwattr $C$DW$236, DW_AT_name("ui32Flags")
	.dwattr $C$DW$236, DW_AT_TI_symbol_name("ui32Flags")
	.dwattr $C$DW$236, DW_AT_type(*$C$DW$T$25)
	.dwattr $C$DW$236, DW_AT_location[DW_OP_breg13 12]

$C$DW$237	.dwtag  DW_TAG_variable
	.dwattr $C$DW$237, DW_AT_name("ui32Register")
	.dwattr $C$DW$237, DW_AT_TI_symbol_name("ui32Register")
	.dwattr $C$DW$237, DW_AT_type(*$C$DW$T$25)
	.dwattr $C$DW$237, DW_AT_location[DW_OP_breg13 16]

        STR       A4, [SP, #12]         ; [DPU_V7M3_PIPE] |2056| 
        STR       A3, [SP, #8]          ; [DPU_V7M3_PIPE] |2056| 
        STR       A2, [SP, #4]          ; [DPU_V7M3_PIPE] |2056| 
        STR       A1, [SP, #0]          ; [DPU_V7M3_PIPE] |2056| 
	.dwpsn	file "../driverlib/usb.c",line 2071,column 5,is_stmt,isa 1
        LDR       A1, [SP, #12]         ; [DPU_V7M3_PIPE] |2071| 
        LSRS      A1, A1, #14           ; [DPU_V7M3_PIPE] |2071| 
        BCC       ||$C$L80||            ; [DPU_V7M3_PIPE] |2071| 
        ; BRANCHCC OCCURS {||$C$L80||}   ; [] |2071| 
;* --------------------------------------------------------------------------*
	.dwpsn	file "../driverlib/usb.c",line 2076,column 9,is_stmt,isa 1
        LDR       A2, [SP, #4]          ; [DPU_V7M3_PIPE] |2076| 
        LDR       A1, [SP, #0]          ; [DPU_V7M3_PIPE] |2076| 
        LDRH      A3, [SP, #8]          ; [DPU_V7M3_PIPE] |2076| 
        ADDS      A1, A1, A2            ; [DPU_V7M3_PIPE] |2076| 
        STRH      A3, [A1, #256]        ; [DPU_V7M3_PIPE] |2076| 
	.dwpsn	file "../driverlib/usb.c",line 2082,column 9,is_stmt,isa 1
        MOVS      A1, #0                ; [DPU_V7M3_PIPE] |2082| 
        STR       A1, [SP, #16]         ; [DPU_V7M3_PIPE] |2082| 
	.dwpsn	file "../driverlib/usb.c",line 2088,column 9,is_stmt,isa 1
        LDR       A1, [SP, #12]         ; [DPU_V7M3_PIPE] |2088| 
        LSRS      A1, A1, #1            ; [DPU_V7M3_PIPE] |2088| 
        BCC       ||$C$L76||            ; [DPU_V7M3_PIPE] |2088| 
        ; BRANCHCC OCCURS {||$C$L76||}   ; [] |2088| 
;* --------------------------------------------------------------------------*
	.dwpsn	file "../driverlib/usb.c",line 2090,column 13,is_stmt,isa 1
        LDR       A1, [SP, #16]         ; [DPU_V7M3_PIPE] |2090| 
        ORR       A1, A1, #128          ; [DPU_V7M3_PIPE] |2090| 
        STR       A1, [SP, #16]         ; [DPU_V7M3_PIPE] |2090| 
;* --------------------------------------------------------------------------*
||$C$L76||:    
	.dwpsn	file "../driverlib/usb.c",line 2096,column 9,is_stmt,isa 1
        LDR       A1, [SP, #12]         ; [DPU_V7M3_PIPE] |2096| 
        LSRS      A1, A1, #5            ; [DPU_V7M3_PIPE] |2096| 
        BCC       ||$C$L77||            ; [DPU_V7M3_PIPE] |2096| 
        ; BRANCHCC OCCURS {||$C$L77||}   ; [] |2096| 
;* --------------------------------------------------------------------------*
	.dwpsn	file "../driverlib/usb.c",line 2098,column 13,is_stmt,isa 1
        LDR       A1, [SP, #16]         ; [DPU_V7M3_PIPE] |2098| 
        ORR       A1, A1, #20           ; [DPU_V7M3_PIPE] |2098| 
        STR       A1, [SP, #16]         ; [DPU_V7M3_PIPE] |2098| 
	.dwpsn	file "../driverlib/usb.c",line 2099,column 9,is_stmt,isa 1
        B         ||$C$L78||            ; [DPU_V7M3_PIPE] |2099| 
        ; BRANCH OCCURS {||$C$L78||}     ; [] |2099| 
;* --------------------------------------------------------------------------*
||$C$L77||:    
	.dwpsn	file "../driverlib/usb.c",line 2100,column 14,is_stmt,isa 1
        LDR       A1, [SP, #12]         ; [DPU_V7M3_PIPE] |2100| 
        LSRS      A1, A1, #4            ; [DPU_V7M3_PIPE] |2100| 
        BCC       ||$C$L78||            ; [DPU_V7M3_PIPE] |2100| 
        ; BRANCHCC OCCURS {||$C$L78||}   ; [] |2100| 
;* --------------------------------------------------------------------------*
	.dwpsn	file "../driverlib/usb.c",line 2102,column 13,is_stmt,isa 1
        LDR       A1, [SP, #16]         ; [DPU_V7M3_PIPE] |2102| 
        ORR       A1, A1, #16           ; [DPU_V7M3_PIPE] |2102| 
        STR       A1, [SP, #16]         ; [DPU_V7M3_PIPE] |2102| 
;* --------------------------------------------------------------------------*
||$C$L78||:    
	.dwpsn	file "../driverlib/usb.c",line 2108,column 9,is_stmt,isa 1
        LDR       A1, [SP, #12]         ; [DPU_V7M3_PIPE] |2108| 
        TST       A1, #768              ; [DPU_V7M3_PIPE] |2108| 
        BNE       ||$C$L79||            ; [DPU_V7M3_PIPE] |2108| 
        ; BRANCHCC OCCURS {||$C$L79||}   ; [] |2108| 
;* --------------------------------------------------------------------------*
	.dwpsn	file "../driverlib/usb.c",line 2110,column 13,is_stmt,isa 1
        LDR       A1, [SP, #16]         ; [DPU_V7M3_PIPE] |2110| 
        ORR       A1, A1, #64           ; [DPU_V7M3_PIPE] |2110| 
        STR       A1, [SP, #16]         ; [DPU_V7M3_PIPE] |2110| 
;* --------------------------------------------------------------------------*
||$C$L79||:    
	.dwpsn	file "../driverlib/usb.c",line 2116,column 9,is_stmt,isa 1
        LDR       A2, [SP, #4]          ; [DPU_V7M3_PIPE] |2116| 
        LDR       A1, [SP, #0]          ; [DPU_V7M3_PIPE] |2116| 
        LDRB      A3, [SP, #16]         ; [DPU_V7M3_PIPE] |2116| 
        ADDS      A1, A1, A2            ; [DPU_V7M3_PIPE] |2116| 
        STRB      A3, [A1, #259]        ; [DPU_V7M3_PIPE] |2116| 
	.dwpsn	file "../driverlib/usb.c",line 2122,column 9,is_stmt,isa 1
        LDR       A1, [SP, #0]          ; [DPU_V7M3_PIPE] |2122| 
        LDR       A3, [SP, #4]          ; [DPU_V7M3_PIPE] |2122| 
        MOVS      A2, #64               ; [DPU_V7M3_PIPE] |2122| 
        ADDS      A1, A1, A3            ; [DPU_V7M3_PIPE] |2122| 
        STRB      A2, [A1, #258]        ; [DPU_V7M3_PIPE] |2122| 
	.dwpsn	file "../driverlib/usb.c",line 2124,column 5,is_stmt,isa 1
        B         ||$C$L86||            ; [DPU_V7M3_PIPE] |2124| 
        ; BRANCH OCCURS {||$C$L86||}     ; [] |2124| 
;* --------------------------------------------------------------------------*
||$C$L80||:    
	.dwpsn	file "../driverlib/usb.c",line 2130,column 9,is_stmt,isa 1
        LDR       A2, [SP, #4]          ; [DPU_V7M3_PIPE] |2130| 
        LDR       A1, [SP, #0]          ; [DPU_V7M3_PIPE] |2130| 
        LDRH      A3, [SP, #8]          ; [DPU_V7M3_PIPE] |2130| 
        ADDS      A1, A1, A2            ; [DPU_V7M3_PIPE] |2130| 
        STRH      A3, [A1, #260]        ; [DPU_V7M3_PIPE] |2130| 
	.dwpsn	file "../driverlib/usb.c",line 2136,column 9,is_stmt,isa 1
        MOVS      A1, #0                ; [DPU_V7M3_PIPE] |2136| 
        STR       A1, [SP, #16]         ; [DPU_V7M3_PIPE] |2136| 
	.dwpsn	file "../driverlib/usb.c",line 2142,column 9,is_stmt,isa 1
        LDR       A1, [SP, #12]         ; [DPU_V7M3_PIPE] |2142| 
        LSRS      A1, A1, #3            ; [DPU_V7M3_PIPE] |2142| 
        BCC       ||$C$L81||            ; [DPU_V7M3_PIPE] |2142| 
        ; BRANCHCC OCCURS {||$C$L81||}   ; [] |2142| 
;* --------------------------------------------------------------------------*
	.dwpsn	file "../driverlib/usb.c",line 2144,column 13,is_stmt,isa 1
        MOVS      A1, #128              ; [DPU_V7M3_PIPE] |2144| 
        STR       A1, [SP, #16]         ; [DPU_V7M3_PIPE] |2144| 
;* --------------------------------------------------------------------------*
||$C$L81||:    
	.dwpsn	file "../driverlib/usb.c",line 2150,column 9,is_stmt,isa 1
        LDR       A1, [SP, #12]         ; [DPU_V7M3_PIPE] |2150| 
        LSRS      A1, A1, #5            ; [DPU_V7M3_PIPE] |2150| 
        BCC       ||$C$L82||            ; [DPU_V7M3_PIPE] |2150| 
        ; BRANCHCC OCCURS {||$C$L82||}   ; [] |2150| 
;* --------------------------------------------------------------------------*
	.dwpsn	file "../driverlib/usb.c",line 2152,column 13,is_stmt,isa 1
        LDR       A1, [SP, #16]         ; [DPU_V7M3_PIPE] |2152| 
        ORR       A1, A1, #40           ; [DPU_V7M3_PIPE] |2152| 
        STR       A1, [SP, #16]         ; [DPU_V7M3_PIPE] |2152| 
	.dwpsn	file "../driverlib/usb.c",line 2153,column 9,is_stmt,isa 1
        B         ||$C$L83||            ; [DPU_V7M3_PIPE] |2153| 
        ; BRANCH OCCURS {||$C$L83||}     ; [] |2153| 
;* --------------------------------------------------------------------------*
||$C$L82||:    
	.dwpsn	file "../driverlib/usb.c",line 2154,column 14,is_stmt,isa 1
        LDR       A1, [SP, #12]         ; [DPU_V7M3_PIPE] |2154| 
        LSRS      A1, A1, #4            ; [DPU_V7M3_PIPE] |2154| 
        BCC       ||$C$L83||            ; [DPU_V7M3_PIPE] |2154| 
        ; BRANCHCC OCCURS {||$C$L83||}   ; [] |2154| 
;* --------------------------------------------------------------------------*
	.dwpsn	file "../driverlib/usb.c",line 2156,column 13,is_stmt,isa 1
        LDR       A1, [SP, #16]         ; [DPU_V7M3_PIPE] |2156| 
        ORR       A1, A1, #32           ; [DPU_V7M3_PIPE] |2156| 
        STR       A1, [SP, #16]         ; [DPU_V7M3_PIPE] |2156| 
;* --------------------------------------------------------------------------*
||$C$L83||:    
	.dwpsn	file "../driverlib/usb.c",line 2163,column 9,is_stmt,isa 1
        LDR       A1, [SP, #12]         ; [DPU_V7M3_PIPE] |2163| 
        LSRS      A1, A1, #6            ; [DPU_V7M3_PIPE] |2163| 
        BCC       ||$C$L84||            ; [DPU_V7M3_PIPE] |2163| 
        ; BRANCHCC OCCURS {||$C$L84||}   ; [] |2163| 
;* --------------------------------------------------------------------------*
	.dwpsn	file "../driverlib/usb.c",line 2165,column 13,is_stmt,isa 1
        LDR       A1, [SP, #16]         ; [DPU_V7M3_PIPE] |2165| 
        ORR       A1, A1, #16           ; [DPU_V7M3_PIPE] |2165| 
        STR       A1, [SP, #16]         ; [DPU_V7M3_PIPE] |2165| 
;* --------------------------------------------------------------------------*
||$C$L84||:    
	.dwpsn	file "../driverlib/usb.c",line 2171,column 9,is_stmt,isa 1
        LDR       A1, [SP, #12]         ; [DPU_V7M3_PIPE] |2171| 
        TST       A1, #768              ; [DPU_V7M3_PIPE] |2171| 
        BNE       ||$C$L85||            ; [DPU_V7M3_PIPE] |2171| 
        ; BRANCHCC OCCURS {||$C$L85||}   ; [] |2171| 
;* --------------------------------------------------------------------------*
	.dwpsn	file "../driverlib/usb.c",line 2173,column 13,is_stmt,isa 1
        LDR       A1, [SP, #16]         ; [DPU_V7M3_PIPE] |2173| 
        ORR       A1, A1, #64           ; [DPU_V7M3_PIPE] |2173| 
        STR       A1, [SP, #16]         ; [DPU_V7M3_PIPE] |2173| 
;* --------------------------------------------------------------------------*
||$C$L85||:    
	.dwpsn	file "../driverlib/usb.c",line 2179,column 9,is_stmt,isa 1
        LDR       A2, [SP, #4]          ; [DPU_V7M3_PIPE] |2179| 
        LDR       A1, [SP, #0]          ; [DPU_V7M3_PIPE] |2179| 
        LDRB      A3, [SP, #16]         ; [DPU_V7M3_PIPE] |2179| 
        ADDS      A1, A1, A2            ; [DPU_V7M3_PIPE] |2179| 
        STRB      A3, [A1, #263]        ; [DPU_V7M3_PIPE] |2179| 
	.dwpsn	file "../driverlib/usb.c",line 2185,column 9,is_stmt,isa 1
        LDR       A1, [SP, #0]          ; [DPU_V7M3_PIPE] |2185| 
        LDR       A3, [SP, #4]          ; [DPU_V7M3_PIPE] |2185| 
        MOVS      A2, #128              ; [DPU_V7M3_PIPE] |2185| 
        ADDS      A1, A1, A3            ; [DPU_V7M3_PIPE] |2185| 
        STRB      A2, [A1, #262]        ; [DPU_V7M3_PIPE] |2185| 
	.dwpsn	file "../driverlib/usb.c",line 2188,column 1,is_stmt,isa 1
;* --------------------------------------------------------------------------*
||$C$L86||:    
        ADD       SP, SP, #24           ; [DPU_V7M3_PIPE] 
	.dwcfi	cfa_offset, 0
$C$DW$238	.dwtag  DW_TAG_TI_branch
	.dwattr $C$DW$238, DW_AT_low_pc(0x00)
	.dwattr $C$DW$238, DW_AT_TI_return

        BX        LR                    ; [DPU_V7M3_PIPE] 
        ; BRANCH OCCURS                  ; [] 
	.dwattr $C$DW$228, DW_AT_TI_end_file("../driverlib/usb.c")
	.dwattr $C$DW$228, DW_AT_TI_end_line(0x88c)
	.dwattr $C$DW$228, DW_AT_TI_end_column(0x01)
	.dwendentry
	.dwendtag $C$DW$228

	.sect	".text"
	.clink
	.thumbfunc USBDevEndpointConfigGet
	.thumb
	.global	USBDevEndpointConfigGet

$C$DW$239	.dwtag  DW_TAG_subprogram
	.dwattr $C$DW$239, DW_AT_name("USBDevEndpointConfigGet")
	.dwattr $C$DW$239, DW_AT_low_pc(USBDevEndpointConfigGet)
	.dwattr $C$DW$239, DW_AT_high_pc(0x00)
	.dwattr $C$DW$239, DW_AT_TI_symbol_name("USBDevEndpointConfigGet")
	.dwattr $C$DW$239, DW_AT_external
	.dwattr $C$DW$239, DW_AT_TI_begin_file("../driverlib/usb.c")
	.dwattr $C$DW$239, DW_AT_TI_begin_line(0x8a6)
	.dwattr $C$DW$239, DW_AT_TI_begin_column(0x01)
	.dwattr $C$DW$239, DW_AT_decl_file("../driverlib/usb.c")
	.dwattr $C$DW$239, DW_AT_decl_line(0x8a6)
	.dwattr $C$DW$239, DW_AT_decl_column(0x01)
	.dwattr $C$DW$239, DW_AT_TI_max_frame_size(0x18)
	.dwpsn	file "../driverlib/usb.c",line 2216,column 1,is_stmt,address USBDevEndpointConfigGet,isa 1

	.dwfde $C$DW$CIE, USBDevEndpointConfigGet
$C$DW$240	.dwtag  DW_TAG_formal_parameter
	.dwattr $C$DW$240, DW_AT_name("ui32Base")
	.dwattr $C$DW$240, DW_AT_TI_symbol_name("ui32Base")
	.dwattr $C$DW$240, DW_AT_type(*$C$DW$T$25)
	.dwattr $C$DW$240, DW_AT_location[DW_OP_reg0]

$C$DW$241	.dwtag  DW_TAG_formal_parameter
	.dwattr $C$DW$241, DW_AT_name("ui32Endpoint")
	.dwattr $C$DW$241, DW_AT_TI_symbol_name("ui32Endpoint")
	.dwattr $C$DW$241, DW_AT_type(*$C$DW$T$25)
	.dwattr $C$DW$241, DW_AT_location[DW_OP_reg1]

$C$DW$242	.dwtag  DW_TAG_formal_parameter
	.dwattr $C$DW$242, DW_AT_name("pui32MaxPacketSize")
	.dwattr $C$DW$242, DW_AT_TI_symbol_name("pui32MaxPacketSize")
	.dwattr $C$DW$242, DW_AT_type(*$C$DW$T$48)
	.dwattr $C$DW$242, DW_AT_location[DW_OP_reg2]

$C$DW$243	.dwtag  DW_TAG_formal_parameter
	.dwattr $C$DW$243, DW_AT_name("pui32Flags")
	.dwattr $C$DW$243, DW_AT_TI_symbol_name("pui32Flags")
	.dwattr $C$DW$243, DW_AT_type(*$C$DW$T$48)
	.dwattr $C$DW$243, DW_AT_location[DW_OP_reg3]


;*****************************************************************************
;* FUNCTION NAME: USBDevEndpointConfigGet                                    *
;*                                                                           *
;*   Regs Modified     : A1,A2,A3,SP,SR                                      *
;*   Regs Used         : A1,A2,A3,A4,SP,LR,SR                                *
;*   Local Frame Size  : 0 Args + 20 Auto + 0 Save = 20 byte                 *
;*****************************************************************************
USBDevEndpointConfigGet:
;* --------------------------------------------------------------------------*
	.dwcfi	cfa_offset, 0
        SUB       SP, SP, #24           ; [DPU_V7M3_PIPE] 
	.dwcfi	cfa_offset, 24
$C$DW$244	.dwtag  DW_TAG_variable
	.dwattr $C$DW$244, DW_AT_name("ui32Base")
	.dwattr $C$DW$244, DW_AT_TI_symbol_name("ui32Base")
	.dwattr $C$DW$244, DW_AT_type(*$C$DW$T$25)
	.dwattr $C$DW$244, DW_AT_location[DW_OP_breg13 0]

$C$DW$245	.dwtag  DW_TAG_variable
	.dwattr $C$DW$245, DW_AT_name("ui32Endpoint")
	.dwattr $C$DW$245, DW_AT_TI_symbol_name("ui32Endpoint")
	.dwattr $C$DW$245, DW_AT_type(*$C$DW$T$25)
	.dwattr $C$DW$245, DW_AT_location[DW_OP_breg13 4]

$C$DW$246	.dwtag  DW_TAG_variable
	.dwattr $C$DW$246, DW_AT_name("pui32MaxPacketSize")
	.dwattr $C$DW$246, DW_AT_TI_symbol_name("pui32MaxPacketSize")
	.dwattr $C$DW$246, DW_AT_type(*$C$DW$T$48)
	.dwattr $C$DW$246, DW_AT_location[DW_OP_breg13 8]

$C$DW$247	.dwtag  DW_TAG_variable
	.dwattr $C$DW$247, DW_AT_name("pui32Flags")
	.dwattr $C$DW$247, DW_AT_TI_symbol_name("pui32Flags")
	.dwattr $C$DW$247, DW_AT_type(*$C$DW$T$48)
	.dwattr $C$DW$247, DW_AT_location[DW_OP_breg13 12]

$C$DW$248	.dwtag  DW_TAG_variable
	.dwattr $C$DW$248, DW_AT_name("ui32Register")
	.dwattr $C$DW$248, DW_AT_TI_symbol_name("ui32Register")
	.dwattr $C$DW$248, DW_AT_type(*$C$DW$T$25)
	.dwattr $C$DW$248, DW_AT_location[DW_OP_breg13 16]

        STR       A4, [SP, #12]         ; [DPU_V7M3_PIPE] |2216| 
        STR       A3, [SP, #8]          ; [DPU_V7M3_PIPE] |2216| 
        STR       A2, [SP, #4]          ; [DPU_V7M3_PIPE] |2216| 
        STR       A1, [SP, #0]          ; [DPU_V7M3_PIPE] |2216| 
	.dwpsn	file "../driverlib/usb.c",line 2232,column 5,is_stmt,isa 1
        LDR       A1, [SP, #12]         ; [DPU_V7M3_PIPE] |2232| 
        LDR       A1, [A1, #0]          ; [DPU_V7M3_PIPE] |2232| 
        LSRS      A1, A1, #14           ; [DPU_V7M3_PIPE] |2232| 
        BCC       ||$C$L91||            ; [DPU_V7M3_PIPE] |2232| 
        ; BRANCHCC OCCURS {||$C$L91||}   ; [] |2232| 
;* --------------------------------------------------------------------------*
	.dwpsn	file "../driverlib/usb.c",line 2237,column 9,is_stmt,isa 1
        LDR       A1, [SP, #12]         ; [DPU_V7M3_PIPE] |2237| 
        MOV       A2, #8192             ; [DPU_V7M3_PIPE] |2237| 
        STR       A2, [A1, #0]          ; [DPU_V7M3_PIPE] |2237| 
	.dwpsn	file "../driverlib/usb.c",line 2242,column 9,is_stmt,isa 1
        LDR       A3, [SP, #4]          ; [DPU_V7M3_PIPE] |2242| 
        LDR       A1, [SP, #0]          ; [DPU_V7M3_PIPE] |2242| 
        LDR       A2, [SP, #8]          ; [DPU_V7M3_PIPE] |2242| 
        ADDS      A1, A1, A3            ; [DPU_V7M3_PIPE] |2242| 
        LDRH      A1, [A1, #256]        ; [DPU_V7M3_PIPE] |2242| 
        STR       A1, [A2, #0]          ; [DPU_V7M3_PIPE] |2242| 
	.dwpsn	file "../driverlib/usb.c",line 2249,column 9,is_stmt,isa 1
        LDR       A2, [SP, #4]          ; [DPU_V7M3_PIPE] |2249| 
        LDR       A1, [SP, #0]          ; [DPU_V7M3_PIPE] |2249| 
        ADDS      A1, A1, A2            ; [DPU_V7M3_PIPE] |2249| 
        LDRB      A1, [A1, #259]        ; [DPU_V7M3_PIPE] |2249| 
        STR       A1, [SP, #16]         ; [DPU_V7M3_PIPE] |2249| 
	.dwpsn	file "../driverlib/usb.c",line 2256,column 9,is_stmt,isa 1
        LDR       A1, [SP, #16]         ; [DPU_V7M3_PIPE] |2256| 
        LSRS      A1, A1, #8            ; [DPU_V7M3_PIPE] |2256| 
        BCC       ||$C$L87||            ; [DPU_V7M3_PIPE] |2256| 
        ; BRANCHCC OCCURS {||$C$L87||}   ; [] |2256| 
;* --------------------------------------------------------------------------*
	.dwpsn	file "../driverlib/usb.c",line 2258,column 13,is_stmt,isa 1
        LDR       A2, [SP, #12]         ; [DPU_V7M3_PIPE] |2258| 
        LDR       A1, [A2, #0]          ; [DPU_V7M3_PIPE] |2258| 
        ORR       A1, A1, #1            ; [DPU_V7M3_PIPE] |2258| 
        STR       A1, [A2, #0]          ; [DPU_V7M3_PIPE] |2258| 
;* --------------------------------------------------------------------------*
||$C$L87||:    
	.dwpsn	file "../driverlib/usb.c",line 2264,column 9,is_stmt,isa 1
        LDR       A1, [SP, #16]         ; [DPU_V7M3_PIPE] |2264| 
        LSRS      A1, A1, #5            ; [DPU_V7M3_PIPE] |2264| 
        BCC       ||$C$L89||            ; [DPU_V7M3_PIPE] |2264| 
        ; BRANCHCC OCCURS {||$C$L89||}   ; [] |2264| 
;* --------------------------------------------------------------------------*
	.dwpsn	file "../driverlib/usb.c",line 2266,column 13,is_stmt,isa 1
        LDR       A1, [SP, #16]         ; [DPU_V7M3_PIPE] |2266| 
        LSRS      A1, A1, #3            ; [DPU_V7M3_PIPE] |2266| 
        BCC       ||$C$L88||            ; [DPU_V7M3_PIPE] |2266| 
        ; BRANCHCC OCCURS {||$C$L88||}   ; [] |2266| 
;* --------------------------------------------------------------------------*
	.dwpsn	file "../driverlib/usb.c",line 2268,column 17,is_stmt,isa 1
        LDR       A2, [SP, #12]         ; [DPU_V7M3_PIPE] |2268| 
        LDR       A1, [A2, #0]          ; [DPU_V7M3_PIPE] |2268| 
        ORR       A1, A1, #16           ; [DPU_V7M3_PIPE] |2268| 
        STR       A1, [A2, #0]          ; [DPU_V7M3_PIPE] |2268| 
	.dwpsn	file "../driverlib/usb.c",line 2269,column 13,is_stmt,isa 1
        B         ||$C$L89||            ; [DPU_V7M3_PIPE] |2269| 
        ; BRANCH OCCURS {||$C$L89||}     ; [] |2269| 
;* --------------------------------------------------------------------------*
||$C$L88||:    
	.dwpsn	file "../driverlib/usb.c",line 2272,column 17,is_stmt,isa 1
        LDR       A2, [SP, #12]         ; [DPU_V7M3_PIPE] |2272| 
        LDR       A1, [A2, #0]          ; [DPU_V7M3_PIPE] |2272| 
        ORR       A1, A1, #8            ; [DPU_V7M3_PIPE] |2272| 
        STR       A1, [A2, #0]          ; [DPU_V7M3_PIPE] |2272| 
;* --------------------------------------------------------------------------*
||$C$L89||:    
	.dwpsn	file "../driverlib/usb.c",line 2279,column 9,is_stmt,isa 1
        LDR       A1, [SP, #16]         ; [DPU_V7M3_PIPE] |2279| 
        LSRS      A1, A1, #7            ; [DPU_V7M3_PIPE] |2279| 
        BCC       ||$C$L90||            ; [DPU_V7M3_PIPE] |2279| 
        ; BRANCHCC OCCURS {||$C$L90||}   ; [] |2279| 
;* --------------------------------------------------------------------------*
	.dwpsn	file "../driverlib/usb.c",line 2281,column 13,is_stmt,isa 1
        LDR       A1, [SP, #12]         ; [DPU_V7M3_PIPE] |2281| 
        LDR       A2, [A1, #0]          ; [DPU_V7M3_PIPE] |2281| 
        STR       A2, [A1, #0]          ; [DPU_V7M3_PIPE] |2281| 
	.dwpsn	file "../driverlib/usb.c",line 2282,column 9,is_stmt,isa 1
        B         ||$C$L96||            ; [DPU_V7M3_PIPE] |2282| 
        ; BRANCH OCCURS {||$C$L96||}     ; [] |2282| 
;* --------------------------------------------------------------------------*
||$C$L90||:    
	.dwpsn	file "../driverlib/usb.c",line 2294,column 13,is_stmt,isa 1
        LDR       A2, [SP, #12]         ; [DPU_V7M3_PIPE] |2294| 
        LDR       A1, [A2, #0]          ; [DPU_V7M3_PIPE] |2294| 
        ORR       A1, A1, #256          ; [DPU_V7M3_PIPE] |2294| 
        STR       A1, [A2, #0]          ; [DPU_V7M3_PIPE] |2294| 
	.dwpsn	file "../driverlib/usb.c",line 2296,column 5,is_stmt,isa 1
        B         ||$C$L96||            ; [DPU_V7M3_PIPE] |2296| 
        ; BRANCH OCCURS {||$C$L96||}     ; [] |2296| 
;* --------------------------------------------------------------------------*
||$C$L91||:    
	.dwpsn	file "../driverlib/usb.c",line 2302,column 9,is_stmt,isa 1
        LDR       A1, [SP, #12]         ; [DPU_V7M3_PIPE] |2302| 
        MOVS      A2, #0                ; [DPU_V7M3_PIPE] |2302| 
        STR       A2, [A1, #0]          ; [DPU_V7M3_PIPE] |2302| 
	.dwpsn	file "../driverlib/usb.c",line 2307,column 9,is_stmt,isa 1
        LDR       A3, [SP, #4]          ; [DPU_V7M3_PIPE] |2307| 
        LDR       A1, [SP, #0]          ; [DPU_V7M3_PIPE] |2307| 
        LDR       A2, [SP, #8]          ; [DPU_V7M3_PIPE] |2307| 
        ADDS      A1, A1, A3            ; [DPU_V7M3_PIPE] |2307| 
        LDRH      A1, [A1, #260]        ; [DPU_V7M3_PIPE] |2307| 
        STR       A1, [A2, #0]          ; [DPU_V7M3_PIPE] |2307| 
	.dwpsn	file "../driverlib/usb.c",line 2314,column 9,is_stmt,isa 1
        LDR       A2, [SP, #4]          ; [DPU_V7M3_PIPE] |2314| 
        LDR       A1, [SP, #0]          ; [DPU_V7M3_PIPE] |2314| 
        ADDS      A1, A1, A2            ; [DPU_V7M3_PIPE] |2314| 
        LDRB      A1, [A1, #263]        ; [DPU_V7M3_PIPE] |2314| 
        STR       A1, [SP, #16]         ; [DPU_V7M3_PIPE] |2314| 
	.dwpsn	file "../driverlib/usb.c",line 2321,column 9,is_stmt,isa 1
        LDR       A1, [SP, #16]         ; [DPU_V7M3_PIPE] |2321| 
        LSRS      A1, A1, #8            ; [DPU_V7M3_PIPE] |2321| 
        BCC       ||$C$L92||            ; [DPU_V7M3_PIPE] |2321| 
        ; BRANCHCC OCCURS {||$C$L92||}   ; [] |2321| 
;* --------------------------------------------------------------------------*
	.dwpsn	file "../driverlib/usb.c",line 2323,column 13,is_stmt,isa 1
        LDR       A2, [SP, #12]         ; [DPU_V7M3_PIPE] |2323| 
        LDR       A1, [A2, #0]          ; [DPU_V7M3_PIPE] |2323| 
        ORR       A1, A1, #4            ; [DPU_V7M3_PIPE] |2323| 
        STR       A1, [A2, #0]          ; [DPU_V7M3_PIPE] |2323| 
;* --------------------------------------------------------------------------*
||$C$L92||:    
	.dwpsn	file "../driverlib/usb.c",line 2329,column 9,is_stmt,isa 1
        LDR       A1, [SP, #16]         ; [DPU_V7M3_PIPE] |2329| 
        LSRS      A1, A1, #6            ; [DPU_V7M3_PIPE] |2329| 
        BCC       ||$C$L94||            ; [DPU_V7M3_PIPE] |2329| 
        ; BRANCHCC OCCURS {||$C$L94||}   ; [] |2329| 
;* --------------------------------------------------------------------------*
	.dwpsn	file "../driverlib/usb.c",line 2331,column 13,is_stmt,isa 1
        LDR       A1, [SP, #16]         ; [DPU_V7M3_PIPE] |2331| 
        LSRS      A1, A1, #4            ; [DPU_V7M3_PIPE] |2331| 
        BCC       ||$C$L93||            ; [DPU_V7M3_PIPE] |2331| 
        ; BRANCHCC OCCURS {||$C$L93||}   ; [] |2331| 
;* --------------------------------------------------------------------------*
	.dwpsn	file "../driverlib/usb.c",line 2333,column 17,is_stmt,isa 1
        LDR       A2, [SP, #12]         ; [DPU_V7M3_PIPE] |2333| 
        LDR       A1, [A2, #0]          ; [DPU_V7M3_PIPE] |2333| 
        ORR       A1, A1, #16           ; [DPU_V7M3_PIPE] |2333| 
        STR       A1, [A2, #0]          ; [DPU_V7M3_PIPE] |2333| 
	.dwpsn	file "../driverlib/usb.c",line 2334,column 13,is_stmt,isa 1
        B         ||$C$L94||            ; [DPU_V7M3_PIPE] |2334| 
        ; BRANCH OCCURS {||$C$L94||}     ; [] |2334| 
;* --------------------------------------------------------------------------*
||$C$L93||:    
	.dwpsn	file "../driverlib/usb.c",line 2337,column 17,is_stmt,isa 1
        LDR       A2, [SP, #12]         ; [DPU_V7M3_PIPE] |2337| 
        LDR       A1, [A2, #0]          ; [DPU_V7M3_PIPE] |2337| 
        ORR       A1, A1, #8            ; [DPU_V7M3_PIPE] |2337| 
        STR       A1, [A2, #0]          ; [DPU_V7M3_PIPE] |2337| 
;* --------------------------------------------------------------------------*
||$C$L94||:    
	.dwpsn	file "../driverlib/usb.c",line 2344,column 9,is_stmt,isa 1
        LDR       A1, [SP, #16]         ; [DPU_V7M3_PIPE] |2344| 
        LSRS      A1, A1, #7            ; [DPU_V7M3_PIPE] |2344| 
        BCC       ||$C$L95||            ; [DPU_V7M3_PIPE] |2344| 
        ; BRANCHCC OCCURS {||$C$L95||}   ; [] |2344| 
;* --------------------------------------------------------------------------*
	.dwpsn	file "../driverlib/usb.c",line 2346,column 13,is_stmt,isa 1
        LDR       A1, [SP, #12]         ; [DPU_V7M3_PIPE] |2346| 
        LDR       A2, [A1, #0]          ; [DPU_V7M3_PIPE] |2346| 
        STR       A2, [A1, #0]          ; [DPU_V7M3_PIPE] |2346| 
	.dwpsn	file "../driverlib/usb.c",line 2347,column 9,is_stmt,isa 1
        B         ||$C$L96||            ; [DPU_V7M3_PIPE] |2347| 
        ; BRANCH OCCURS {||$C$L96||}     ; [] |2347| 
;* --------------------------------------------------------------------------*
||$C$L95||:    
	.dwpsn	file "../driverlib/usb.c",line 2359,column 13,is_stmt,isa 1
        LDR       A2, [SP, #12]         ; [DPU_V7M3_PIPE] |2359| 
        LDR       A1, [A2, #0]          ; [DPU_V7M3_PIPE] |2359| 
        ORR       A1, A1, #256          ; [DPU_V7M3_PIPE] |2359| 
        STR       A1, [A2, #0]          ; [DPU_V7M3_PIPE] |2359| 
	.dwpsn	file "../driverlib/usb.c",line 2362,column 1,is_stmt,isa 1
;* --------------------------------------------------------------------------*
||$C$L96||:    
        ADD       SP, SP, #24           ; [DPU_V7M3_PIPE] 
	.dwcfi	cfa_offset, 0
$C$DW$249	.dwtag  DW_TAG_TI_branch
	.dwattr $C$DW$249, DW_AT_low_pc(0x00)
	.dwattr $C$DW$249, DW_AT_TI_return

        BX        LR                    ; [DPU_V7M3_PIPE] 
        ; BRANCH OCCURS                  ; [] 
	.dwattr $C$DW$239, DW_AT_TI_end_file("../driverlib/usb.c")
	.dwattr $C$DW$239, DW_AT_TI_end_line(0x93a)
	.dwattr $C$DW$239, DW_AT_TI_end_column(0x01)
	.dwendentry
	.dwendtag $C$DW$239

	.sect	".text"
	.clink
	.thumbfunc USBFIFOConfigSet
	.thumb
	.global	USBFIFOConfigSet

$C$DW$250	.dwtag  DW_TAG_subprogram
	.dwattr $C$DW$250, DW_AT_name("USBFIFOConfigSet")
	.dwattr $C$DW$250, DW_AT_low_pc(USBFIFOConfigSet)
	.dwattr $C$DW$250, DW_AT_high_pc(0x00)
	.dwattr $C$DW$250, DW_AT_TI_symbol_name("USBFIFOConfigSet")
	.dwattr $C$DW$250, DW_AT_external
	.dwattr $C$DW$250, DW_AT_TI_begin_file("../driverlib/usb.c")
	.dwattr $C$DW$250, DW_AT_TI_begin_line(0x95a)
	.dwattr $C$DW$250, DW_AT_TI_begin_column(0x01)
	.dwattr $C$DW$250, DW_AT_decl_file("../driverlib/usb.c")
	.dwattr $C$DW$250, DW_AT_decl_line(0x95a)
	.dwattr $C$DW$250, DW_AT_decl_column(0x01)
	.dwattr $C$DW$250, DW_AT_TI_max_frame_size(0x18)
	.dwpsn	file "../driverlib/usb.c",line 2397,column 1,is_stmt,address USBFIFOConfigSet,isa 1

	.dwfde $C$DW$CIE, USBFIFOConfigSet
$C$DW$251	.dwtag  DW_TAG_formal_parameter
	.dwattr $C$DW$251, DW_AT_name("ui32Base")
	.dwattr $C$DW$251, DW_AT_TI_symbol_name("ui32Base")
	.dwattr $C$DW$251, DW_AT_type(*$C$DW$T$25)
	.dwattr $C$DW$251, DW_AT_location[DW_OP_reg0]

$C$DW$252	.dwtag  DW_TAG_formal_parameter
	.dwattr $C$DW$252, DW_AT_name("ui32Endpoint")
	.dwattr $C$DW$252, DW_AT_TI_symbol_name("ui32Endpoint")
	.dwattr $C$DW$252, DW_AT_type(*$C$DW$T$25)
	.dwattr $C$DW$252, DW_AT_location[DW_OP_reg1]

$C$DW$253	.dwtag  DW_TAG_formal_parameter
	.dwattr $C$DW$253, DW_AT_name("ui32FIFOAddress")
	.dwattr $C$DW$253, DW_AT_TI_symbol_name("ui32FIFOAddress")
	.dwattr $C$DW$253, DW_AT_type(*$C$DW$T$25)
	.dwattr $C$DW$253, DW_AT_location[DW_OP_reg2]

$C$DW$254	.dwtag  DW_TAG_formal_parameter
	.dwattr $C$DW$254, DW_AT_name("ui32FIFOSize")
	.dwattr $C$DW$254, DW_AT_TI_symbol_name("ui32FIFOSize")
	.dwattr $C$DW$254, DW_AT_type(*$C$DW$T$25)
	.dwattr $C$DW$254, DW_AT_location[DW_OP_reg3]

$C$DW$255	.dwtag  DW_TAG_formal_parameter
	.dwattr $C$DW$255, DW_AT_name("ui32Flags")
	.dwattr $C$DW$255, DW_AT_TI_symbol_name("ui32Flags")
	.dwattr $C$DW$255, DW_AT_type(*$C$DW$T$25)
	.dwattr $C$DW$255, DW_AT_location[DW_OP_breg13 24]


;*****************************************************************************
;* FUNCTION NAME: USBFIFOConfigSet                                           *
;*                                                                           *
;*   Regs Modified     : A1,A2,A3,A4,SP,LR,SR,FPEXC,FPSCR                    *
;*   Regs Used         : A1,A2,A3,A4,SP,LR,SR,FPEXC,FPSCR                    *
;*   Local Frame Size  : 4 Args + 16 Auto + 4 Save = 24 byte                 *
;*****************************************************************************
USBFIFOConfigSet:
;* --------------------------------------------------------------------------*
	.dwcfi	cfa_offset, 0
        PUSH      {LR}                  ; [DPU_V7M3_PIPE] 
	.dwcfi	cfa_offset, 4
	.dwcfi	save_reg_to_mem, 14, -4
        SUB       SP, SP, #20           ; [DPU_V7M3_PIPE] 
	.dwcfi	cfa_offset, 24
$C$DW$256	.dwtag  DW_TAG_variable
	.dwattr $C$DW$256, DW_AT_name("ui32Base")
	.dwattr $C$DW$256, DW_AT_TI_symbol_name("ui32Base")
	.dwattr $C$DW$256, DW_AT_type(*$C$DW$T$25)
	.dwattr $C$DW$256, DW_AT_location[DW_OP_breg13 4]

$C$DW$257	.dwtag  DW_TAG_variable
	.dwattr $C$DW$257, DW_AT_name("ui32Endpoint")
	.dwattr $C$DW$257, DW_AT_TI_symbol_name("ui32Endpoint")
	.dwattr $C$DW$257, DW_AT_type(*$C$DW$T$25)
	.dwattr $C$DW$257, DW_AT_location[DW_OP_breg13 8]

$C$DW$258	.dwtag  DW_TAG_variable
	.dwattr $C$DW$258, DW_AT_name("ui32FIFOAddress")
	.dwattr $C$DW$258, DW_AT_TI_symbol_name("ui32FIFOAddress")
	.dwattr $C$DW$258, DW_AT_type(*$C$DW$T$25)
	.dwattr $C$DW$258, DW_AT_location[DW_OP_breg13 12]

$C$DW$259	.dwtag  DW_TAG_variable
	.dwattr $C$DW$259, DW_AT_name("ui32FIFOSize")
	.dwattr $C$DW$259, DW_AT_TI_symbol_name("ui32FIFOSize")
	.dwattr $C$DW$259, DW_AT_type(*$C$DW$T$25)
	.dwattr $C$DW$259, DW_AT_location[DW_OP_breg13 16]

        STR       A4, [SP, #16]         ; [DPU_V7M3_PIPE] |2397| 
        STR       A3, [SP, #12]         ; [DPU_V7M3_PIPE] |2397| 
        STR       A2, [SP, #8]          ; [DPU_V7M3_PIPE] |2397| 
        STR       A1, [SP, #4]          ; [DPU_V7M3_PIPE] |2397| 
	.dwpsn	file "../driverlib/usb.c",line 2410,column 5,is_stmt,isa 1
        LDR       A1, [SP, #24]         ; [DPU_V7M3_PIPE] |2410| 
        LSRS      A1, A1, #14           ; [DPU_V7M3_PIPE] |2410| 
        BCC       ||$C$L97||            ; [DPU_V7M3_PIPE] |2410| 
        ; BRANCHCC OCCURS {||$C$L97||}   ; [] |2410| 
;* --------------------------------------------------------------------------*
	.dwpsn	file "../driverlib/usb.c",line 2415,column 9,is_stmt,isa 1
        MOVS      A1, #1                ; [DPU_V7M3_PIPE] |2415| 
        STR       A1, [SP, #0]          ; [DPU_V7M3_PIPE] |2415| 
        LDR       A1, [SP, #8]          ; [DPU_V7M3_PIPE] |2415| 
        LDR       A4, [SP, #16]         ; [DPU_V7M3_PIPE] |2415| 
        LSRS      A2, A1, #4            ; [DPU_V7M3_PIPE] |2415| 
        LDR       A1, [SP, #4]          ; [DPU_V7M3_PIPE] |2415| 
        MOVS      A3, #98               ; [DPU_V7M3_PIPE] |2415| 
$C$DW$260	.dwtag  DW_TAG_TI_branch
	.dwattr $C$DW$260, DW_AT_low_pc(0x00)
	.dwattr $C$DW$260, DW_AT_name("_USBIndexWrite")
	.dwattr $C$DW$260, DW_AT_TI_call

        BL        _USBIndexWrite        ; [DPU_V7M3_PIPE] |2415| 
        ; CALL OCCURS {_USBIndexWrite }  ; [] |2415| 
	.dwpsn	file "../driverlib/usb.c",line 2417,column 9,is_stmt,isa 1
        MOVS      A1, #2                ; [DPU_V7M3_PIPE] |2417| 
        STR       A1, [SP, #0]          ; [DPU_V7M3_PIPE] |2417| 
        LDR       A1, [SP, #12]         ; [DPU_V7M3_PIPE] |2417| 
        LDR       A2, [SP, #8]          ; [DPU_V7M3_PIPE] |2417| 
        LSRS      A4, A1, #3            ; [DPU_V7M3_PIPE] |2417| 
        LDR       A1, [SP, #4]          ; [DPU_V7M3_PIPE] |2417| 
        MOVS      A3, #100              ; [DPU_V7M3_PIPE] |2417| 
        LSRS      A2, A2, #4            ; [DPU_V7M3_PIPE] |2417| 
$C$DW$261	.dwtag  DW_TAG_TI_branch
	.dwattr $C$DW$261, DW_AT_low_pc(0x00)
	.dwattr $C$DW$261, DW_AT_name("_USBIndexWrite")
	.dwattr $C$DW$261, DW_AT_TI_call

        BL        _USBIndexWrite        ; [DPU_V7M3_PIPE] |2417| 
        ; CALL OCCURS {_USBIndexWrite }  ; [] |2417| 
	.dwpsn	file "../driverlib/usb.c",line 2419,column 5,is_stmt,isa 1
        B         ||$C$L98||            ; [DPU_V7M3_PIPE] |2419| 
        ; BRANCH OCCURS {||$C$L98||}     ; [] |2419| 
;* --------------------------------------------------------------------------*
||$C$L97||:    
	.dwpsn	file "../driverlib/usb.c",line 2425,column 9,is_stmt,isa 1
        MOVS      A1, #1                ; [DPU_V7M3_PIPE] |2425| 
        STR       A1, [SP, #0]          ; [DPU_V7M3_PIPE] |2425| 
        LDR       A1, [SP, #8]          ; [DPU_V7M3_PIPE] |2425| 
        LDR       A4, [SP, #16]         ; [DPU_V7M3_PIPE] |2425| 
        LSRS      A2, A1, #4            ; [DPU_V7M3_PIPE] |2425| 
        LDR       A1, [SP, #4]          ; [DPU_V7M3_PIPE] |2425| 
        MOVS      A3, #99               ; [DPU_V7M3_PIPE] |2425| 
$C$DW$262	.dwtag  DW_TAG_TI_branch
	.dwattr $C$DW$262, DW_AT_low_pc(0x00)
	.dwattr $C$DW$262, DW_AT_name("_USBIndexWrite")
	.dwattr $C$DW$262, DW_AT_TI_call

        BL        _USBIndexWrite        ; [DPU_V7M3_PIPE] |2425| 
        ; CALL OCCURS {_USBIndexWrite }  ; [] |2425| 
	.dwpsn	file "../driverlib/usb.c",line 2427,column 9,is_stmt,isa 1
        MOVS      A1, #2                ; [DPU_V7M3_PIPE] |2427| 
        STR       A1, [SP, #0]          ; [DPU_V7M3_PIPE] |2427| 
        LDR       A1, [SP, #12]         ; [DPU_V7M3_PIPE] |2427| 
        LDR       A2, [SP, #8]          ; [DPU_V7M3_PIPE] |2427| 
        LSRS      A4, A1, #3            ; [DPU_V7M3_PIPE] |2427| 
        LDR       A1, [SP, #4]          ; [DPU_V7M3_PIPE] |2427| 
        MOVS      A3, #102              ; [DPU_V7M3_PIPE] |2427| 
        LSRS      A2, A2, #4            ; [DPU_V7M3_PIPE] |2427| 
$C$DW$263	.dwtag  DW_TAG_TI_branch
	.dwattr $C$DW$263, DW_AT_low_pc(0x00)
	.dwattr $C$DW$263, DW_AT_name("_USBIndexWrite")
	.dwattr $C$DW$263, DW_AT_TI_call

        BL        _USBIndexWrite        ; [DPU_V7M3_PIPE] |2427| 
        ; CALL OCCURS {_USBIndexWrite }  ; [] |2427| 
	.dwpsn	file "../driverlib/usb.c",line 2430,column 1,is_stmt,isa 1
;* --------------------------------------------------------------------------*
||$C$L98||:    
        ADD       SP, SP, #20           ; [DPU_V7M3_PIPE] 
	.dwcfi	cfa_offset, 4
$C$DW$264	.dwtag  DW_TAG_TI_branch
	.dwattr $C$DW$264, DW_AT_low_pc(0x00)
	.dwattr $C$DW$264, DW_AT_TI_return

        POP       {PC}                  ; [DPU_V7M3_PIPE] 
	.dwcfi	cfa_offset, 0
        ; BRANCH OCCURS                  ; [] 
	.dwattr $C$DW$250, DW_AT_TI_end_file("../driverlib/usb.c")
	.dwattr $C$DW$250, DW_AT_TI_end_line(0x97e)
	.dwattr $C$DW$250, DW_AT_TI_end_column(0x01)
	.dwendentry
	.dwendtag $C$DW$250

	.sect	".text"
	.clink
	.thumbfunc USBFIFOConfigGet
	.thumb
	.global	USBFIFOConfigGet

$C$DW$265	.dwtag  DW_TAG_subprogram
	.dwattr $C$DW$265, DW_AT_name("USBFIFOConfigGet")
	.dwattr $C$DW$265, DW_AT_low_pc(USBFIFOConfigGet)
	.dwattr $C$DW$265, DW_AT_high_pc(0x00)
	.dwattr $C$DW$265, DW_AT_TI_symbol_name("USBFIFOConfigGet")
	.dwattr $C$DW$265, DW_AT_external
	.dwattr $C$DW$265, DW_AT_TI_begin_file("../driverlib/usb.c")
	.dwattr $C$DW$265, DW_AT_TI_begin_line(0x999)
	.dwattr $C$DW$265, DW_AT_TI_begin_column(0x01)
	.dwattr $C$DW$265, DW_AT_decl_file("../driverlib/usb.c")
	.dwattr $C$DW$265, DW_AT_decl_line(0x999)
	.dwattr $C$DW$265, DW_AT_decl_column(0x01)
	.dwattr $C$DW$265, DW_AT_TI_max_frame_size(0x18)
	.dwpsn	file "../driverlib/usb.c",line 2460,column 1,is_stmt,address USBFIFOConfigGet,isa 1

	.dwfde $C$DW$CIE, USBFIFOConfigGet
$C$DW$266	.dwtag  DW_TAG_formal_parameter
	.dwattr $C$DW$266, DW_AT_name("ui32Base")
	.dwattr $C$DW$266, DW_AT_TI_symbol_name("ui32Base")
	.dwattr $C$DW$266, DW_AT_type(*$C$DW$T$25)
	.dwattr $C$DW$266, DW_AT_location[DW_OP_reg0]

$C$DW$267	.dwtag  DW_TAG_formal_parameter
	.dwattr $C$DW$267, DW_AT_name("ui32Endpoint")
	.dwattr $C$DW$267, DW_AT_TI_symbol_name("ui32Endpoint")
	.dwattr $C$DW$267, DW_AT_type(*$C$DW$T$25)
	.dwattr $C$DW$267, DW_AT_location[DW_OP_reg1]

$C$DW$268	.dwtag  DW_TAG_formal_parameter
	.dwattr $C$DW$268, DW_AT_name("pui32FIFOAddress")
	.dwattr $C$DW$268, DW_AT_TI_symbol_name("pui32FIFOAddress")
	.dwattr $C$DW$268, DW_AT_type(*$C$DW$T$48)
	.dwattr $C$DW$268, DW_AT_location[DW_OP_reg2]

$C$DW$269	.dwtag  DW_TAG_formal_parameter
	.dwattr $C$DW$269, DW_AT_name("pui32FIFOSize")
	.dwattr $C$DW$269, DW_AT_TI_symbol_name("pui32FIFOSize")
	.dwattr $C$DW$269, DW_AT_type(*$C$DW$T$48)
	.dwattr $C$DW$269, DW_AT_location[DW_OP_reg3]

$C$DW$270	.dwtag  DW_TAG_formal_parameter
	.dwattr $C$DW$270, DW_AT_name("ui32Flags")
	.dwattr $C$DW$270, DW_AT_TI_symbol_name("ui32Flags")
	.dwattr $C$DW$270, DW_AT_type(*$C$DW$T$25)
	.dwattr $C$DW$270, DW_AT_location[DW_OP_breg13 24]


;*****************************************************************************
;* FUNCTION NAME: USBFIFOConfigGet                                           *
;*                                                                           *
;*   Regs Modified     : A1,A2,A3,A4,SP,LR,SR,FPEXC,FPSCR                    *
;*   Regs Used         : A1,A2,A3,A4,SP,LR,SR,FPEXC,FPSCR                    *
;*   Local Frame Size  : 0 Args + 16 Auto + 4 Save = 20 byte                 *
;*****************************************************************************
USBFIFOConfigGet:
;* --------------------------------------------------------------------------*
	.dwcfi	cfa_offset, 0
        PUSH      {LR}                  ; [DPU_V7M3_PIPE] 
	.dwcfi	cfa_offset, 4
	.dwcfi	save_reg_to_mem, 14, -4
        SUB       SP, SP, #20           ; [DPU_V7M3_PIPE] 
	.dwcfi	cfa_offset, 24
$C$DW$271	.dwtag  DW_TAG_variable
	.dwattr $C$DW$271, DW_AT_name("ui32Base")
	.dwattr $C$DW$271, DW_AT_TI_symbol_name("ui32Base")
	.dwattr $C$DW$271, DW_AT_type(*$C$DW$T$25)
	.dwattr $C$DW$271, DW_AT_location[DW_OP_breg13 0]

$C$DW$272	.dwtag  DW_TAG_variable
	.dwattr $C$DW$272, DW_AT_name("ui32Endpoint")
	.dwattr $C$DW$272, DW_AT_TI_symbol_name("ui32Endpoint")
	.dwattr $C$DW$272, DW_AT_type(*$C$DW$T$25)
	.dwattr $C$DW$272, DW_AT_location[DW_OP_breg13 4]

$C$DW$273	.dwtag  DW_TAG_variable
	.dwattr $C$DW$273, DW_AT_name("pui32FIFOAddress")
	.dwattr $C$DW$273, DW_AT_TI_symbol_name("pui32FIFOAddress")
	.dwattr $C$DW$273, DW_AT_type(*$C$DW$T$48)
	.dwattr $C$DW$273, DW_AT_location[DW_OP_breg13 8]

$C$DW$274	.dwtag  DW_TAG_variable
	.dwattr $C$DW$274, DW_AT_name("pui32FIFOSize")
	.dwattr $C$DW$274, DW_AT_TI_symbol_name("pui32FIFOSize")
	.dwattr $C$DW$274, DW_AT_type(*$C$DW$T$48)
	.dwattr $C$DW$274, DW_AT_location[DW_OP_breg13 12]

        STR       A4, [SP, #12]         ; [DPU_V7M3_PIPE] |2460| 
        STR       A3, [SP, #8]          ; [DPU_V7M3_PIPE] |2460| 
        STR       A2, [SP, #4]          ; [DPU_V7M3_PIPE] |2460| 
        STR       A1, [SP, #0]          ; [DPU_V7M3_PIPE] |2460| 
	.dwpsn	file "../driverlib/usb.c",line 2473,column 5,is_stmt,isa 1
        LDR       A1, [SP, #24]         ; [DPU_V7M3_PIPE] |2473| 
        LSRS      A1, A1, #14           ; [DPU_V7M3_PIPE] |2473| 
        BCC       ||$C$L99||            ; [DPU_V7M3_PIPE] |2473| 
        ; BRANCHCC OCCURS {||$C$L99||}   ; [] |2473| 
;* --------------------------------------------------------------------------*
	.dwpsn	file "../driverlib/usb.c",line 2478,column 9,is_stmt,isa 1
        LDR       A1, [SP, #4]          ; [DPU_V7M3_PIPE] |2478| 
        LSRS      A2, A1, #4            ; [DPU_V7M3_PIPE] |2478| 
        LDR       A1, [SP, #0]          ; [DPU_V7M3_PIPE] |2478| 
        MOVS      A3, #100              ; [DPU_V7M3_PIPE] |2478| 
        MOVS      A4, #2                ; [DPU_V7M3_PIPE] |2478| 
$C$DW$275	.dwtag  DW_TAG_TI_branch
	.dwattr $C$DW$275, DW_AT_low_pc(0x00)
	.dwattr $C$DW$275, DW_AT_name("_USBIndexRead")
	.dwattr $C$DW$275, DW_AT_TI_call

        BL        _USBIndexRead         ; [DPU_V7M3_PIPE] |2478| 
        ; CALL OCCURS {_USBIndexRead }   ; [] |2478| 
        LDR       A2, [SP, #8]          ; [DPU_V7M3_PIPE] |2478| 
        LSLS      A1, A1, #3            ; [DPU_V7M3_PIPE] |2478| 
        STR       A1, [A2, #0]          ; [DPU_V7M3_PIPE] |2478| 
	.dwpsn	file "../driverlib/usb.c",line 2481,column 9,is_stmt,isa 1
        LDR       A1, [SP, #4]          ; [DPU_V7M3_PIPE] |2481| 
        LSRS      A2, A1, #4            ; [DPU_V7M3_PIPE] |2481| 
        LDR       A1, [SP, #0]          ; [DPU_V7M3_PIPE] |2481| 
        MOVS      A3, #98               ; [DPU_V7M3_PIPE] |2481| 
        MOVS      A4, #1                ; [DPU_V7M3_PIPE] |2481| 
$C$DW$276	.dwtag  DW_TAG_TI_branch
	.dwattr $C$DW$276, DW_AT_low_pc(0x00)
	.dwattr $C$DW$276, DW_AT_name("_USBIndexRead")
	.dwattr $C$DW$276, DW_AT_TI_call

        BL        _USBIndexRead         ; [DPU_V7M3_PIPE] |2481| 
        ; CALL OCCURS {_USBIndexRead }   ; [] |2481| 
        LDR       A2, [SP, #12]         ; [DPU_V7M3_PIPE] |2481| 
        STR       A1, [A2, #0]          ; [DPU_V7M3_PIPE] |2481| 
	.dwpsn	file "../driverlib/usb.c",line 2483,column 5,is_stmt,isa 1
        B         ||$C$L100||           ; [DPU_V7M3_PIPE] |2483| 
        ; BRANCH OCCURS {||$C$L100||}    ; [] |2483| 
;* --------------------------------------------------------------------------*
||$C$L99||:    
	.dwpsn	file "../driverlib/usb.c",line 2489,column 9,is_stmt,isa 1
        LDR       A1, [SP, #4]          ; [DPU_V7M3_PIPE] |2489| 
        LSRS      A2, A1, #4            ; [DPU_V7M3_PIPE] |2489| 
        LDR       A1, [SP, #0]          ; [DPU_V7M3_PIPE] |2489| 
        MOVS      A3, #102              ; [DPU_V7M3_PIPE] |2489| 
        MOVS      A4, #2                ; [DPU_V7M3_PIPE] |2489| 
$C$DW$277	.dwtag  DW_TAG_TI_branch
	.dwattr $C$DW$277, DW_AT_low_pc(0x00)
	.dwattr $C$DW$277, DW_AT_name("_USBIndexRead")
	.dwattr $C$DW$277, DW_AT_TI_call

        BL        _USBIndexRead         ; [DPU_V7M3_PIPE] |2489| 
        ; CALL OCCURS {_USBIndexRead }   ; [] |2489| 
        LDR       A2, [SP, #8]          ; [DPU_V7M3_PIPE] |2489| 
        LSLS      A1, A1, #3            ; [DPU_V7M3_PIPE] |2489| 
        STR       A1, [A2, #0]          ; [DPU_V7M3_PIPE] |2489| 
	.dwpsn	file "../driverlib/usb.c",line 2492,column 9,is_stmt,isa 1
        LDR       A1, [SP, #4]          ; [DPU_V7M3_PIPE] |2492| 
        LSRS      A2, A1, #4            ; [DPU_V7M3_PIPE] |2492| 
        LDR       A1, [SP, #0]          ; [DPU_V7M3_PIPE] |2492| 
        MOVS      A3, #99               ; [DPU_V7M3_PIPE] |2492| 
        MOVS      A4, #1                ; [DPU_V7M3_PIPE] |2492| 
$C$DW$278	.dwtag  DW_TAG_TI_branch
	.dwattr $C$DW$278, DW_AT_low_pc(0x00)
	.dwattr $C$DW$278, DW_AT_name("_USBIndexRead")
	.dwattr $C$DW$278, DW_AT_TI_call

        BL        _USBIndexRead         ; [DPU_V7M3_PIPE] |2492| 
        ; CALL OCCURS {_USBIndexRead }   ; [] |2492| 
        LDR       A2, [SP, #12]         ; [DPU_V7M3_PIPE] |2492| 
        STR       A1, [A2, #0]          ; [DPU_V7M3_PIPE] |2492| 
	.dwpsn	file "../driverlib/usb.c",line 2495,column 1,is_stmt,isa 1
;* --------------------------------------------------------------------------*
||$C$L100||:    
        ADD       SP, SP, #20           ; [DPU_V7M3_PIPE] 
	.dwcfi	cfa_offset, 4
$C$DW$279	.dwtag  DW_TAG_TI_branch
	.dwattr $C$DW$279, DW_AT_low_pc(0x00)
	.dwattr $C$DW$279, DW_AT_TI_return

        POP       {PC}                  ; [DPU_V7M3_PIPE] 
	.dwcfi	cfa_offset, 0
        ; BRANCH OCCURS                  ; [] 
	.dwattr $C$DW$265, DW_AT_TI_end_file("../driverlib/usb.c")
	.dwattr $C$DW$265, DW_AT_TI_end_line(0x9bf)
	.dwattr $C$DW$265, DW_AT_TI_end_column(0x01)
	.dwendentry
	.dwendtag $C$DW$265

	.sect	".text"
	.clink
	.thumbfunc USBEndpointDMAConfigSet
	.thumb
	.global	USBEndpointDMAConfigSet

$C$DW$280	.dwtag  DW_TAG_subprogram
	.dwattr $C$DW$280, DW_AT_name("USBEndpointDMAConfigSet")
	.dwattr $C$DW$280, DW_AT_low_pc(USBEndpointDMAConfigSet)
	.dwattr $C$DW$280, DW_AT_high_pc(0x00)
	.dwattr $C$DW$280, DW_AT_TI_symbol_name("USBEndpointDMAConfigSet")
	.dwattr $C$DW$280, DW_AT_external
	.dwattr $C$DW$280, DW_AT_TI_begin_file("../driverlib/usb.c")
	.dwattr $C$DW$280, DW_AT_TI_begin_line(0xa0f)
	.dwattr $C$DW$280, DW_AT_TI_begin_column(0x01)
	.dwattr $C$DW$280, DW_AT_decl_file("../driverlib/usb.c")
	.dwattr $C$DW$280, DW_AT_decl_line(0xa0f)
	.dwattr $C$DW$280, DW_AT_decl_column(0x01)
	.dwattr $C$DW$280, DW_AT_TI_max_frame_size(0x10)
	.dwpsn	file "../driverlib/usb.c",line 2577,column 1,is_stmt,address USBEndpointDMAConfigSet,isa 1

	.dwfde $C$DW$CIE, USBEndpointDMAConfigSet
$C$DW$281	.dwtag  DW_TAG_formal_parameter
	.dwattr $C$DW$281, DW_AT_name("ui32Base")
	.dwattr $C$DW$281, DW_AT_TI_symbol_name("ui32Base")
	.dwattr $C$DW$281, DW_AT_type(*$C$DW$T$25)
	.dwattr $C$DW$281, DW_AT_location[DW_OP_reg0]

$C$DW$282	.dwtag  DW_TAG_formal_parameter
	.dwattr $C$DW$282, DW_AT_name("ui32Endpoint")
	.dwattr $C$DW$282, DW_AT_TI_symbol_name("ui32Endpoint")
	.dwattr $C$DW$282, DW_AT_type(*$C$DW$T$25)
	.dwattr $C$DW$282, DW_AT_location[DW_OP_reg1]

$C$DW$283	.dwtag  DW_TAG_formal_parameter
	.dwattr $C$DW$283, DW_AT_name("ui32Config")
	.dwattr $C$DW$283, DW_AT_TI_symbol_name("ui32Config")
	.dwattr $C$DW$283, DW_AT_type(*$C$DW$T$25)
	.dwattr $C$DW$283, DW_AT_location[DW_OP_reg2]


;*****************************************************************************
;* FUNCTION NAME: USBEndpointDMAConfigSet                                    *
;*                                                                           *
;*   Regs Modified     : A1,A2,A3,SP,SR                                      *
;*   Regs Used         : A1,A2,A3,SP,LR,SR                                   *
;*   Local Frame Size  : 0 Args + 16 Auto + 0 Save = 16 byte                 *
;*****************************************************************************
USBEndpointDMAConfigSet:
;* --------------------------------------------------------------------------*
	.dwcfi	cfa_offset, 0
        SUB       SP, SP, #16           ; [DPU_V7M3_PIPE] 
	.dwcfi	cfa_offset, 16
$C$DW$284	.dwtag  DW_TAG_variable
	.dwattr $C$DW$284, DW_AT_name("ui32Base")
	.dwattr $C$DW$284, DW_AT_TI_symbol_name("ui32Base")
	.dwattr $C$DW$284, DW_AT_type(*$C$DW$T$25)
	.dwattr $C$DW$284, DW_AT_location[DW_OP_breg13 0]

$C$DW$285	.dwtag  DW_TAG_variable
	.dwattr $C$DW$285, DW_AT_name("ui32Endpoint")
	.dwattr $C$DW$285, DW_AT_TI_symbol_name("ui32Endpoint")
	.dwattr $C$DW$285, DW_AT_type(*$C$DW$T$25)
	.dwattr $C$DW$285, DW_AT_location[DW_OP_breg13 4]

$C$DW$286	.dwtag  DW_TAG_variable
	.dwattr $C$DW$286, DW_AT_name("ui32Config")
	.dwattr $C$DW$286, DW_AT_TI_symbol_name("ui32Config")
	.dwattr $C$DW$286, DW_AT_type(*$C$DW$T$25)
	.dwattr $C$DW$286, DW_AT_location[DW_OP_breg13 8]

$C$DW$287	.dwtag  DW_TAG_variable
	.dwattr $C$DW$287, DW_AT_name("ui32NewConfig")
	.dwattr $C$DW$287, DW_AT_TI_symbol_name("ui32NewConfig")
	.dwattr $C$DW$287, DW_AT_type(*$C$DW$T$25)
	.dwattr $C$DW$287, DW_AT_location[DW_OP_breg13 12]

        STR       A3, [SP, #8]          ; [DPU_V7M3_PIPE] |2577| 
        STR       A2, [SP, #4]          ; [DPU_V7M3_PIPE] |2577| 
        STR       A1, [SP, #0]          ; [DPU_V7M3_PIPE] |2577| 
	.dwpsn	file "../driverlib/usb.c",line 2580,column 5,is_stmt,isa 1
        LDR       A1, [SP, #8]          ; [DPU_V7M3_PIPE] |2580| 
        LSRS      A1, A1, #14           ; [DPU_V7M3_PIPE] |2580| 
        BCC       ||$C$L103||           ; [DPU_V7M3_PIPE] |2580| 
        ; BRANCHCC OCCURS {||$C$L103||}  ; [] |2580| 
;* --------------------------------------------------------------------------*
	.dwpsn	file "../driverlib/usb.c",line 2585,column 9,is_stmt,isa 1
        LDR       A2, [SP, #4]          ; [DPU_V7M3_PIPE] |2585| 
        LDR       A1, [SP, #0]          ; [DPU_V7M3_PIPE] |2585| 
        ADDS      A1, A1, A2            ; [DPU_V7M3_PIPE] |2585| 
        LDRB      A1, [A1, #259]        ; [DPU_V7M3_PIPE] |2585| 
        BIC       A1, A1, #132          ; [DPU_V7M3_PIPE] |2585| 
        STR       A1, [SP, #12]         ; [DPU_V7M3_PIPE] |2585| 
	.dwpsn	file "../driverlib/usb.c",line 2589,column 9,is_stmt,isa 1
        LDR       A1, [SP, #8]          ; [DPU_V7M3_PIPE] |2589| 
        LSRS      A1, A1, #5            ; [DPU_V7M3_PIPE] |2589| 
        BCC       ||$C$L101||           ; [DPU_V7M3_PIPE] |2589| 
        ; BRANCHCC OCCURS {||$C$L101||}  ; [] |2589| 
;* --------------------------------------------------------------------------*
	.dwpsn	file "../driverlib/usb.c",line 2591,column 13,is_stmt,isa 1
        LDR       A1, [SP, #12]         ; [DPU_V7M3_PIPE] |2591| 
        ORR       A1, A1, #4            ; [DPU_V7M3_PIPE] |2591| 
        STR       A1, [SP, #12]         ; [DPU_V7M3_PIPE] |2591| 
;* --------------------------------------------------------------------------*
||$C$L101||:    
	.dwpsn	file "../driverlib/usb.c",line 2594,column 9,is_stmt,isa 1
        LDR       A1, [SP, #8]          ; [DPU_V7M3_PIPE] |2594| 
        LSRS      A1, A1, #1            ; [DPU_V7M3_PIPE] |2594| 
        BCC       ||$C$L102||           ; [DPU_V7M3_PIPE] |2594| 
        ; BRANCHCC OCCURS {||$C$L102||}  ; [] |2594| 
;* --------------------------------------------------------------------------*
	.dwpsn	file "../driverlib/usb.c",line 2596,column 13,is_stmt,isa 1
        LDR       A1, [SP, #12]         ; [DPU_V7M3_PIPE] |2596| 
        ORR       A1, A1, #128          ; [DPU_V7M3_PIPE] |2596| 
        STR       A1, [SP, #12]         ; [DPU_V7M3_PIPE] |2596| 
;* --------------------------------------------------------------------------*
||$C$L102||:    
	.dwpsn	file "../driverlib/usb.c",line 2599,column 9,is_stmt,isa 1
        LDR       A2, [SP, #4]          ; [DPU_V7M3_PIPE] |2599| 
        LDR       A1, [SP, #0]          ; [DPU_V7M3_PIPE] |2599| 
        LDRB      A3, [SP, #12]         ; [DPU_V7M3_PIPE] |2599| 
        ADDS      A1, A1, A2            ; [DPU_V7M3_PIPE] |2599| 
        STRB      A3, [A1, #259]        ; [DPU_V7M3_PIPE] |2599| 
	.dwpsn	file "../driverlib/usb.c",line 2601,column 5,is_stmt,isa 1
        B         ||$C$L107||           ; [DPU_V7M3_PIPE] |2601| 
        ; BRANCH OCCURS {||$C$L107||}    ; [] |2601| 
;* --------------------------------------------------------------------------*
||$C$L103||:    
	.dwpsn	file "../driverlib/usb.c",line 2604,column 9,is_stmt,isa 1
        LDR       A2, [SP, #4]          ; [DPU_V7M3_PIPE] |2604| 
        LDR       A1, [SP, #0]          ; [DPU_V7M3_PIPE] |2604| 
        ADDS      A1, A1, A2            ; [DPU_V7M3_PIPE] |2604| 
        LDRB      A1, [A1, #263]        ; [DPU_V7M3_PIPE] |2604| 
        BIC       A1, A1, #200          ; [DPU_V7M3_PIPE] |2604| 
        STR       A1, [SP, #12]         ; [DPU_V7M3_PIPE] |2604| 
	.dwpsn	file "../driverlib/usb.c",line 2608,column 9,is_stmt,isa 1
        LDR       A1, [SP, #8]          ; [DPU_V7M3_PIPE] |2608| 
        LSRS      A1, A1, #5            ; [DPU_V7M3_PIPE] |2608| 
        BCC       ||$C$L104||           ; [DPU_V7M3_PIPE] |2608| 
        ; BRANCHCC OCCURS {||$C$L104||}  ; [] |2608| 
;* --------------------------------------------------------------------------*
	.dwpsn	file "../driverlib/usb.c",line 2610,column 13,is_stmt,isa 1
        LDR       A1, [SP, #12]         ; [DPU_V7M3_PIPE] |2610| 
        ORR       A1, A1, #8            ; [DPU_V7M3_PIPE] |2610| 
        STR       A1, [SP, #12]         ; [DPU_V7M3_PIPE] |2610| 
;* --------------------------------------------------------------------------*
||$C$L104||:    
	.dwpsn	file "../driverlib/usb.c",line 2613,column 9,is_stmt,isa 1
        LDR       A1, [SP, #8]          ; [DPU_V7M3_PIPE] |2613| 
        LSRS      A1, A1, #3            ; [DPU_V7M3_PIPE] |2613| 
        BCC       ||$C$L105||           ; [DPU_V7M3_PIPE] |2613| 
        ; BRANCHCC OCCURS {||$C$L105||}  ; [] |2613| 
;* --------------------------------------------------------------------------*
	.dwpsn	file "../driverlib/usb.c",line 2615,column 13,is_stmt,isa 1
        LDR       A1, [SP, #12]         ; [DPU_V7M3_PIPE] |2615| 
        ORR       A1, A1, #128          ; [DPU_V7M3_PIPE] |2615| 
        STR       A1, [SP, #12]         ; [DPU_V7M3_PIPE] |2615| 
;* --------------------------------------------------------------------------*
||$C$L105||:    
	.dwpsn	file "../driverlib/usb.c",line 2617,column 9,is_stmt,isa 1
        LDR       A1, [SP, #8]          ; [DPU_V7M3_PIPE] |2617| 
        LSRS      A1, A1, #2            ; [DPU_V7M3_PIPE] |2617| 
        BCC       ||$C$L106||           ; [DPU_V7M3_PIPE] |2617| 
        ; BRANCHCC OCCURS {||$C$L106||}  ; [] |2617| 
;* --------------------------------------------------------------------------*
	.dwpsn	file "../driverlib/usb.c",line 2619,column 13,is_stmt,isa 1
        LDR       A1, [SP, #12]         ; [DPU_V7M3_PIPE] |2619| 
        ORR       A1, A1, #64           ; [DPU_V7M3_PIPE] |2619| 
        STR       A1, [SP, #12]         ; [DPU_V7M3_PIPE] |2619| 
;* --------------------------------------------------------------------------*
||$C$L106||:    
	.dwpsn	file "../driverlib/usb.c",line 2621,column 9,is_stmt,isa 1
        LDR       A2, [SP, #4]          ; [DPU_V7M3_PIPE] |2621| 
        LDR       A1, [SP, #0]          ; [DPU_V7M3_PIPE] |2621| 
        LDRB      A3, [SP, #12]         ; [DPU_V7M3_PIPE] |2621| 
        ADDS      A1, A1, A2            ; [DPU_V7M3_PIPE] |2621| 
        STRB      A3, [A1, #263]        ; [DPU_V7M3_PIPE] |2621| 
	.dwpsn	file "../driverlib/usb.c",line 2624,column 1,is_stmt,isa 1
;* --------------------------------------------------------------------------*
||$C$L107||:    
        ADD       SP, SP, #16           ; [DPU_V7M3_PIPE] 
	.dwcfi	cfa_offset, 0
$C$DW$288	.dwtag  DW_TAG_TI_branch
	.dwattr $C$DW$288, DW_AT_low_pc(0x00)
	.dwattr $C$DW$288, DW_AT_TI_return

        BX        LR                    ; [DPU_V7M3_PIPE] 
        ; BRANCH OCCURS                  ; [] 
	.dwattr $C$DW$280, DW_AT_TI_end_file("../driverlib/usb.c")
	.dwattr $C$DW$280, DW_AT_TI_end_line(0xa40)
	.dwattr $C$DW$280, DW_AT_TI_end_column(0x01)
	.dwendentry
	.dwendtag $C$DW$280

	.sect	".text"
	.clink
	.thumbfunc USBEndpointDMAEnable
	.thumb
	.global	USBEndpointDMAEnable

$C$DW$289	.dwtag  DW_TAG_subprogram
	.dwattr $C$DW$289, DW_AT_name("USBEndpointDMAEnable")
	.dwattr $C$DW$289, DW_AT_low_pc(USBEndpointDMAEnable)
	.dwattr $C$DW$289, DW_AT_high_pc(0x00)
	.dwattr $C$DW$289, DW_AT_TI_symbol_name("USBEndpointDMAEnable")
